 misc

 Timestamp is 6678c8b8 (Sun Jun 23 19:15:36 2024)

 Preferred load address is 0000000180000000

 Start         Length     Name                   Class
 0001:00000000 000000d0H .text$di                CODE
 0001:000000d0 00021300H .text$mn                CODE
 0001:000213d0 00000040H .text$mn$00             CODE
 0001:00021410 00001a70H .text$x                 CODE
 0001:00022e80 00000213H .text$yd                CODE
 0002:00000000 00000558H .idata$5                DATA
 0002:00000558 00000028H .00cfg                  DATA
 0002:00000580 00000008H .CRT$XCA                DATA
 0002:00000588 00000008H .CRT$XCL                DATA
 0002:00000590 00000030H .CRT$XCU                DATA
 0002:000005c0 00000008H .CRT$XCZ                DATA
 0002:000005c8 00000008H .CRT$XIA                DATA
 0002:000005d0 00000008H .CRT$XIC                DATA
 0002:000005d8 00000008H .CRT$XIU                DATA
 0002:000005e0 00000008H .CRT$XIZ                DATA
 0002:000005e8 00000008H .CRT$XLA                DATA
 0002:000005f0 00000008H .CRT$XLC                DATA
 0002:000005f8 00000008H .CRT$XLZ                DATA
 0002:00000600 00000008H .CRT$XPA                DATA
 0002:00000608 00000008H .CRT$XPZ                DATA
 0002:00000610 00000008H .CRT$XTA                DATA
 0002:00000618 00000008H .CRT$XTU                DATA
 0002:00000620 00000010H .CRT$XTZ                DATA
 0002:00000628 00000000H .gehcont$y              DATA
 0002:00000628 00000000H .gfids$y                DATA
 0002:00000630 00001dd0H .rdata                  DATA
 0002:00002400 00000000H .rdata$CastGuardVftablesA DATA
 0002:00002400 00000000H .rdata$CastGuardVftablesC DATA
 0002:00002400 00000030H .rdata$T                DATA
 0002:00002430 00002fd4H .rdata$r                DATA
 0002:00005404 00000058H .rdata$voltmd           DATA
 0002:0000545c 00000434H .rdata$zzzdbg           DATA
 0002:00005890 00000008H .rtc$IAA                DATA
 0002:00005898 00000008H .rtc$IZZ                DATA
 0002:000058a0 00000008H .rtc$TAA                DATA
 0002:000058a8 00000008H .rtc$TZZ                DATA
 0002:000058b0 00000004H .tls                    DATA
 0002:000058b4 00000004H .tls$                   DATA
 0002:000058b8 00000008H .tls$ZZZ                DATA
 0002:000058c0 00003880H .xdata                  DATA
 0002:00009140 00000ab0H .xdata$x                DATA
 0002:00009bf0 0000cf38H .edata                  DATA
 0002:00016b28 000000c8H .idata$2                DATA
 0002:00016bf0 00000018H .idata$3                DATA
 0002:00016c08 00000558H .idata$4                DATA
 0002:00017160 00001820H .idata$6                DATA
 0003:00000000 00000040H .data                   DATA
 0003:00000040 00000ab0H .data$r                 DATA
 0003:00000af0 00000c60H .data$rs                DATA
 0003:00001750 00000960H .bss                    DATA
 0004:00000000 00002364H .pdata                  DATA
 0005:00000000 000000a0H .rsrc$01                DATA
 0005:000000a0 000004d8H .rsrc$02                DATA

  Address         Publics by Value              Rva+Base               Lib:Object

 0000:00000000       ___safe_se_handler_table   0000000000000000     <absolute>
 0000:00000000       __arm64x_redirection_metadata 0000000000000000     <absolute>
 0000:00000000       __guard_iat_table          0000000000000000     <absolute>
 0000:00000000       __guard_longjmp_table      0000000000000000     <absolute>
 0000:00000000       __x64_code_ranges_to_entry_points 0000000000000000     <absolute>
 0000:00000000       __guard_iat_count          0000000000000000     <absolute>
 0000:00000000       __guard_fids_count         0000000000000000     <absolute>
 0000:00000000       __guard_longjmp_count      0000000000000000     <absolute>
 0000:00000000       __dynamic_value_reloc_table 0000000000000000     <absolute>
 0000:00000000       __arm64x_extra_rfe_table   0000000000000000     <absolute>
 0000:00000000       __x64_code_ranges_to_entry_points_count 0000000000000000     <absolute>
 0000:00000000       __hybrid_auxiliary_iat     0000000000000000     <absolute>
 0000:00000000       __hybrid_auxiliary_iat_copy 0000000000000000     <absolute>
 0000:00000000       __hybrid_code_map          0000000000000000     <absolute>
 0000:00000000       __arm64x_extra_rfe_table_size 0000000000000000     <absolute>
 0000:00000000       ___safe_se_handler_count   0000000000000000     <absolute>
 0000:00000000       __AbsoluteZero             0000000000000000     <absolute>
 0000:00000000       __guard_check_icall_a64n_fptr 0000000000000000     <absolute>
 0000:00000000       __guard_fids_table         0000000000000000     <absolute>
 0000:00000000       __guard_eh_cont_count      0000000000000000     <absolute>
 0000:00000000       __arm64x_redirection_metadata_count 0000000000000000     <absolute>
 0000:00000000       __enclave_config           0000000000000000     <absolute>
 0000:00000000       __guard_eh_cont_table      0000000000000000     <absolute>
 0000:00000000       __arm64x_native_entrypoint 0000000000000000     <absolute>
 0000:00000000       __hybrid_code_map_count    0000000000000000     <absolute>
 0000:00000100       __guard_flags              0000000000000100     <absolute>
 0000:00000000       __ImageBase                0000000180000000     <linker-defined>
 0001:000000d0       __local_stdio_printf_options 00000001800010d0 f i misc.obj
 0001:000000e0       ??0exception@std@@QEAA@AEBV01@@Z 00000001800010e0 f i misc.obj
 0001:00000120       ?what@exception@std@@UEBAPEBDXZ 0000000180001120 f i misc.obj
 0001:00000140       ??_Gbad_alloc@std@@UEAAPEAXI@Z 0000000180001140 f i misc.obj
 0001:00000140       ??_Gruntime_error@std@@UEAAPEAXI@Z 0000000180001140 f i misc.obj
 0001:00000140       ??_Gbad_cast@std@@UEAAPEAXI@Z 0000000180001140 f i misc.obj
 0001:00000140       ??_Ebad_cast@std@@UEAAPEAXI@Z 0000000180001140 f i * CIL library *:* CIL module *
 0001:00000140       ??_Ebad_array_new_length@std@@UEAAPEAXI@Z 0000000180001140 f i * CIL library *:* CIL module *
 0001:00000140       ??_Gbad_month@gregorian@boost@@UEAAPEAXI@Z 0000000180001140 f i misc.obj
 0001:00000140       ??_Elogic_error@std@@UEAAPEAXI@Z 0000000180001140 f i * CIL library *:* CIL module *
 0001:00000140       ??_Glogic_error@std@@UEAAPEAXI@Z 0000000180001140 f i misc.obj
 0001:00000140       ??_Gbad_year@gregorian@boost@@UEAAPEAXI@Z 0000000180001140 f i misc.obj
 0001:00000140       ??_Gout_of_range@std@@UEAAPEAXI@Z 0000000180001140 f i misc.obj
 0001:00000140       ??_Ebad_month@gregorian@boost@@UEAAPEAXI@Z 0000000180001140 f i * CIL library *:* CIL module *
 0001:00000140       ??_Gbad_exception@std@@UEAAPEAXI@Z 0000000180001140 f i misc.obj
 0001:00000140       ??_Eruntime_error@std@@UEAAPEAXI@Z 0000000180001140 f i * CIL library *:* CIL module *
 0001:00000140       ??_Ebad_day_of_month@gregorian@boost@@UEAAPEAXI@Z 0000000180001140 f i * CIL library *:* CIL module *
 0001:00000140       ??_Gbad_array_new_length@std@@UEAAPEAXI@Z 0000000180001140 f i misc.obj
 0001:00000140       ??_Ebad_exception@std@@UEAAPEAXI@Z 0000000180001140 f i * CIL library *:* CIL module *
 0001:00000140       ??_Gformat_error@io@boost@@UEAAPEAXI@Z 0000000180001140 f i misc.obj
 0001:00000140       ??_Gbad_day_of_month@gregorian@boost@@UEAAPEAXI@Z 0000000180001140 f i misc.obj
 0001:00000140       ??_Eformat_error@io@boost@@UEAAPEAXI@Z 0000000180001140 f i * CIL library *:* CIL module *
 0001:00000140       ??_Eout_of_range@std@@UEAAPEAXI@Z 0000000180001140 f i * CIL library *:* CIL module *
 0001:00000140       ??_Gexception@std@@UEAAPEAXI@Z 0000000180001140 f i misc.obj
 0001:00000140       ??_Eexception@std@@UEAAPEAXI@Z 0000000180001140 f i * CIL library *:* CIL module *
 0001:00000140       ??_Ebad_alloc@std@@UEAAPEAXI@Z 0000000180001140 f i * CIL library *:* CIL module *
 0001:00000140       ??_Ebad_year@gregorian@boost@@UEAAPEAXI@Z 0000000180001140 f i * CIL library *:* CIL module *
 0001:00000190       ??0bad_alloc@std@@QEAA@XZ  0000000180001190 f i misc.obj
 0001:000001c0       ??1bad_array_new_length@std@@UEAA@XZ 00000001800011c0 f i misc.obj
 0001:000001c0       ??1bad_day_of_month@gregorian@boost@@UEAA@XZ 00000001800011c0 f i misc.obj
 0001:000001c0       ??1bad_format_string@io@boost@@UEAA@XZ 00000001800011c0 f i misc.obj
 0001:000001c0       ??1too_few_args@io@boost@@UEAA@XZ 00000001800011c0 f i misc.obj
 0001:000001c0       ??1bad_lexical_cast@boost@@UEAA@XZ 00000001800011c0 f i misc.obj
 0001:000001c0       ??1bad_alloc@std@@UEAA@XZ  00000001800011c0 f i misc.obj
 0001:000001c0       ??1runtime_error@std@@UEAA@XZ 00000001800011c0 f i misc.obj
 0001:000001c0       ??1bad_month@gregorian@boost@@UEAA@XZ 00000001800011c0 f i misc.obj
 0001:000001c0       ??1bad_cast@std@@UEAA@XZ   00000001800011c0 f i misc.obj
 0001:000001c0       ??1bad_year@gregorian@boost@@UEAA@XZ 00000001800011c0 f i misc.obj
 0001:000001c0       ??1too_many_args@io@boost@@UEAA@XZ 00000001800011c0 f i misc.obj
 0001:000001e0       ??0bad_array_new_length@std@@QEAA@XZ 00000001800011e0 f i misc.obj
 0001:00000210       ?_Throw_bad_array_new_length@std@@YAXXZ 0000000180001210 f i misc.obj
 0001:00000210       ?__scrt_throw_std_bad_array_new_length@@YAXXZ 0000000180001210 f i MSVCRT:throw_bad_alloc.obj
 0001:00000230       ??0bad_array_new_length@std@@QEAA@AEBV01@@Z 0000000180001230 f i misc.obj
 0001:00000270       ??0bad_alloc@std@@QEAA@AEBV01@@Z 0000000180001270 f i misc.obj
 0001:000002b0       ?_Xlen_string@std@@YAXXZ   00000001800012b0 f i misc.obj
 0001:000002d0       ??0runtime_error@std@@QEAA@PEBD@Z 00000001800012d0 f i misc.obj
 0001:00000320       ??0runtime_error@std@@QEAA@AEBV01@@Z 0000000180001320 f i misc.obj
 0001:00000360       ??0bad_cast@std@@QEAA@XZ   0000000180001360 f i misc.obj
 0001:00000390       ?_Throw_bad_cast@std@@YAXXZ 0000000180001390 f i misc.obj
 0001:000003b0       ??0bad_cast@std@@QEAA@AEBV01@@Z 00000001800013b0 f i misc.obj
 0001:000003f0       __scrt_stub_for_is_c_termination_complete 00000001800013f0 f i MSVCRT:ucrt_stubs.obj
 0001:000003f0       ?get_untyped_deleter@?$sp_counted_impl_p@V?$clone_impl@Ubad_alloc_@exception_detail@boost@@@exception_detail@boost@@@detail@boost@@UEAAPEAXXZ 00000001800013f0 f i misc.obj
 0001:000003f0       ?_Get_deleter@_Ref_count_base@std@@UEBAPEAXAEBVtype_info@@@Z 00000001800013f0 f i misc.obj
 0001:000003f0       _is_c_termination_complete 00000001800013f0 f i MSVCRT:ucrt_stubs.obj
 0001:000003f0       ?get_local_deleter@?$sp_counted_impl_p@V?$clone_impl@Ubad_alloc_@exception_detail@boost@@@exception_detail@boost@@@detail@boost@@UEAAPEAXAEBVtype_info@@@Z 00000001800013f0 f i misc.obj
 0001:000003f0       ?get_deleter@?$sp_counted_impl_p@V?$clone_impl@Ubad_alloc_@exception_detail@boost@@@exception_detail@boost@@@detail@boost@@UEAAPEAXAEBVtype_info@@@Z 00000001800013f0 f i misc.obj
 0001:000003f0       ?get_untyped_deleter@?$sp_counted_impl_p@V?$clone_impl@Ubad_exception_@exception_detail@boost@@@exception_detail@boost@@@detail@boost@@UEAAPEAXXZ 00000001800013f0 f i misc.obj
 0001:000003f0       ?get_deleter@?$sp_counted_impl_p@V?$clone_impl@Ubad_exception_@exception_detail@boost@@@exception_detail@boost@@@detail@boost@@UEAAPEAXAEBVtype_info@@@Z 00000001800013f0 f i misc.obj
 0001:000003f0       ?get_local_deleter@?$sp_counted_impl_p@V?$clone_impl@Ubad_exception_@exception_detail@boost@@@exception_detail@boost@@@detail@boost@@UEAAPEAXAEBVtype_info@@@Z 00000001800013f0 f i misc.obj
 0001:00000400       ??1locale@std@@QEAA@XZ     0000000180001400 f i misc.obj
 0001:00000430       ?name@locale@std@@QEBA?AV?$basic_string@DU?$char_traits@D@std@@V?$allocator@D@2@@2@XZ 0000000180001430 f i misc.obj
 0001:000005a0       ??8locale@std@@QEBA_NAEBV01@@Z 00000001800015a0 f i misc.obj
 0001:000007c0       ??$_Maklocstr@_W@std@@YAPEA_WPEBDPEA_WAEBU_Cvtvec@@@Z 00000001800017c0 f i misc.obj
 0001:000008c0       ??1clone_base@exception_detail@boost@@UEAA@XZ 00000001800018c0 f i misc.obj
 0001:000008d0       ??_Gclone_base@exception_detail@boost@@UEAAPEAXI@Z 00000001800018d0 f i misc.obj
 0001:000008d0       ??_Eclone_base@exception_detail@boost@@UEAAPEAXI@Z 00000001800018d0 f i * CIL library *:* CIL module *
 0001:00000900       ?copy_boost_exception@exception_detail@boost@@YAXPEAVexception@2@PEBV32@@Z 0000000180001900 f i misc.obj
 0001:000009c0       ??0bad_day_of_month@gregorian@boost@@QEAA@XZ 00000001800019c0 f i misc.obj
 0001:00000ab0       ??0bad_day_of_month@gregorian@boost@@QEAA@AEBV?$basic_string@DU?$char_traits@D@std@@V?$allocator@D@2@@std@@@Z 0000000180001ab0 f i misc.obj
 0001:00000b10       ??0bad_year@gregorian@boost@@QEAA@XZ 0000000180001b10 f i misc.obj
 0001:00000c00       ??0bad_month@gregorian@boost@@QEAA@XZ 0000000180001c00 f i misc.obj
 0001:00000cf0       ??Zdate_duration@gregorian@boost@@QEAAAEAV012@AEBV012@@Z 0000000180001cf0 f i misc.obj
 0001:00000d90       ??Ydate_duration@gregorian@boost@@QEAAAEAV012@AEBV012@@Z 0000000180001d90 f i misc.obj
 0001:00000e30       ??_0date_duration@gregorian@boost@@QEAAAEAV012@H@Z 0000000180001e30 f i misc.obj
 0001:00000f20       ??0date@gregorian@boost@@QEAA@Vgreg_year@12@Vgreg_month@12@Vgreg_day@12@@Z 0000000180001f20 f i misc.obj
 0001:00001090       ??0date@gregorian@boost@@QEAA@W4special_values@date_time@2@@Z 0000000180002090 f i misc.obj
 0001:00001160       ?localtime@c_time@date_time@boost@@SAPEAUtm@@PEB_JPEAU4@@Z 0000000180002160 f i misc.obj
 0001:00001190       ??0time_duration@posix_time@boost@@QEAA@_J000@Z 0000000180002190 f i misc.obj
 0001:00001220       ??0ptime@posix_time@boost@@QEAA@W4special_values@date_time@2@@Z 0000000180002220 f i misc.obj
 0001:00001380       ?_Throw_tree_length_error@std@@YAXXZ 0000000180002380 f i misc.obj
 0001:000013a0       ?what@bad_lexical_cast@boost@@UEBAPEBDXZ 00000001800023a0 f i misc.obj
 0001:000013b0       ??0bad_lexical_cast@boost@@QEAA@AEBVtype_info@@0@Z 00000001800023b0 f i misc.obj
 0001:000013e0       ??_Gtoo_many_args@io@boost@@UEAAPEAXI@Z 00000001800023e0 f i misc.obj
 0001:000013e0       ??_Ebad_format_string@io@boost@@UEAAPEAXI@Z 00000001800023e0 f i * CIL library *:* CIL module *
 0001:000013e0       ??_Ebad_lexical_cast@boost@@UEAAPEAXI@Z 00000001800023e0 f i * CIL library *:* CIL module *
 0001:000013e0       ??_Gbad_format_string@io@boost@@UEAAPEAXI@Z 00000001800023e0 f i misc.obj
 0001:000013e0       ??_Gbad_lexical_cast@boost@@UEAAPEAXI@Z 00000001800023e0 f i misc.obj
 0001:000013e0       ??_Etoo_many_args@io@boost@@UEAAPEAXI@Z 00000001800023e0 f i * CIL library *:* CIL module *
 0001:000013e0       ??_Gtoo_few_args@io@boost@@UEAAPEAXI@Z 00000001800023e0 f i misc.obj
 0001:000013e0       ??_Etoo_few_args@io@boost@@UEAAPEAXI@Z 00000001800023e0 f i * CIL library *:* CIL module *
 0001:00001430       ??$checked_delete@V?$clone_impl@Ubad_alloc_@exception_detail@boost@@@exception_detail@boost@@@boost@@YAXPEAV?$clone_impl@Ubad_alloc_@exception_detail@boost@@@exception_detail@0@@Z 0000000180002430 f i misc.obj
 0001:00001430       ?destroy@sp_counted_base@detail@boost@@UEAAXXZ 0000000180002430 f i misc.obj
 0001:00001430       ??$checked_delete@V?$clone_impl@Ubad_exception_@exception_detail@boost@@@exception_detail@boost@@@boost@@YAXPEAV?$clone_impl@Ubad_exception_@exception_detail@boost@@@exception_detail@0@@Z 0000000180002430 f i misc.obj
 0001:00001450       ??_Gsp_counted_base@detail@boost@@UEAAPEAXI@Z 0000000180002450 f i misc.obj
 0001:00001450       ??_Esp_counted_base@detail@boost@@UEAAPEAXI@Z 0000000180002450 f i * CIL library *:* CIL module *
 0001:00001480       ??1shared_count@detail@boost@@QEAA@XZ 0000000180002480 f i misc.obj
 0001:000014d0       ?sp_enable_shared_from_this@detail@boost@@YAXZZ 00000001800024d0 f i misc.obj
 0001:000014f0       ?split@date_time@boost@@YA_NAEBV?$basic_string@DU?$char_traits@D@std@@V?$allocator@D@2@@std@@DAEAV34@1@Z 00000001800024f0 f i misc.obj
 0001:00001750       ??1bad_alloc_@exception_detail@boost@@UEAA@XZ 0000000180002750 f i misc.obj
 0001:000017b0       ??_Ebad_alloc_@exception_detail@boost@@UEAAPEAXI@Z 00000001800027b0 f i * CIL library *:* CIL module *
 0001:000017b0       ??_Gbad_alloc_@exception_detail@boost@@UEAAPEAXI@Z 00000001800027b0 f i misc.obj
 0001:00001830       ??1bad_exception_@exception_detail@boost@@UEAA@XZ 0000000180002830 f i misc.obj
 0001:00001890       ??_Gbad_exception_@exception_detail@boost@@UEAAPEAXI@Z 0000000180002890 f i misc.obj
 0001:00001890       ??_Ebad_exception_@exception_detail@boost@@UEAAPEAXI@Z 0000000180002890 f i * CIL library *:* CIL module *
 0001:00001910       ??0exception@boost@@QEAA@AEBV01@@Z 0000000180002910 f i misc.obj
 0001:00001970       ?trim@yloader@@YA?BV?$basic_string@_WU?$char_traits@_W@std@@V?$allocator@_W@2@@std@@AEBV23@@Z 0000000180002970 f i misc.obj
 0001:00001c60       ?s2ws@yloader@@YA?AV?$basic_string@_WU?$char_traits@_W@std@@V?$allocator@_W@2@@std@@PEBD@Z 0000000180002c60 f i misc.obj
 0001:00001df0       ?ws2s@yloader@@YA?AV?$basic_string@DU?$char_traits@D@std@@V?$allocator@D@2@@std@@AEBV?$basic_string@_WU?$char_traits@_W@std@@V?$allocator@_W@2@@3@@Z 0000000180002df0 f i misc.obj
 0001:00001f90       ??_GTimeDurationAbstr@yloader@@UEAAPEAXI@Z 0000000180002f90 f i misc.obj
 0001:00001f90       ??_ETimeDurationAbstr@yloader@@UEAAPEAXI@Z 0000000180002f90 f i * CIL library *:* CIL module *
 0001:00001fc0       ??_GDateDurationAbstr@yloader@@UEAAPEAXI@Z 0000000180002fc0 f i misc.obj
 0001:00001fc0       ??_EDateDurationAbstr@yloader@@UEAAPEAXI@Z 0000000180002fc0 f i * CIL library *:* CIL module *
 0001:00001ff0       ??1DateAbstr@yloader@@UEAA@XZ 0000000180002ff0 f i misc.obj
 0001:00002000       ??_GDateAbstr@yloader@@UEAAPEAXI@Z 0000000180003000 f i misc.obj
 0001:00002000       ??_EDateAbstr@yloader@@UEAAPEAXI@Z 0000000180003000 f i * CIL library *:* CIL module *
 0001:00002030       ??1DateTimeAbstr@yloader@@UEAA@XZ 0000000180003030 f i misc.obj
 0001:00002040       ??_GDateTimeAbstr@yloader@@UEAAPEAXI@Z 0000000180003040 f i misc.obj
 0001:00002040       ??_EDateTimeAbstr@yloader@@UEAAPEAXI@Z 0000000180003040 f i * CIL library *:* CIL module *
 0001:00002070       ??_D?$basic_ostringstream@_WU?$char_traits@_W@std@@V?$allocator@_W@2@@std@@QEAAXXZ 0000000180003070 f i misc.obj
 0001:000020d0       ??0DateException@yloader@@QEAA@AEBV?$basic_string@_WU?$char_traits@_W@std@@V?$allocator@_W@2@@std@@0@Z 00000001800030d0 f i misc.obj
 0001:00002110       ??_GTimerAbstr@yloader@@UEAAPEAXI@Z 0000000180003110 f i misc.obj
 0001:00002110       ??_ETimerAbstr@yloader@@UEAAPEAXI@Z 0000000180003110 f i * CIL library *:* CIL module *
 0001:00002140       ??0VersionException@yloader@@QEAA@AEBV01@@Z 0000000180003140 f i misc.obj
 0001:00002140       ??0VersionException@yloader@@QEAA@AEBV?$basic_string@_WU?$char_traits@_W@std@@V?$allocator@_W@2@@std@@@Z 0000000180003140 f i misc.obj
 0001:00002160       ?major@Version@yloader@@QEBAIXZ 0000000180003160 f i misc.obj
 0001:00002170       ?minor@Version@yloader@@QEBAIXZ 0000000180003170 f i misc.obj
 0001:00002180       ?days@DateDurationImpl@@UEBAJXZ 0000000180003180 f i misc.obj
 0001:00002180       ?revision@Version@yloader@@QEBAIXZ 0000000180003180 f i misc.obj
 0001:00002190       ?build@Version@yloader@@QEBAIXZ 0000000180003190 f i misc.obj
 0001:000021a0       ??OVersion@yloader@@QEAA_NAEBV01@@Z 00000001800031a0 f i misc.obj
 0001:000021e0       ??BVersion@yloader@@QEBA_NXZ 00000001800031e0 f i misc.obj
 0001:000021f0       ?toShortString@Version@yloader@@QEBA?AV?$basic_string@_WU?$char_traits@_W@std@@V?$allocator@_W@2@@std@@XZ 00000001800031f0 f i misc.obj
 0001:000022a0       ?toString@Version@yloader@@QEBA?AV?$basic_string@_WU?$char_traits@_W@std@@V?$allocator@_W@2@@std@@XZ 00000001800032a0 f i misc.obj
 0001:00002470       ??4Version@yloader@@QEAAAEAV01@AEBV01@@Z 0000000180003470 f i misc.obj
 0001:00002480       ??4Version@yloader@@QEAAAEAV01@$$QEAV01@@Z 0000000180003480 f i misc.obj
 0001:000024a0       ?what@format_error@io@boost@@UEBAPEBDXZ 00000001800034a0 f i misc.obj
 0001:000024b0       ??0bad_format_string@io@boost@@QEAA@_K0@Z 00000001800034b0 f i misc.obj
 0001:000024d0       ?what@bad_format_string@io@boost@@UEBAPEBDXZ 00000001800034d0 f i misc.obj
 0001:000024e0       ??0too_few_args@io@boost@@QEAA@_K0@Z 00000001800034e0 f i misc.obj
 0001:00002500       ?what@too_few_args@io@boost@@UEBAPEBDXZ 0000000180003500 f i misc.obj
 0001:00002510       ??0too_many_args@io@boost@@QEAA@_K0@Z 0000000180003510 f i misc.obj
 0001:00002530       ?what@too_many_args@io@boost@@UEBAPEBDXZ 0000000180003530 f i misc.obj
 0001:00002540       DllMain                    0000000180003540 f   misc.obj
 0001:00002540       _get_startup_argv_mode     0000000180003540 f   MSVCRT:argv_mode.obj
 0001:00002550       ?tsprint@yloader@@YAAEAV?$basic_ostream@_WU?$char_traits@_W@std@@@std@@AEBV?$basic_string@_WU?$char_traits@_W@std@@V?$allocator@_W@2@@3@AEAV23@@Z 0000000180003550 f   misc.obj
 0001:000025c0       ?tsprint@yloader@@YAAEAV?$basic_ostream@_WU?$char_traits@_W@std@@@std@@AEBV?$basic_ostringstream@_WU?$char_traits@_W@std@@V?$allocator@_W@2@@3@AEAV23@@Z 00000001800035c0 f   misc.obj
 0001:00002650       ?is_negative@DateDurationImpl@@UEBA_NXZ 0000000180003650 f i misc.obj
 0001:000026c0       ??8DateDurationImpl@@UEBA_NAEBVDateDurationAbstr@yloader@@@Z 00000001800036c0 f i misc.obj
 0001:00002710       ??9DateDurationImpl@@UEBA_NAEBVDateDurationAbstr@yloader@@@Z 0000000180003710 f i misc.obj
 0001:00002760       ??ODateDurationImpl@@UEBA_NAEBVDateDurationAbstr@yloader@@@Z 0000000180003760 f i misc.obj
 0001:000027c0       ??MDateDurationImpl@@UEBA_NAEBVDateDurationAbstr@yloader@@@Z 00000001800037c0 f i misc.obj
 0001:00002810       ??PDateDurationImpl@@UEBA_NAEBVDateDurationAbstr@yloader@@@Z 0000000180003810 f i misc.obj
 0001:00002860       ??NDateDurationImpl@@UEBA_NAEBVDateDurationAbstr@yloader@@@Z 0000000180003860 f i misc.obj
 0001:000028c0       ??HDateDurationImpl@@UEBA?AV?$shared_ptr@VDateDurationAbstr@yloader@@@std@@AEBVDateDurationAbstr@yloader@@@Z 00000001800038c0 f i misc.obj
 0001:00002960       ??GDateDurationImpl@@UEBA?AV?$shared_ptr@VDateDurationAbstr@yloader@@@std@@AEBVDateDurationAbstr@yloader@@@Z 0000000180003960 f i misc.obj
 0001:00002a00       ??KDateDurationImpl@@UEAA?AV?$shared_ptr@VDateDurationAbstr@yloader@@@std@@H@Z 0000000180003a00 f i misc.obj
 0001:00002a70       ??ZDateDurationImpl@@UEAA?AV?$shared_ptr@VDateDurationAbstr@yloader@@@std@@AEBVDateDurationAbstr@yloader@@@Z 0000000180003a70 f i misc.obj
 0001:00002b00       ??YDateDurationImpl@@UEAA?AV?$shared_ptr@VDateDurationAbstr@yloader@@@std@@AEBVDateDurationAbstr@yloader@@@Z 0000000180003b00 f i misc.obj
 0001:00002b90       ??_0DateDurationImpl@@UEAA?AV?$shared_ptr@VDateDurationAbstr@yloader@@@std@@H@Z 0000000180003b90 f i misc.obj
 0001:00002c00       ??_GDateDurationImpl@@UEAAPEAXI@Z 0000000180003c00 f i misc.obj
 0001:00002c00       ??_EDateDurationImpl@@UEAAPEAXI@Z 0000000180003c00 f i * CIL library *:* CIL module *
 0001:00002c30       ?to_simple_string@DateImpl@@UEBA?AV?$basic_string@_WU?$char_traits@_W@std@@V?$allocator@_W@2@@std@@XZ 0000000180003c30 f i misc.obj
 0001:00002c50       ?to_iso_string@DateImpl@@UEBA?AV?$basic_string@_WU?$char_traits@_W@std@@V?$allocator@_W@2@@std@@XZ 0000000180003c50 f i misc.obj
 0001:00002c70       ?to_iso_extended_string@DateImpl@@UEBA?AV?$basic_string@_WU?$char_traits@_W@std@@V?$allocator@_W@2@@std@@XZ 0000000180003c70 f i misc.obj
 0001:00002d50       ?year@DateImpl@@UEBAGXZ    0000000180003d50 f i misc.obj
 0001:00002d70       ?month@DateImpl@@UEBAGXZ   0000000180003d70 f i misc.obj
 0001:00002d90       ?day@DateImpl@@UEBAGXZ     0000000180003d90 f i misc.obj
 0001:00002db0       ?is_infinity@DateImpl@@UEBA_NXZ 0000000180003db0 f i misc.obj
 0001:00002dc0       ?is_neg_infinity@DateImpl@@UEBA_NXZ 0000000180003dc0 f i misc.obj
 0001:00002dd0       ?is_pos_infinity@DateImpl@@UEBA_NXZ 0000000180003dd0 f i misc.obj
 0001:00002de0       ?is_not_a_date@DateImpl@@UEBA_NXZ 0000000180003de0 f i misc.obj
 0001:00002df0       ?is_special@DateImpl@@UEBA_NXZ 0000000180003df0 f i misc.obj
 0001:00002e10       ?week_number@DateImpl@@UEBAHXZ 0000000180003e10 f i misc.obj
 0001:00002e30       ??8DateImpl@@UEBA_NAEBVDateAbstr@yloader@@@Z 0000000180003e30 f i misc.obj
 0001:00002e70       ??9DateImpl@@UEBA_NAEBVDateAbstr@yloader@@@Z 0000000180003e70 f i misc.obj
 0001:00002eb0       ??ODateImpl@@UEBA_NAEBVDateAbstr@yloader@@@Z 0000000180003eb0 f i misc.obj
 0001:00002ef0       ??MDateImpl@@UEBA_NAEBVDateAbstr@yloader@@@Z 0000000180003ef0 f i misc.obj
 0001:00002f30       ??PDateImpl@@UEBA_NAEBVDateAbstr@yloader@@@Z 0000000180003f30 f i misc.obj
 0001:00002f70       ??NDateImpl@@UEBA_NAEBVDateAbstr@yloader@@@Z 0000000180003f70 f i misc.obj
 0001:00002fb0       ??GDateImpl@@UEBA?AV?$shared_ptr@VDateAbstr@yloader@@@std@@AEBVDateDurationAbstr@yloader@@@Z 0000000180003fb0 f i misc.obj
 0001:00003050       ??HDateImpl@@UEBA?AV?$shared_ptr@VDateAbstr@yloader@@@std@@AEBVDateDurationAbstr@yloader@@@Z 0000000180004050 f i misc.obj
 0001:000030f0       ??GDateImpl@@UEBA?AV?$shared_ptr@VDateDurationAbstr@yloader@@@std@@AEBVDateAbstr@yloader@@@Z 00000001800040f0 f i misc.obj
 0001:000031f0       ??ZDateImpl@@UEAA?AV?$shared_ptr@VDateAbstr@yloader@@@std@@AEBVDateDurationAbstr@yloader@@@Z 00000001800041f0 f i misc.obj
 0001:00003290       ??YDateImpl@@UEAA?AV?$shared_ptr@VDateAbstr@yloader@@@std@@AEBVDateDurationAbstr@yloader@@@Z 0000000180004290 f i misc.obj
 0001:00003330       ??_EDateImpl@@UEAAPEAXI@Z  0000000180004330 f i * CIL library *:* CIL module *
 0001:00003330       ??_GDateImpl@@UEAAPEAXI@Z  0000000180004330 f i misc.obj
 0001:00003360       ??0Date@yloader@@QEAA@AEBV?$basic_string@_WU?$char_traits@_W@std@@V?$allocator@_W@2@@std@@W4DateFormat@1@0@Z 0000000180004360 f   misc.obj
 0001:00003390       ?parse@Date@yloader@@AEAAXAEBV?$basic_string@_WU?$char_traits@_W@std@@V?$allocator@_W@2@@std@@W4DateFormat@2@0@Z 0000000180004390 f   misc.obj
 0001:00004320       ??0?$basic_string@_WU?$char_traits@_W@std@@V?$allocator@_W@2@@std@@QEAA@QEB_W@Z 0000000180005320 f i misc.obj
 0001:00004360       ?assign@?$basic_string@_WU?$char_traits@_W@std@@V?$allocator@_W@2@@std@@QEAAAEAV12@QEB_W_K@Z 0000000180005360 f i misc.obj
 0001:00004500       ??1VersionException@yloader@@QEAA@XZ 0000000180005500 f i misc.obj
 0001:00004500       ??1?$basic_string@_WU?$char_traits@_W@std@@V?$allocator@_W@2@@std@@QEAA@XZ 0000000180005500 f i misc.obj
 0001:00004500       ??1?$CIsFromString@_W@@QEAA@XZ 0000000180005500 f i misc.obj
 0001:00004570       ??1?$CTokenizer@_WV?$CIsFromString@_W@@@@QEAA@XZ 0000000180005570 f i misc.obj
 0001:00004580       ??1DateException@yloader@@QEAA@XZ 0000000180005580 f i misc.obj
 0001:00004580       ??1?$pair@V?$basic_string@_WU?$char_traits@_W@std@@V?$allocator@_W@2@@std@@V12@@std@@QEAA@XZ 0000000180005580 f i namevalue.obj
 0001:00004640       ??0DateException@yloader@@QEAA@AEBV01@@Z 0000000180005640 f i misc.obj
 0001:00004680       ?hours@TimeDurationImpl@@UEBAJXZ 0000000180005680 f i misc.obj
 0001:000046b0       ?minutes@TimeDurationImpl@@UEBAJXZ 00000001800056b0 f i misc.obj
 0001:00004700       ?seconds@TimeDurationImpl@@UEBAJXZ 0000000180005700 f i misc.obj
 0001:00004750       ?total_seconds@TimeDurationImpl@@UEBAJXZ 0000000180005750 f i misc.obj
 0001:00004770       ?fractional_seconds@TimeDurationImpl@@UEBAJXZ 0000000180005770 f i misc.obj
 0001:000047a0       ?is_negative@TimeDurationImpl@@UEBA_NXZ 00000001800057a0 f i misc.obj
 0001:000047d0       ??8TimeDurationImpl@@UEBA_NAEBVTimeDurationAbstr@yloader@@@Z 00000001800057d0 f i misc.obj
 0001:00004820       ??9TimeDurationImpl@@UEBA_NAEBVTimeDurationAbstr@yloader@@@Z 0000000180005820 f i misc.obj
 0001:00004870       ??OTimeDurationImpl@@UEBA_NAEBVTimeDurationAbstr@yloader@@@Z 0000000180005870 f i misc.obj
 0001:000048c0       ??MTimeDurationImpl@@UEBA_NAEBVTimeDurationAbstr@yloader@@@Z 00000001800058c0 f i misc.obj
 0001:00004910       ??PTimeDurationImpl@@UEBA_NAEBVTimeDurationAbstr@yloader@@@Z 0000000180005910 f i misc.obj
 0001:00004960       ??NTimeDurationImpl@@UEBA_NAEBVTimeDurationAbstr@yloader@@@Z 0000000180005960 f i misc.obj
 0001:000049b0       ??HTimeDurationImpl@@UEBA?AV?$shared_ptr@VTimeDurationAbstr@yloader@@@std@@AEBVTimeDurationAbstr@yloader@@@Z 00000001800059b0 f i misc.obj
 0001:00004ad0       ??GTimeDurationImpl@@UEBA?AV?$shared_ptr@VTimeDurationAbstr@yloader@@@std@@AEBVTimeDurationAbstr@yloader@@@Z 0000000180005ad0 f i misc.obj
 0001:00004bf0       ??KTimeDurationImpl@@UEAA?AV?$shared_ptr@VTimeDurationAbstr@yloader@@@std@@H@Z 0000000180005bf0 f i misc.obj
 0001:00004c60       ??DTimeDurationImpl@@UEAA?AV?$shared_ptr@VTimeDurationAbstr@yloader@@@std@@H@Z 0000000180005c60 f i misc.obj
 0001:00004cd0       ??ZTimeDurationImpl@@UEAA?AV?$shared_ptr@VTimeDurationAbstr@yloader@@@std@@AEBVTimeDurationAbstr@yloader@@@Z 0000000180005cd0 f i misc.obj
 0001:00004e00       ??YTimeDurationImpl@@UEAA?AV?$shared_ptr@VTimeDurationAbstr@yloader@@@std@@AEBVTimeDurationAbstr@yloader@@@Z 0000000180005e00 f i misc.obj
 0001:00004f30       ??_0TimeDurationImpl@@UEAA?AV?$shared_ptr@VTimeDurationAbstr@yloader@@@std@@H@Z 0000000180005f30 f i misc.obj
 0001:00004fb0       ??XTimeDurationImpl@@UEAA?AV?$shared_ptr@VTimeDurationAbstr@yloader@@@std@@H@Z 0000000180005fb0 f i misc.obj
 0001:00005030       ??_GTimeDurationImpl@@UEAAPEAXI@Z 0000000180006030 f i misc.obj
 0001:00005030       ??_ETimeDurationImpl@@UEAAPEAXI@Z 0000000180006030 f i * CIL library *:* CIL module *
 0001:00005060       ??MDateTimeImpl@@UEBA_NAEBVDateTimeAbstr@yloader@@@Z 0000000180006060 f i misc.obj
 0001:000050a0       ??ODateTimeImpl@@UEBA_NAEBVDateTimeAbstr@yloader@@@Z 00000001800060a0 f i misc.obj
 0001:000050e0       ??PDateTimeImpl@@UEBA_NAEBVDateTimeAbstr@yloader@@@Z 00000001800060e0 f i misc.obj
 0001:00005120       ??NDateTimeImpl@@UEBA_NAEBVDateTimeAbstr@yloader@@@Z 0000000180006120 f i misc.obj
 0001:00005160       ??8DateTimeImpl@@UEBA_NAEBVDateTimeAbstr@yloader@@@Z 0000000180006160 f i misc.obj
 0001:000051a0       ??9DateTimeImpl@@UEBA_NAEBVDateTimeAbstr@yloader@@@Z 00000001800061a0 f i misc.obj
 0001:000051e0       ?to_simple_string@DateTimeImpl@@UEBA?AV?$basic_string@_WU?$char_traits@_W@std@@V?$allocator@_W@2@@std@@XZ 00000001800061e0 f i misc.obj
 0001:00005200       ?to_iso_string@DateTimeImpl@@UEBA?AV?$basic_string@_WU?$char_traits@_W@std@@V?$allocator@_W@2@@std@@XZ 0000000180006200 f i misc.obj
 0001:00005220       ?to_epoch_time@DateTimeImpl@@UEBA_JXZ 0000000180006220 f i misc.obj
 0001:000052a0       ?date@DateTimeImpl@@UEBA?AV?$shared_ptr@VDateAbstr@yloader@@@std@@XZ 00000001800062a0 f i misc.obj
 0001:00005340       ?time_of_day@DateTimeImpl@@UEBA?AV?$shared_ptr@VTimeDurationAbstr@yloader@@@std@@XZ 0000000180006340 f i misc.obj
 0001:00005460       ?is_not_a_date_time@DateTimeImpl@@UEBA_NXZ 0000000180006460 f i misc.obj
 0001:00005480       ?is_infinity@DateTimeImpl@@UEBA_NXZ 0000000180006480 f i misc.obj
 0001:000054a0       ?is_pos_infinity@DateTimeImpl@@UEBA_NXZ 00000001800064a0 f i misc.obj
 0001:000054c0       ?is_neg_infinity@DateTimeImpl@@UEBA_NXZ 00000001800064c0 f i misc.obj
 0001:000054e0       ?is_special@DateTimeImpl@@UEBA_NXZ 00000001800064e0 f i misc.obj
 0001:00005500       ??GDateTimeImpl@@UEBA?AV?$shared_ptr@VTimeDurationAbstr@yloader@@@std@@AEBVDateTimeAbstr@yloader@@@Z 0000000180006500 f i misc.obj
 0001:000055a0       ??HDateTimeImpl@@UEBA?AV?$shared_ptr@VDateTimeAbstr@yloader@@@std@@AEBVDateDurationAbstr@yloader@@@Z 00000001800065a0 f i misc.obj
 0001:000056e0       ??YDateTimeImpl@@UEAA?AV?$shared_ptr@VDateTimeAbstr@yloader@@@std@@AEBVDateDurationAbstr@yloader@@@Z 00000001800066e0 f i misc.obj
 0001:00005830       ??GDateTimeImpl@@UEBA?AV?$shared_ptr@VDateTimeAbstr@yloader@@@std@@AEBVDateDurationAbstr@yloader@@@Z 0000000180006830 f i misc.obj
 0001:00005970       ??ZDateTimeImpl@@UEAA?AV?$shared_ptr@VDateTimeAbstr@yloader@@@std@@AEBVDateDurationAbstr@yloader@@@Z 0000000180006970 f i misc.obj
 0001:00005ac0       ??HDateTimeImpl@@UEBA?AV?$shared_ptr@VDateTimeAbstr@yloader@@@std@@AEBVTimeDurationAbstr@yloader@@@Z 0000000180006ac0 f i misc.obj
 0001:00005b60       ??YDateTimeImpl@@UEAA?AV?$shared_ptr@VDateTimeAbstr@yloader@@@std@@AEBVTimeDurationAbstr@yloader@@@Z 0000000180006b60 f i misc.obj
 0001:00005c00       ??GDateTimeImpl@@UEBA?AV?$shared_ptr@VDateTimeAbstr@yloader@@@std@@AEBVTimeDurationAbstr@yloader@@@Z 0000000180006c00 f i misc.obj
 0001:00005ca0       ??ZDateTimeImpl@@UEAA?AV?$shared_ptr@VDateTimeAbstr@yloader@@@std@@AEBVTimeDurationAbstr@yloader@@@Z 0000000180006ca0 f i misc.obj
 0001:00005d40       ??_EDateTimeImpl@@UEAAPEAXI@Z 0000000180006d40 f i * CIL library *:* CIL module *
 0001:00005d40       ??_GDateTimeImpl@@UEAAPEAXI@Z 0000000180006d40 f i misc.obj
 0001:00005d70       ?localTimeSubSec@DateTimeAbstr@yloader@@SA?AV?$shared_ptr@VDateTimeAbstr@yloader@@@std@@XZ 0000000180006d70 f   misc.obj
 0001:00005de0       ?localTimeSec@DateTimeAbstr@yloader@@SA?AV?$shared_ptr@VDateTimeAbstr@yloader@@@std@@XZ 0000000180006de0 f   misc.obj
 0001:00005e90       ?universalTime@DateTimeAbstr@yloader@@SA?AV?$shared_ptr@VDateTimeAbstr@yloader@@@std@@XZ 0000000180006e90 f   misc.obj
 0001:00005f40       ?make@DateDurationAbstr@yloader@@SA?AV?$shared_ptr@VDateDurationAbstr@yloader@@@std@@J@Z 0000000180006f40 f   misc.obj
 0001:00005fb0       ?make@DateDurationAbstr@yloader@@SA?AV?$shared_ptr@VDateDurationAbstr@yloader@@@std@@XZ 0000000180006fb0 f   misc.obj
 0001:00006010       ?makeFromIsoString@DateTimeAbstr@yloader@@SA?AV?$shared_ptr@VDateTimeAbstr@yloader@@@std@@AEBV?$basic_string@_WU?$char_traits@_W@std@@V?$allocator@_W@2@@4@@Z 0000000180007010 f   misc.obj
 0001:000060f0       ?makeFromDelimitedString@DateTimeAbstr@yloader@@SA?AV?$shared_ptr@VDateTimeAbstr@yloader@@@std@@AEBV?$basic_string@_WU?$char_traits@_W@std@@V?$allocator@_W@2@@4@@Z 00000001800070f0 f   misc.obj
 0001:000061d0       ?makeFromIsoExtendedString@DateTimeAbstr@yloader@@SA?AV?$shared_ptr@VDateTimeAbstr@yloader@@@std@@AEBV?$basic_string@_WU?$char_traits@_W@std@@V?$allocator@_W@2@@4@@Z 00000001800071d0 f   misc.obj
 0001:000062b0       ?makeFromNonDelimitedString@DateTimeAbstr@yloader@@SA?AV?$shared_ptr@VDateTimeAbstr@yloader@@@std@@AEBV?$basic_string@_WU?$char_traits@_W@std@@V?$allocator@_W@2@@4@@Z 00000001800072b0 f   misc.obj
 0001:00006520       ?makeFromUnixTime@DateTimeAbstr@yloader@@SA?AV?$shared_ptr@VDateTimeAbstr@yloader@@@std@@_J@Z 0000000180007520 f   misc.obj
 0001:000065f0       ?make@TimeDurationAbstr@yloader@@SA?AV?$shared_ptr@VTimeDurationAbstr@yloader@@@std@@JJJJ@Z 00000001800075f0 f   misc.obj
 0001:000066a0       ?make@DateAbstr@yloader@@SA?AV?$shared_ptr@VDateAbstr@yloader@@@std@@III@Z 00000001800076a0 f   misc.obj
 0001:000067d0       ?makeNotADate@DateAbstr@yloader@@SA?AV?$shared_ptr@VDateAbstr@yloader@@@std@@XZ 00000001800077d0 f   misc.obj
 0001:000067d0       ?make@DateAbstr@yloader@@SA?AV?$shared_ptr@VDateAbstr@yloader@@@std@@XZ 00000001800077d0 f   misc.obj
 0001:00006830       ?make@DateTimeAbstr@yloader@@SA?AV?$shared_ptr@VDateTimeAbstr@yloader@@@std@@AEBVDateAbstr@2@AEBVTimeDurationAbstr@2@@Z 0000000180007830 f   misc.obj
 0001:00006920       ?make@DateTimeAbstr@yloader@@SA?AV?$shared_ptr@VDateTimeAbstr@yloader@@@std@@XZ 0000000180007920 f   misc.obj
 0001:000069d0       ?make@DateTimeAbstr@yloader@@SA?AV?$shared_ptr@VDateTimeAbstr@yloader@@@std@@AEBVDateAbstr@2@@Z 00000001800079d0 f   misc.obj
 0001:00006a90       ?make@DateTimeAbstr@yloader@@SA?AV?$shared_ptr@VDateTimeAbstr@yloader@@@std@@AEBV12@@Z 0000000180007a90 f   misc.obj
 0001:00006b20       ?makePosInfinity@DateAbstr@yloader@@SA?AV?$shared_ptr@VDateAbstr@yloader@@@std@@XZ 0000000180007b20 f   misc.obj
 0001:00006b80       ?makeNegInfinity@DateAbstr@yloader@@SA?AV?$shared_ptr@VDateAbstr@yloader@@@std@@XZ 0000000180007b80 f   misc.obj
 0001:00006be0       ?makeMaxDate@DateAbstr@yloader@@SA?AV?$shared_ptr@VDateAbstr@yloader@@@std@@XZ 0000000180007be0 f   misc.obj
 0001:00006c60       ?makeMinDate@DateAbstr@yloader@@SA?AV?$shared_ptr@VDateAbstr@yloader@@@std@@XZ 0000000180007c60 f   misc.obj
 0001:00006ce0       ?makePosInfinity@DateTimeAbstr@yloader@@SA?AV?$shared_ptr@VDateTimeAbstr@yloader@@@std@@XZ 0000000180007ce0 f   misc.obj
 0001:00006d70       ?makeNegInfinity@DateTimeAbstr@yloader@@SA?AV?$shared_ptr@VDateTimeAbstr@yloader@@@std@@XZ 0000000180007d70 f   misc.obj
 0001:00006e00       ?makeMaxDateTime@DateTimeAbstr@yloader@@SA?AV?$shared_ptr@VDateTimeAbstr@yloader@@@std@@XZ 0000000180007e00 f   misc.obj
 0001:00006ef0       ?makeMinDateTime@DateTimeAbstr@yloader@@SA?AV?$shared_ptr@VDateTimeAbstr@yloader@@@std@@XZ 0000000180007ef0 f   misc.obj
 0001:00006f90       ?makeNotADateTime@DateTimeAbstr@yloader@@SA?AV?$shared_ptr@VDateTimeAbstr@yloader@@@std@@XZ 0000000180007f90 f   misc.obj
 0001:00007020       ?make@DateAbstr@yloader@@SA?AV?$shared_ptr@VDateAbstr@yloader@@@std@@AEBV12@@Z 0000000180008020 f   misc.obj
 0001:000070b0       ?make@TimeDurationAbstr@yloader@@SA?AV?$shared_ptr@VTimeDurationAbstr@yloader@@@std@@AEBV12@@Z 00000001800080b0 f   misc.obj
 0001:00007140       ?restart@TimerImpl@@UEAAXXZ 0000000180008140 f i misc.obj
 0001:00007160       ?elapsed@TimerImpl@@UEBANXZ 0000000180008160 f i misc.obj
 0001:000071a0       ?stop@TimerImpl@@UEAAXXZ   00000001800081a0 f i misc.obj
 0001:000071e0       ?isStopped@TimerImpl@@UEBA_NXZ 00000001800081e0 f i misc.obj
 0001:000071f0       ??_ETimerImpl@@UEAAPEAXI@Z 00000001800081f0 f i * CIL library *:* CIL module *
 0001:000071f0       ??_GTimerImpl@@UEAAPEAXI@Z 00000001800081f0 f i misc.obj
 0001:00007220       ?make@TimerAbstr@yloader@@SAPEAV12@XZ 0000000180008220 f   misc.obj
 0001:00007260       ??0Version@yloader@@QEAA@XZ 0000000180008260 f   misc.obj
 0001:00007270       ??0Version@yloader@@QEAA@AEBV?$basic_string@_WU?$char_traits@_W@std@@V?$allocator@_W@2@@std@@@Z 0000000180008270 f   misc.obj
 0001:000072a0       ??0Version@yloader@@QEAA@PEB_W@Z 00000001800082a0 f   misc.obj
 0001:000072c0       ??0Version@yloader@@QEAA@IIII@Z 00000001800082c0 f   misc.obj
 0001:000072e0       ?parse@Version@yloader@@AEAAXPEB_W@Z 00000001800082e0 f   misc.obj
 0001:00007620       ??0Seconds@yloader@@QEAA@N@Z 0000000180008620 f   misc.obj
 0001:00007680       ?cmdLineSplitter@yloader@@YA?AV?$vector@V?$basic_string@DU?$char_traits@D@std@@V?$allocator@D@2@@std@@V?$allocator@V?$basic_string@DU?$char_traits@D@std@@V?$allocator@D@2@@std@@@2@@std@@AEBV?$basic_string@_WU?$char_traits@_W@std@@V?$allocator@_W@2@@3@@Z 0000000180008680 f   misc.obj
 0001:00007c10       ?toString@Date@yloader@@QEBA?AV?$basic_string@_WU?$char_traits@_W@std@@V?$allocator@_W@2@@std@@W4DateFormat@2@AEBV34@@Z 0000000180008c10 f   misc.obj
 0001:00007e70       ??1?$vector@V?$basic_string@DU?$char_traits@D@std@@V?$allocator@D@2@@std@@V?$allocator@V?$basic_string@DU?$char_traits@D@std@@V?$allocator@D@2@@std@@@2@@std@@QEAA@XZ 0000000180008e70 f i misc.obj
 0001:00007e80       ??0?$CTokenizer@_WV?$CIsFromString@_W@@@@QEAA@AEBV?$basic_string@_WU?$char_traits@_W@std@@V?$allocator@_W@2@@std@@AEBV?$CIsFromString@_W@@V?$optional@_K@2@@Z 0000000180008e80 f i misc.obj
 0001:00008240       ??1?$scoped_lock@Vmutex@std@@@std@@QEAA@XZ 0000000180009240 f i misc.obj
 0001:00008250       ??1?$basic_altstringbuf@_WU?$char_traits@_W@std@@V?$allocator@_W@2@@io@boost@@UEAA@XZ 0000000180009250 f i misc.obj
 0001:00008310       ??1?$vector@V?$basic_string@_WU?$char_traits@_W@std@@V?$allocator@_W@2@@std@@V?$allocator@V?$basic_string@_WU?$char_traits@_W@std@@V?$allocator@_W@2@@std@@@2@@std@@QEAA@XZ 0000000180009310 f i misc.obj
 0001:00008380       ??1?$shared_ptr@VNameValue@yloader@@@std@@QEAA@XZ 0000000180009380 f i namevalue.obj
 0001:00008380       ??1?$shared_ptr@$$BY0A@D@std@@QEAA@XZ 0000000180009380 f i misc.obj
 0001:00008380       ??1?$shared_ptr@VDateAbstr@yloader@@@std@@QEAA@XZ 0000000180009380 f i misc.obj
 0001:00008380       ??1?$shared_ptr@V?$basic_string@_WU?$char_traits@_W@std@@V?$allocator@_W@2@@std@@@std@@QEAA@XZ 0000000180009380 f i namevalue.obj
 0001:00008380       ??1?$shared_ptr@$$BY0A@_W@std@@QEAA@XZ 0000000180009380 f i misc.obj
 0001:000083d0       ?seekpos@?$basic_stringbuf@_WU?$char_traits@_W@std@@V?$allocator@_W@2@@std@@MEAA?AV?$fpos@U_Mbstatet@@@2@V32@H@Z 00000001800093d0 f i misc.obj
 0001:000084e0       ?seekoff@?$basic_stringbuf@_WU?$char_traits@_W@std@@V?$allocator@_W@2@@std@@MEAA?AV?$fpos@U_Mbstatet@@@2@_JHH@Z 00000001800094e0 f i misc.obj
 0001:00008660       ?underflow@?$basic_stringbuf@_WU?$char_traits@_W@std@@V?$allocator@_W@2@@std@@MEAAGXZ 0000000180009660 f i misc.obj
 0001:000086d0       ?pbackfail@?$basic_stringbuf@_WU?$char_traits@_W@std@@V?$allocator@_W@2@@std@@MEAAGG@Z 00000001800096d0 f i misc.obj
 0001:00008730       ?overflow@?$basic_stringbuf@_WU?$char_traits@_W@std@@V?$allocator@_W@2@@std@@MEAAGG@Z 0000000180009730 f i misc.obj
 0001:00008970       ??1?$basic_stringbuf@_WU?$char_traits@_W@std@@V?$allocator@_W@2@@std@@UEAA@XZ 0000000180009970 f i misc.obj
 0001:00008a40       ?str@?$basic_ostringstream@_WU?$char_traits@_W@std@@V?$allocator@_W@2@@std@@QEGBA?AV?$basic_string@_WU?$char_traits@_W@std@@V?$allocator@_W@2@@2@XZ 0000000180009a40 f i misc.obj
 0001:00008b10       ??0?$basic_ostringstream@_WU?$char_traits@_W@std@@V?$allocator@_W@2@@std@@QEAA@XZ 0000000180009b10 f i misc.obj
 0001:00008bc0       ?date@?$base_time@Vptime@posix_time@boost@@V?$counted_time_system@U?$counted_time_rep@Vmillisec_posix_time_system_config@posix_time@boost@@@date_time@boost@@@date_time@3@@date_time@boost@@QEBA?AV0gregorian@3@XZ 0000000180009bc0 f i misc.obj
 0001:00008d30       ?seekpos@?$basic_stringbuf@DU?$char_traits@D@std@@V?$allocator@D@2@@std@@MEAA?AV?$fpos@U_Mbstatet@@@2@V32@H@Z 0000000180009d30 f i misc.obj
 0001:00008e20       ?seekoff@?$basic_stringbuf@DU?$char_traits@D@std@@V?$allocator@D@2@@std@@MEAA?AV?$fpos@U_Mbstatet@@@2@_JHH@Z 0000000180009e20 f i misc.obj
 0001:00008f80       ?underflow@?$basic_stringbuf@DU?$char_traits@D@std@@V?$allocator@D@2@@std@@MEAAHXZ 0000000180009f80 f i misc.obj
 0001:00008ff0       ?pbackfail@?$basic_stringbuf@DU?$char_traits@D@std@@V?$allocator@D@2@@std@@MEAAHH@Z 0000000180009ff0 f i misc.obj
 0001:00009050       ?overflow@?$basic_stringbuf@DU?$char_traits@D@std@@V?$allocator@D@2@@std@@MEAAHH@Z 000000018000a050 f i misc.obj
 0001:00009250       ??1?$basic_stringbuf@DU?$char_traits@D@std@@V?$allocator@D@2@@std@@UEAA@XZ 000000018000a250 f i misc.obj
 0001:00009310       ??H?$date@V0gregorian@boost@@Vgregorian_calendar@12@Vdate_duration@12@@date_time@boost@@QEBA?AVdate@gregorian@2@AEBVdate_duration@42@@Z 000000018000a310 f i misc.obj
 0001:000093e0       ??G?$date@V0gregorian@boost@@Vgregorian_calendar@12@Vdate_duration@12@@date_time@boost@@QEBA?AVdate@gregorian@2@AEBVdate_duration@42@@Z 000000018000a3e0 f i misc.obj
 0001:000094b0       ??1?$refcount_ptr@Uerror_info_container@exception_detail@boost@@@exception_detail@boost@@QEAA@XZ 000000018000a4b0 f i misc.obj
 0001:000094e0       ?do_truename@?$numpunct@_W@std@@MEBA?AV?$basic_string@_WU?$char_traits@_W@std@@V?$allocator@_W@2@@2@XZ 000000018000a4e0 f i misc.obj
 0001:00009530       ?do_falsename@?$numpunct@_W@std@@MEBA?AV?$basic_string@_WU?$char_traits@_W@std@@V?$allocator@_W@2@@2@XZ 000000018000a530 f i misc.obj
 0001:00009580       ?do_grouping@?$numpunct@D@std@@MEBA?AV?$basic_string@DU?$char_traits@D@std@@V?$allocator@D@2@@2@XZ 000000018000a580 f i misc.obj
 0001:00009580       ?do_grouping@?$numpunct@_W@std@@MEBA?AV?$basic_string@DU?$char_traits@D@std@@V?$allocator@D@2@@2@XZ 000000018000a580 f i misc.obj
 0001:000095d0       ?do_thousands_sep@?$numpunct@_W@std@@MEBA_WXZ 000000018000a5d0 f i misc.obj
 0001:000095e0       ?do_decimal_point@?$numpunct@_W@std@@MEBA_WXZ 000000018000a5e0 f i misc.obj
 0001:000095f0       ?do_truename@?$numpunct@D@std@@MEBA?AV?$basic_string@DU?$char_traits@D@std@@V?$allocator@D@2@@2@XZ 000000018000a5f0 f i misc.obj
 0001:00009640       ?do_falsename@?$numpunct@D@std@@MEBA?AV?$basic_string@DU?$char_traits@D@std@@V?$allocator@D@2@@2@XZ 000000018000a640 f i misc.obj
 0001:00009690       ?do_thousands_sep@?$numpunct@D@std@@MEBADXZ 000000018000a690 f i misc.obj
 0001:000096a0       ?do_decimal_point@?$numpunct@D@std@@MEBADXZ 000000018000a6a0 f i misc.obj
 0001:000096b0       ??0?$basic_string@_WU?$char_traits@_W@std@@V?$allocator@_W@2@@std@@QEAA@AEBV01@@Z 000000018000a6b0 f i misc.obj
 0001:000097b0       ??1?$parse_match_result@D@date_time@boost@@QEAA@XZ 000000018000a7b0 f i misc.obj
 0001:000097b0       ??1?$pair@$$CBV?$basic_string@DU?$char_traits@D@std@@V?$allocator@D@2@@std@@G@std@@QEAA@XZ 000000018000a7b0 f i misc.obj
 0001:000097b0       ??1?$basic_string@DU?$char_traits@D@std@@V?$allocator@D@2@@std@@QEAA@XZ 000000018000a7b0 f i misc.obj
 0001:00009810       ??0?$basic_string@DU?$char_traits@D@std@@V?$allocator@D@2@@std@@QEAA@QEBD@Z 000000018000a810 f i misc.obj
 0001:00009850       ??0?$basic_string@DU?$char_traits@D@std@@V?$allocator@D@2@@std@@QEAA@AEBV01@@Z 000000018000a850 f i misc.obj
 0001:00009930       ??_E?$basic_altstringbuf@_WU?$char_traits@_W@std@@V?$allocator@_W@2@@io@boost@@UEAAPEAXI@Z 000000018000a930 f i * CIL library *:* CIL module *
 0001:00009930       ??_G?$basic_altstringbuf@_WU?$char_traits@_W@std@@V?$allocator@_W@2@@io@boost@@UEAAPEAXI@Z 000000018000a930 f i misc.obj
 0001:00009970       ??_E?$basic_stringbuf@_WU?$char_traits@_W@std@@V?$allocator@_W@2@@std@@UEAAPEAXI@Z 000000018000a970 f i * CIL library *:* CIL module *
 0001:00009970       ??_G?$basic_stringbuf@_WU?$char_traits@_W@std@@V?$allocator@_W@2@@std@@UEAAPEAXI@Z 000000018000a970 f i misc.obj
 0001:000099b0       ??_G?$basic_ostringstream@_WU?$char_traits@_W@std@@V?$allocator@_W@2@@std@@UEAAPEAXI@Z 000000018000a9b0 f i misc.obj
 0001:000099b0       ??_E?$basic_ostringstream@_WU?$char_traits@_W@std@@V?$allocator@_W@2@@std@@UEAAPEAXI@Z 000000018000a9b0 f i * CIL library *:* CIL module *
 0001:00009a50       ??0clone_base@exception_detail@boost@@QEAA@AEBV012@@Z 000000018000aa50 f i misc.obj
 0001:00009a60       ??_G?$basic_stringbuf@DU?$char_traits@D@std@@V?$allocator@D@2@@std@@UEAAPEAXI@Z 000000018000aa60 f i misc.obj
 0001:00009a60       ??_E?$basic_stringbuf@DU?$char_traits@D@std@@V?$allocator@D@2@@std@@UEAAPEAXI@Z 000000018000aa60 f i * CIL library *:* CIL module *
 0001:00009aa0       ??_G?$numpunct@_W@std@@MEAAPEAXI@Z 000000018000aaa0 f i misc.obj
 0001:00009aa0       ??_E?$numpunct@_W@std@@MEAAPEAXI@Z 000000018000aaa0 f i * CIL library *:* CIL module *
 0001:00009b00       ??_G?$numpunct@D@std@@MEAAPEAXI@Z 000000018000ab00 f i misc.obj
 0001:00009b00       ??_E?$numpunct@D@std@@MEAAPEAXI@Z 000000018000ab00 f i * CIL library *:* CIL module *
 0001:00009b60       ??1sentry@?$basic_ostream@_WU?$char_traits@_W@std@@@std@@QEAA@XZ 000000018000ab60 f i misc.obj
 0001:00009ba0       ?_Tidy@?$vector@V?$basic_string@DU?$char_traits@D@std@@V?$allocator@D@2@@std@@V?$allocator@V?$basic_string@DU?$char_traits@D@std@@V?$allocator@D@2@@std@@@2@@std@@AEAAXXZ 000000018000aba0 f i misc.obj
 0001:00009c10       ?create_time@?$second_clock@Vptime@posix_time@boost@@@date_time@boost@@CA?AVptime@posix_time@3@PEAUtm@@@Z 000000018000ac10 f i misc.obj
 0001:00009d50       ?create_time@?$microsec_clock@Vptime@posix_time@boost@@@date_time@boost@@CA?AVptime@posix_time@3@P6APEAUtm@@PEB_JPEAU6@@Z@Z 000000018000ad50 f i misc.obj
 0001:00009f40       ?subtract_times@?$counted_time_system@U?$counted_time_rep@Vmillisec_posix_time_system_config@posix_time@boost@@@date_time@boost@@@date_time@boost@@SA?AVtime_duration@posix_time@3@AEBU?$counted_time_rep@Vmillisec_posix_time_system_config@posix_time@boost@@@23@0@Z 000000018000af40 f i misc.obj
 0001:0000a0a0       ?add_time_duration@?$counted_time_system@U?$counted_time_rep@Vmillisec_posix_time_system_config@posix_time@boost@@@date_time@boost@@@date_time@boost@@SA?AU?$counted_time_rep@Vmillisec_posix_time_system_config@posix_time@boost@@@23@AEBU423@Vtime_duration@posix_time@3@@Z 000000018000b0a0 f i misc.obj
 0001:0000a170       ?subtract_time_duration@?$counted_time_system@U?$counted_time_rep@Vmillisec_posix_time_system_config@posix_time@boost@@@date_time@boost@@@date_time@boost@@SA?AU?$counted_time_rep@Vmillisec_posix_time_system_config@posix_time@boost@@@23@AEBU423@AEBVtime_duration@posix_time@3@@Z 000000018000b170 f i misc.obj
 0001:0000a290       ??K?$int_adapter@_J@date_time@boost@@QEBA?AV012@H@Z 000000018000b290 f i misc.obj
 0001:0000a3f0       ??D?$int_adapter@_J@date_time@boost@@QEBA?AV012@H@Z 000000018000b3f0 f i misc.obj
 0001:0000a4f0       ?size@?$basic_string@_WU?$char_traits@_W@std@@V?$allocator@_W@2@@std@@QEBA_KXZ 000000018000b4f0 f i misc.obj
 0001:0000a500       ?assign@?$basic_string@DU?$char_traits@D@std@@V?$allocator@D@2@@std@@QEAAAEAV12@QEBD_K@Z 000000018000b500 f i misc.obj
 0001:0000a660       ??1_Sentry_base@?$basic_ostream@_WU?$char_traits@_W@std@@@std@@QEAA@XZ 000000018000b660 f i misc.obj
 0001:0000a690       ?_Destroy@?$vector@V?$basic_string@DU?$char_traits@D@std@@V?$allocator@D@2@@std@@V?$allocator@V?$basic_string@DU?$char_traits@D@std@@V?$allocator@D@2@@std@@@2@@std@@AEAAXPEAV?$basic_string@DU?$char_traits@D@std@@V?$allocator@D@2@@2@0@Z 000000018000b690 f i misc.obj
 0001:0000a6a0       ?deallocate@?$allocator@V?$basic_string@DU?$char_traits@D@std@@V?$allocator@D@2@@std@@@std@@QEAAXQEAV?$basic_string@DU?$char_traits@D@std@@V?$allocator@D@2@@2@_K@Z 000000018000b6a0 f i misc.obj
 0001:0000a6f0       ??0?$counted_time_rep@Vmillisec_posix_time_system_config@posix_time@boost@@@date_time@boost@@QEAA@AEBVdate@gregorian@2@AEBVtime_duration@posix_time@2@@Z 000000018000b6f0 f i misc.obj
 0001:0000a7d0       ?compare@?$int_adapter@J@date_time@boost@@AEBAHAEBV123@@Z 000000018000b7d0 f i misc.obj
 0001:0000a870       ?on_error@?$simple_exception_policy@G$00$0M@Ubad_month@gregorian@boost@@@CV@boost@@SAXGGW4violation_enum@23@@Z 000000018000b870 f i misc.obj
 0001:0000a890       ?on_error@?$simple_exception_policy@G$0FHI@$0CHAP@Ubad_year@gregorian@boost@@@CV@boost@@SAXGGW4violation_enum@23@@Z 000000018000b890 f i misc.obj
 0001:0000a8b0       ?on_error@?$simple_exception_policy@G$00$0BP@Ubad_day_of_month@gregorian@boost@@@CV@boost@@SAXGGW4violation_enum@23@@Z 000000018000b8b0 f i misc.obj
 0001:0000a8d0       ?compare@?$int_adapter@_J@date_time@boost@@AEBAHAEBV123@@Z 000000018000b8d0 f i misc.obj
 0001:0000a980       ?_Xran@?$_String_val@U?$_Simple_types@_W@std@@@std@@SAXXZ 000000018000b980 f i misc.obj
 0001:0000a980       ?_Xran@?$_String_val@U?$_Simple_types@D@std@@@std@@SAXXZ 000000018000b980 f i misc.obj
 0001:0000a9a0       ?week_number@?$gregorian_calendar_base@U?$year_month_day_base@Vgreg_year@gregorian@boost@@Vgreg_month@23@Vgreg_day@23@@date_time@boost@@I@date_time@boost@@SAHAEBU?$year_month_day_base@Vgreg_year@gregorian@boost@@Vgreg_month@23@Vgreg_day@23@@23@@Z 000000018000b9a0 f i misc.obj
 0001:0000ac10       ?from_day_number@?$gregorian_calendar_base@U?$year_month_day_base@Vgreg_year@gregorian@boost@@Vgreg_month@23@Vgreg_day@23@@date_time@boost@@I@date_time@boost@@SA?AU?$year_month_day_base@Vgreg_year@gregorian@boost@@Vgreg_month@23@Vgreg_day@23@@23@I@Z 000000018000bc10 f i misc.obj
 0001:0000ad40       ??$throw_exception@Ubad_day_of_month@gregorian@boost@@@boost@@YAXAEBUbad_day_of_month@gregorian@0@@Z 000000018000bd40 f i misc.obj
 0001:0000ad70       ??$throw_exception@Vruntime_error@std@@@boost@@YAXAEBVruntime_error@std@@@Z 000000018000bd70 f i misc.obj
 0001:0000ada0       ??$to_simple_string_type@_W@gregorian@boost@@YA?AV?$basic_string@_WU?$char_traits@_W@std@@V?$allocator@_W@2@@std@@AEBVdate@01@@Z 000000018000bda0 f i misc.obj
 0001:0000ae80       ??$to_iso_string_type@_W@gregorian@boost@@YA?AV?$basic_string@_WU?$char_traits@_W@std@@V?$allocator@_W@2@@std@@AEBVdate@01@@Z 000000018000be80 f i misc.obj
 0001:0000af60       ??$tolower@D@std@@YADDAEBVlocale@0@@Z 000000018000bf60 f i misc.obj
 0001:0000b050       ??$parse_date@Vdate@gregorian@boost@@@date_time@boost@@YA?AVdate@gregorian@1@AEBV?$basic_string@DU?$char_traits@D@std@@V?$allocator@D@2@@std@@H@Z 000000018000c050 f i misc.obj
 0001:0000b610       ??$parse_undelimited_date@Vdate@gregorian@boost@@@date_time@boost@@YA?AVdate@gregorian@1@AEBV?$basic_string@DU?$char_traits@D@std@@V?$allocator@D@2@@std@@@Z 000000018000c610 f i misc.obj
 0001:0000ba20       ??$to_simple_string_type@_W@posix_time@boost@@YA?AV?$basic_string@_WU?$char_traits@_W@std@@V?$allocator@_W@2@@std@@Vtime_duration@01@@Z 000000018000ca20 f i misc.obj
 0001:0000bd90       ??$to_iso_string_type@_W@posix_time@boost@@YA?AV?$basic_string@_WU?$char_traits@_W@std@@V?$allocator@_W@2@@std@@Vtime_duration@01@@Z 000000018000cd90 f i misc.obj
 0001:0000c0e0       ??$to_simple_string_type@_W@posix_time@boost@@YA?AV?$basic_string@_WU?$char_traits@_W@std@@V?$allocator@_W@2@@std@@Vptime@01@@Z 000000018000d0e0 f i misc.obj
 0001:0000c3a0       ??$to_iso_string_type@_W@posix_time@boost@@YA?AV?$basic_string@_WU?$char_traits@_W@std@@V?$allocator@_W@2@@std@@Vptime@01@@Z 000000018000d3a0 f i misc.obj
 0001:0000c660       ??$parse_delimited_time@Vptime@posix_time@boost@@@date_time@boost@@YA?AVptime@posix_time@1@AEBV?$basic_string@DU?$char_traits@D@std@@V?$allocator@D@2@@std@@D@Z 000000018000d660 f i misc.obj
 0001:0000c7b0       ??$parse_iso_time@Vptime@posix_time@boost@@@date_time@boost@@YA?AVptime@posix_time@1@AEBV?$basic_string@DU?$char_traits@D@std@@V?$allocator@D@2@@std@@D@Z 000000018000d7b0 f i misc.obj
 0001:0000cca0       ??$?H_WU?$char_traits@_W@std@@V?$allocator@_W@1@@std@@YA?AV?$basic_string@_WU?$char_traits@_W@std@@V?$allocator@_W@2@@0@$$QEAV10@0@Z 000000018000dca0 f i misc.obj
 0001:0000ccc0       ??$?H_WU?$char_traits@_W@std@@V?$allocator@_W@1@@std@@YA?AV?$basic_string@_WU?$char_traits@_W@std@@V?$allocator@_W@2@@0@$$QEAV10@QEB_W@Z 000000018000dcc0 f i misc.obj
 0001:0000cda0       ??$?6_WU?$char_traits@_W@std@@@std@@YAAEAV?$basic_ostream@_WU?$char_traits@_W@std@@@0@AEAV10@PEB_W@Z 000000018000dda0 f i misc.obj
 0001:0000cf70       ??$?6_WU?$char_traits@_W@std@@@std@@YAAEAV?$basic_ostream@_WU?$char_traits@_W@std@@@0@AEAV10@_W@Z 000000018000df70 f i misc.obj
 0001:0000d140       ??$throw_exception@Vbad_format_string@io@boost@@@boost@@YAXAEBVbad_format_string@io@0@@Z 000000018000e140 f i misc.obj
 0001:0000d170       ?seekoff@?$basic_altstringbuf@_WU?$char_traits@_W@std@@V?$allocator@_W@2@@io@boost@@MEAA?AV?$fpos@U_Mbstatet@@@std@@_JHH@Z 000000018000e170 f i misc.obj
 0001:0000d2d0       ?seekpos@?$basic_altstringbuf@_WU?$char_traits@_W@std@@V?$allocator@_W@2@@io@boost@@MEAA?AV?$fpos@U_Mbstatet@@@std@@V45@H@Z 000000018000e2d0 f i misc.obj
 0001:0000d3e0       ?underflow@?$basic_altstringbuf@_WU?$char_traits@_W@std@@V?$allocator@_W@2@@io@boost@@MEAAGXZ 000000018000e3e0 f i misc.obj
 0001:0000d450       ?pbackfail@?$basic_altstringbuf@_WU?$char_traits@_W@std@@V?$allocator@_W@2@@io@boost@@MEAAGG@Z 000000018000e450 f i misc.obj
 0001:0000d4b0       ?overflow@?$basic_altstringbuf@_WU?$char_traits@_W@std@@V?$allocator@_W@2@@io@boost@@MEAAGG@Z 000000018000e4b0 f i misc.obj
 0001:0000d780       ??$format@V?$basic_string@_WU?$char_traits@_W@std@@V?$allocator@_W@2@@std@@@yloader@@YA?AV?$basic_string@_WU?$char_traits@_W@std@@V?$allocator@_W@2@@std@@AEBV12@V12@@Z 000000018000e780 f i misc.obj
 0001:0000d8f0       ??$format@IIIV?$basic_string@_WU?$char_traits@_W@std@@V?$allocator@_W@2@@std@@@yloader@@YA?AV?$basic_string@_WU?$char_traits@_W@std@@V?$allocator@_W@2@@std@@AEBV12@IIIV12@@Z 000000018000e8f0 f i misc.obj
 0001:0000dae0       ??$_Emplace_reallocate@V?$basic_string@DU?$char_traits@D@std@@V?$allocator@D@2@@std@@@?$vector@V?$basic_string@DU?$char_traits@D@std@@V?$allocator@D@2@@std@@V?$allocator@V?$basic_string@DU?$char_traits@D@std@@V?$allocator@D@2@@std@@@2@@std@@QEAAPEAV?$basic_string@DU?$char_traits@D@std@@V?$allocator@D@2@@1@QEAV21@$$QEAV21@@Z 000000018000eae0 f i misc.obj
 0001:0000dcb0       ??$use_facet@V?$ctype@_W@std@@@std@@YAAEBV?$ctype@_W@0@AEBVlocale@0@@Z 000000018000ecb0 f i misc.obj
 0001:0000dd80       ??$use_facet@V?$numpunct@D@std@@@std@@YAAEBV?$numpunct@D@0@AEBVlocale@0@@Z 000000018000ed80 f i misc.obj
 0001:0000de60       ??$_Reallocate_grow_by@V<lambda_1>@?1??append@?$basic_string@_WU?$char_traits@_W@std@@V?$allocator@_W@2@@std@@QEAAAEAV34@QEB_W_K@Z@PEB_W_K@?$basic_string@_WU?$char_traits@_W@std@@V?$allocator@_W@2@@std@@AEAAAEAV01@_KV<lambda_1>@?1??append@01@QEAAAEAV01@QEB_W0@Z@PEB_W_K@Z 000000018000ee60 f i misc.obj
 0001:0000e030       ??$_Emplace_reallocate@V?$basic_string@_WU?$char_traits@_W@std@@V?$allocator@_W@2@@std@@@?$vector@V?$basic_string@_WU?$char_traits@_W@std@@V?$allocator@_W@2@@std@@V?$allocator@V?$basic_string@_WU?$char_traits@_W@std@@V?$allocator@_W@2@@std@@@2@@std@@QEAAPEAV?$basic_string@_WU?$char_traits@_W@std@@V?$allocator@_W@2@@1@QEAV21@$$QEAV21@@Z 000000018000f030 f i misc.obj
 0001:0000e200       ??$_Reallocate_grow_by@V<lambda_1>@?1??push_back@?$basic_string@_WU?$char_traits@_W@std@@V?$allocator@_W@2@@std@@QEAAX_W@Z@_W@?$basic_string@_WU?$char_traits@_W@std@@V?$allocator@_W@2@@std@@AEAAAEAV01@_KV<lambda_1>@?1??push_back@01@QEAAX_W@Z@_W@Z 000000018000f200 f i misc.obj
 0001:0000e3a0       ??$_Reallocate_grow_by@V<lambda_1>@?1??insert@?$basic_string@_WU?$char_traits@_W@std@@V?$allocator@_W@2@@std@@QEAAAEAV34@_KQEB_W0@Z@_KPEB_W_K@?$basic_string@_WU?$char_traits@_W@std@@V?$allocator@_W@2@@std@@AEAAAEAV01@_KV<lambda_1>@?1??insert@01@QEAAAEAV01@0QEB_W0@Z@_KPEB_W3@Z 000000018000f3a0 f i misc.obj
 0001:0000e560       ??$_Reallocate_grow_by@V<lambda_1>@?1??append@?$basic_string@_WU?$char_traits@_W@std@@V?$allocator@_W@2@@std@@QEAAAEAV34@_K_W@Z@_K_W@?$basic_string@_WU?$char_traits@_W@std@@V?$allocator@_W@2@@std@@AEAAAEAV01@_KV<lambda_1>@?1??append@01@QEAAAEAV01@0_W@Z@_K_W@Z 000000018000f560 f i misc.obj
 0001:0000e720       ??$_Reallocate_grow_by@V<lambda_1>@?1??push_back@?$basic_string@DU?$char_traits@D@std@@V?$allocator@D@2@@std@@QEAAXD@Z@D@?$basic_string@DU?$char_traits@D@std@@V?$allocator@D@2@@std@@AEAAAEAV01@_KV<lambda_1>@?1??push_back@01@QEAAXD@Z@D@Z 000000018000f720 f i misc.obj
 0001:0000e890       ??$_Destroy_range@V?$allocator@V?$basic_string@DU?$char_traits@D@std@@V?$allocator@D@2@@std@@@std@@@std@@YAXPEAV?$basic_string@DU?$char_traits@D@std@@V?$allocator@D@2@@0@QEAV10@AEAV?$allocator@V?$basic_string@DU?$char_traits@D@std@@V?$allocator@D@2@@std@@@0@@Z 000000018000f890 f i misc.obj
 0001:0000e920       ??$_Destroy_range@V?$allocator@V?$basic_string@_WU?$char_traits@_W@std@@V?$allocator@_W@2@@std@@@std@@@std@@YAXPEAV?$basic_string@_WU?$char_traits@_W@std@@V?$allocator@_W@2@@0@QEAV10@AEAV?$allocator@V?$basic_string@_WU?$char_traits@_W@std@@V?$allocator@_W@2@@std@@@0@@Z 000000018000f920 f i misc.obj
 0001:0000e9b0       ??$throw_exception@Ubad_month@gregorian@boost@@@boost@@YAXAEBUbad_month@gregorian@0@@Z 000000018000f9b0 f i misc.obj
 0001:0000e9e0       ??$throw_exception@Ubad_year@gregorian@boost@@@boost@@YAXAEBUbad_year@gregorian@0@@Z 000000018000f9e0 f i misc.obj
 0001:0000ea10       ??1?$wrapexcept@Vruntime_error@std@@@boost@@UEAA@XZ 000000018000fa10 f i misc.obj
 0001:0000ea10       ??1?$wrapexcept@Ubad_year@gregorian@boost@@@boost@@UEAA@XZ 000000018000fa10 f i misc.obj
 0001:0000ea10       ??1?$wrapexcept@Ubad_day_of_month@gregorian@boost@@@boost@@UEAA@XZ 000000018000fa10 f i misc.obj
 0001:0000ea10       ??1?$wrapexcept@Ubad_month@gregorian@boost@@@boost@@UEAA@XZ 000000018000fa10 f i misc.obj
 0001:0000ea70       ??0?$wrapexcept@Ubad_day_of_month@gregorian@boost@@@boost@@QEAA@AEBU01@@Z 000000018000fa70 f i misc.obj
 0001:0000eb30       ??0bad_day_of_month@gregorian@boost@@QEAA@AEBU012@@Z 000000018000fb30 f i misc.obj
 0001:0000eb70       ??0out_of_range@std@@QEAA@AEBV01@@Z 000000018000fb70 f i misc.obj
 0001:0000ebb0       ??0logic_error@std@@QEAA@AEBV01@@Z 000000018000fbb0 f i misc.obj
 0001:0000ebf0       ??0?$wrapexcept@Vruntime_error@std@@@boost@@QEAA@AEBU01@@Z 000000018000fbf0 f i misc.obj
 0001:0000ecb0       ??1?$char_separator@DU?$char_traits@D@std@@@boost@@QEAA@XZ 000000018000fcb0 f i misc.obj
 0001:0000ed60       ??1?$tokenizer@V?$char_separator@DU?$char_traits@D@std@@@boost@@V?$_String_const_iterator@V?$_String_val@U?$_Simple_types@D@std@@@std@@@std@@V?$basic_string@DU?$char_traits@D@std@@V?$allocator@D@2@@4@@boost@@QEAA@XZ 000000018000fd60 f i misc.obj
 0001:0000ed70       ??1?$token_iterator@V?$char_separator@DU?$char_traits@D@std@@@boost@@V?$_String_const_iterator@V?$_String_val@U?$_Simple_types@D@std@@@std@@@std@@V?$basic_string@DU?$char_traits@D@std@@V?$allocator@D@2@@4@@boost@@QEAA@XZ 000000018000fd70 f i misc.obj
 0001:0000ede0       ??1?$vector@_NV?$allocator@_N@std@@@std@@QEAA@XZ 000000018000fde0 f i misc.obj
 0001:0000ede0       ??1offset_separator@boost@@QEAA@XZ 000000018000fde0 f i misc.obj
 0001:0000ee40       ??1?$tokenizer@Voffset_separator@boost@@V?$_String_const_iterator@V?$_String_val@U?$_Simple_types@D@std@@@std@@@std@@V?$basic_string@DU?$char_traits@D@std@@V?$allocator@D@2@@4@@boost@@QEAA@XZ 000000018000fe40 f i misc.obj
 0001:0000eea0       ??1?$token_iterator@Voffset_separator@boost@@V?$_String_const_iterator@V?$_String_val@U?$_Simple_types@D@std@@@std@@@std@@V?$basic_string@DU?$char_traits@D@std@@V?$allocator@D@2@@4@@boost@@QEAA@XZ 000000018000fea0 f i misc.obj
 0001:0000ef50       ??1?$multimap@DU?$string_parse_tree@D@date_time@boost@@U?$less@D@std@@V?$allocator@U?$pair@$$CBDU?$string_parse_tree@D@date_time@boost@@@std@@@5@@std@@QEAA@XZ 000000018000ff50 f i misc.obj
 0001:0000ef50       ??1?$special_values_parser@Vdate@gregorian@boost@@D@date_time@boost@@QEAA@XZ 000000018000ff50 f i misc.obj
 0001:0000ef50       ??1?$string_parse_tree@D@date_time@boost@@QEAA@XZ 000000018000ff50 f i misc.obj
 0001:0000ef60       ??_D?$basic_stringstream@DU?$char_traits@D@std@@V?$allocator@D@2@@std@@QEAAXXZ 000000018000ff60 f i misc.obj
 0001:0000efc0       ??1?$wrapexcept@Vbad_format_string@io@boost@@@boost@@UEAA@XZ 000000018000ffc0 f i misc.obj
 0001:0000efc0       ??1?$wrapexcept@Vtoo_many_args@io@boost@@@boost@@UEAA@XZ 000000018000ffc0 f i misc.obj
 0001:0000efc0       ??1?$wrapexcept@Vbad_lexical_cast@boost@@@boost@@UEAA@XZ 000000018000ffc0 f i misc.obj
 0001:0000efc0       ??1?$wrapexcept@Vtoo_few_args@io@boost@@@boost@@UEAA@XZ 000000018000ffc0 f i misc.obj
 0001:0000f020       ??0?$wrapexcept@Vbad_format_string@io@boost@@@boost@@QEAA@AEBU01@@Z 0000000180010020 f i misc.obj
 0001:0000f0f0       ??0bad_format_string@io@boost@@QEAA@AEBV012@@Z 00000001800100f0 f i misc.obj
 0001:0000f150       ??0format_error@io@boost@@QEAA@AEBV012@@Z 0000000180010150 f i misc.obj
 0001:0000f190       ??1?$basic_format@_WU?$char_traits@_W@std@@V?$allocator@_W@2@@boost@@QEAA@XZ 0000000180010190 f i misc.obj
 0001:0000f290       ??1?$optional@Vlocale@std@@@boost@@QEAA@XZ 0000000180010290 f i misc.obj
 0001:0000f2d0       ??0?$wrapexcept@Ubad_month@gregorian@boost@@@boost@@QEAA@AEBU01@@Z 00000001800102d0 f i misc.obj
 0001:0000f390       ??0bad_month@gregorian@boost@@QEAA@AEBU012@@Z 0000000180010390 f i misc.obj
 0001:0000f3d0       ??0?$wrapexcept@Ubad_year@gregorian@boost@@@boost@@QEAA@AEBU01@@Z 00000001800103d0 f i misc.obj
 0001:0000f490       ??0bad_year@gregorian@boost@@QEAA@AEBU012@@Z 0000000180010490 f i misc.obj
 0001:0000f4d0       ??_G?$wrapexcept@Ubad_year@gregorian@boost@@@boost@@UEAAPEAXI@Z 00000001800104d0 f i misc.obj
 0001:0000f4d0       ??_E?$wrapexcept@Ubad_day_of_month@gregorian@boost@@@boost@@UEAAPEAXI@Z 00000001800104d0 f i * CIL library *:* CIL module *
 0001:0000f4d0       ??_E?$wrapexcept@Ubad_year@gregorian@boost@@@boost@@UEAAPEAXI@Z 00000001800104d0 f i * CIL library *:* CIL module *
 0001:0000f4d0       ??_G?$wrapexcept@Ubad_month@gregorian@boost@@@boost@@UEAAPEAXI@Z 00000001800104d0 f i misc.obj
 0001:0000f4d0       ??_E?$wrapexcept@Vruntime_error@std@@@boost@@UEAAPEAXI@Z 00000001800104d0 f i * CIL library *:* CIL module *
 0001:0000f4d0       ??_G?$wrapexcept@Vruntime_error@std@@@boost@@UEAAPEAXI@Z 00000001800104d0 f i misc.obj
 0001:0000f4d0       ??_E?$wrapexcept@Ubad_month@gregorian@boost@@@boost@@UEAAPEAXI@Z 00000001800104d0 f i * CIL library *:* CIL module *
 0001:0000f4d0       ??_G?$wrapexcept@Ubad_day_of_month@gregorian@boost@@@boost@@UEAAPEAXI@Z 00000001800104d0 f i misc.obj
 0001:0000f550       ??_G?$wrapexcept@Vbad_format_string@io@boost@@@boost@@UEAAPEAXI@Z 0000000180010550 f i misc.obj
 0001:0000f550       ??_E?$wrapexcept@Vtoo_few_args@io@boost@@@boost@@UEAAPEAXI@Z 0000000180010550 f i * CIL library *:* CIL module *
 0001:0000f550       ??_G?$wrapexcept@Vtoo_many_args@io@boost@@@boost@@UEAAPEAXI@Z 0000000180010550 f i misc.obj
 0001:0000f550       ??_G?$wrapexcept@Vtoo_few_args@io@boost@@@boost@@UEAAPEAXI@Z 0000000180010550 f i misc.obj
 0001:0000f550       ??_E?$wrapexcept@Vtoo_many_args@io@boost@@@boost@@UEAAPEAXI@Z 0000000180010550 f i * CIL library *:* CIL module *
 0001:0000f550       ??_G?$wrapexcept@Vbad_lexical_cast@boost@@@boost@@UEAAPEAXI@Z 0000000180010550 f i misc.obj
 0001:0000f550       ??_E?$wrapexcept@Vbad_format_string@io@boost@@@boost@@UEAAPEAXI@Z 0000000180010550 f i * CIL library *:* CIL module *
 0001:0000f550       ??_E?$wrapexcept@Vbad_lexical_cast@boost@@@boost@@UEAAPEAXI@Z 0000000180010550 f i * CIL library *:* CIL module *
 0001:0000f5d0       ?rethrow@?$wrapexcept@Ubad_year@gregorian@boost@@@boost@@UEBAXXZ 00000001800105d0 f i misc.obj
 0001:0000f600       ?clone@?$wrapexcept@Ubad_year@gregorian@boost@@@boost@@UEBAPEBVclone_base@exception_detail@2@XZ 0000000180010600 f i misc.obj
 0001:0000f660       ??0?$wrapexcept@Ubad_year@gregorian@boost@@@boost@@QEAA@AEBUbad_year@gregorian@1@@Z 0000000180010660 f i misc.obj
 0001:0000f6e0       ?rethrow@?$wrapexcept@Ubad_month@gregorian@boost@@@boost@@UEBAXXZ 00000001800106e0 f i misc.obj
 0001:0000f710       ?clone@?$wrapexcept@Ubad_month@gregorian@boost@@@boost@@UEBAPEBVclone_base@exception_detail@2@XZ 0000000180010710 f i misc.obj
 0001:0000f770       ??0?$wrapexcept@Ubad_month@gregorian@boost@@@boost@@QEAA@AEBUbad_month@gregorian@1@@Z 0000000180010770 f i misc.obj
 0001:0000f7f0       ?_Delete_this@?$_Ref_count_resource@PEADU?$default_delete@$$BY0A@D@std@@@std@@EEAAXXZ 00000001800107f0 f i misc.obj
 0001:0000f7f0       ?_Delete_this@?$_Ref_count@VDateTimeImpl@@@std@@EEAAXXZ 00000001800107f0 f i misc.obj
 0001:0000f7f0       ?_Delete_this@?$_Ref_count_obj2@VTimeDurationImpl@@@std@@EEAAXXZ 00000001800107f0 f i misc.obj
 0001:0000f7f0       ?_Delete_this@?$_Ref_count@VNameValue@yloader@@@std@@EEAAXXZ 00000001800107f0 f i namevalue.obj
 0001:0000f7f0       ?_Delete_this@?$_Ref_count_obj2@VDateTimeImpl@@@std@@EEAAXXZ 00000001800107f0 f i misc.obj
 0001:0000f7f0       ?_Delete_this@?$_Ref_count_obj2@VDateImpl@@@std@@EEAAXXZ 00000001800107f0 f i misc.obj
 0001:0000f7f0       ?_Delete_this@?$_Ref_count@V?$basic_string@_WU?$char_traits@_W@std@@V?$allocator@_W@2@@std@@@std@@EEAAXXZ 00000001800107f0 f i namevalue.obj
 0001:0000f7f0       ?_Delete_this@?$_Ref_count_obj2@VDateDurationImpl@@@std@@EEAAXXZ 00000001800107f0 f i misc.obj
 0001:0000f7f0       ?_Delete_this@?$_Ref_count_resource@PEA_WU?$default_delete@$$BY0A@_W@std@@@std@@EEAAXXZ 00000001800107f0 f i misc.obj
 0001:0000f7f0       ?_Delete_this@?$_Ref_count@VTimeDurationImpl@@@std@@EEAAXXZ 00000001800107f0 f i misc.obj
 0001:0000f7f0       ?_Delete_this@?$_Ref_count@VDateImpl@@@std@@EEAAXXZ 00000001800107f0 f i misc.obj
 0001:0000f810       ?_Destroy@?$_Ref_count@VTimeDurationImpl@@@std@@EEAAXXZ 0000000180010810 f i misc.obj
 0001:0000f810       ?_Destroy@?$_Ref_count@VDateTimeImpl@@@std@@EEAAXXZ 0000000180010810 f i misc.obj
 0001:0000f810       ?dispose@?$sp_counted_impl_p@V?$clone_impl@Ubad_alloc_@exception_detail@boost@@@exception_detail@boost@@@detail@boost@@UEAAXXZ 0000000180010810 f i misc.obj
 0001:0000f810       ?_Destroy@?$_Ref_count@VDateImpl@@@std@@EEAAXXZ 0000000180010810 f i misc.obj
 0001:0000f810       ?dispose@?$sp_counted_impl_p@V?$clone_impl@Ubad_exception_@exception_detail@boost@@@exception_detail@boost@@@detail@boost@@UEAAXXZ 0000000180010810 f i misc.obj
 0001:0000f830       ??1?$_Temporary_owner@VTimeDurationImpl@@@std@@QEAA@XZ 0000000180010830 f i misc.obj
 0001:0000f830       ??1?$_Temporary_owner@VDateTimeImpl@@@std@@QEAA@XZ 0000000180010830 f i misc.obj
 0001:0000f830       ??1?$_Temporary_owner@VDateImpl@@@std@@QEAA@XZ 0000000180010830 f i misc.obj
 0001:0000f830       ??1?$unique_ptr@V_Facet_base@std@@U?$default_delete@V_Facet_base@std@@@2@@std@@QEAA@XZ 0000000180010830 f i misc.obj
 0001:0000f850       ?_Destroy@?$_Ref_count_obj2@VTimeDurationImpl@@@std@@EEAAXXZ 0000000180010850 f i misc.obj
 0001:0000f850       ?_Destroy@?$_Ref_count_obj2@VDateTimeImpl@@@std@@EEAAXXZ 0000000180010850 f i misc.obj
 0001:0000f850       ?_Destroy@?$_Ref_count_obj2@VDateImpl@@@std@@EEAAXXZ 0000000180010850 f i misc.obj
 0001:0000f850       ?_Destroy@?$_Ref_count_obj2@VDateDurationImpl@@@std@@EEAAXXZ 0000000180010850 f i misc.obj
 0001:0000f860       ?rethrow@?$wrapexcept@Vbad_format_string@io@boost@@@boost@@UEBAXXZ 0000000180010860 f i misc.obj
 0001:0000f890       ?clone@?$wrapexcept@Vbad_format_string@io@boost@@@boost@@UEBAPEBVclone_base@exception_detail@2@XZ 0000000180010890 f i misc.obj
 0001:0000f8f0       ??0?$wrapexcept@Vbad_format_string@io@boost@@@boost@@QEAA@AEBVbad_format_string@io@1@@Z 00000001800108f0 f i misc.obj
 0001:0000f990       ??0?$special_values_parser@Vdate@gregorian@boost@@D@date_time@boost@@QEAA@XZ 0000000180010990 f i misc.obj
 0001:0000fc80       ??1?$_Tree@V?$_Tmap_traits@DU?$string_parse_tree@D@date_time@boost@@U?$less@D@std@@V?$allocator@U?$pair@$$CBDU?$string_parse_tree@D@date_time@boost@@@std@@@5@$00@std@@@std@@QEAA@XZ 0000000180010c80 f i misc.obj
 0001:0000fcf0       ?rethrow@?$wrapexcept@Vruntime_error@std@@@boost@@UEBAXXZ 0000000180010cf0 f i misc.obj
 0001:0000fd20       ?clone@?$wrapexcept@Vruntime_error@std@@@boost@@UEBAPEBVclone_base@exception_detail@2@XZ 0000000180010d20 f i misc.obj
 0001:0000fd80       ??0?$wrapexcept@Vruntime_error@std@@@boost@@QEAA@AEBVruntime_error@std@@@Z 0000000180010d80 f i misc.obj
 0001:0000fe00       ?rethrow@?$wrapexcept@Ubad_day_of_month@gregorian@boost@@@boost@@UEBAXXZ 0000000180010e00 f i misc.obj
 0001:0000fe30       ?clone@?$wrapexcept@Ubad_day_of_month@gregorian@boost@@@boost@@UEBAPEBVclone_base@exception_detail@2@XZ 0000000180010e30 f i misc.obj
 0001:0000fe90       ??0?$wrapexcept@Ubad_day_of_month@gregorian@boost@@@boost@@QEAA@AEBUbad_day_of_month@gregorian@1@@Z 0000000180010e90 f i misc.obj
 0001:0000ff10       ?_Xlength@?$vector@HV?$allocator@H@std@@@std@@CAXXZ 0000000180010f10 f i misc.obj
 0001:0000ff10       ?_Xlength@?$vector@U?$format_item@_WU?$char_traits@_W@std@@V?$allocator@_W@2@@detail@io@boost@@V?$allocator@U?$format_item@_WU?$char_traits@_W@std@@V?$allocator@_W@2@@detail@io@boost@@@std@@@std@@CAXXZ 0000000180010f10 f i misc.obj
 0001:0000ff10       ?_Xlength@?$vector@V?$shared_ptr@VNameValue@yloader@@@std@@V?$allocator@V?$shared_ptr@VNameValue@yloader@@@std@@@2@@std@@CAXXZ 0000000180010f10 f i namevalue.obj
 0001:0000ff10       ?_Xlength@?$vector@V?$basic_string@DU?$char_traits@D@std@@V?$allocator@D@2@@std@@V?$allocator@V?$basic_string@DU?$char_traits@D@std@@V?$allocator@D@2@@std@@@2@@std@@CAXXZ 0000000180010f10 f i misc.obj
 0001:0000ff10       ?_Xlength@?$vector@V?$basic_string@_WU?$char_traits@_W@std@@V?$allocator@_W@2@@std@@V?$allocator@V?$basic_string@_WU?$char_traits@_W@std@@V?$allocator@_W@2@@std@@@2@@std@@CAXXZ 0000000180010f10 f i misc.obj
 0001:0000ff30       ??1?$vector@U?$format_item@_WU?$char_traits@_W@std@@V?$allocator@_W@2@@detail@io@boost@@V?$allocator@U?$format_item@_WU?$char_traits@_W@std@@V?$allocator@_W@2@@detail@io@boost@@@std@@@std@@QEAA@XZ 0000000180010f30 f i misc.obj
 0001:0000fff0       ?begin@?$tokenizer@V?$char_separator@DU?$char_traits@D@std@@@boost@@V?$_String_const_iterator@V?$_String_val@U?$_Simple_types@D@std@@@std@@@std@@V?$basic_string@DU?$char_traits@D@std@@V?$allocator@D@2@@4@@boost@@QEBA?AV?$token_iterator@V?$char_separator@DU?$char_traits@D@std@@@boost@@V?$_String_const_iterator@V?$_String_val@U?$_Simple_types@D@std@@@std@@@std@@V?$basic_string@DU?$char_traits@D@std@@V?$allocator@D@2@@4@@2@XZ 0000000180010ff0 f i misc.obj
 0001:00010110       ?_Getcat@?$numpunct@_W@std@@SA_KPEAPEBVfacet@locale@2@PEBV42@@Z 0000000180011110 f i misc.obj
 0001:000102f0       ?_Getcat@?$numpunct@D@std@@SA_KPEAPEBVfacet@locale@2@PEBV42@@Z 00000001800112f0 f i misc.obj
 0001:000104e0       ??0?$basic_string@_WU?$char_traits@_W@std@@V?$allocator@_W@2@@std@@QEAA@U_String_constructor_concat_tag@1@AEAV01@1@Z 00000001800114e0 f i misc.obj
 0001:00010700       ??0?$basic_string@_WU?$char_traits@_W@std@@V?$allocator@_W@2@@std@@QEAA@U_String_constructor_concat_tag@1@AEBV01@QEB_W_K23@Z 0000000180011700 f i misc.obj
 0001:00010840       ??_G?$_Ref_count_resource@PEA_WU?$default_delete@$$BY0A@_W@std@@@std@@UEAAPEAXI@Z 0000000180011840 f i misc.obj
 0001:00010840       ??_E?$_Ref_count_resource@PEADU?$default_delete@$$BY0A@D@std@@@std@@UEAAPEAXI@Z 0000000180011840 f i * CIL library *:* CIL module *
 0001:00010840       ??_E?$_Ref_count@VTimeDurationImpl@@@std@@UEAAPEAXI@Z 0000000180011840 f i * CIL library *:* CIL module *
 0001:00010840       ??_E?$_Ref_count@V?$basic_string@_WU?$char_traits@_W@std@@V?$allocator@_W@2@@std@@@std@@UEAAPEAXI@Z 0000000180011840 f i * CIL library *:* CIL module *
 0001:00010840       ??_G?$_Ref_count_resource@PEADU?$default_delete@$$BY0A@D@std@@@std@@UEAAPEAXI@Z 0000000180011840 f i misc.obj
 0001:00010840       ??_E?$_Ref_count@VDateImpl@@@std@@UEAAPEAXI@Z 0000000180011840 f i * CIL library *:* CIL module *
 0001:00010840       ??_G?$_Ref_count@V?$basic_string@_WU?$char_traits@_W@std@@V?$allocator@_W@2@@std@@@std@@UEAAPEAXI@Z 0000000180011840 f i namevalue.obj
 0001:00010840       ??_G?$_Ref_count@VNameValue@yloader@@@std@@UEAAPEAXI@Z 0000000180011840 f i namevalue.obj
 0001:00010840       ??_G?$_Ref_count@VDateImpl@@@std@@UEAAPEAXI@Z 0000000180011840 f i misc.obj
 0001:00010840       ??_E?$_Ref_count_resource@PEA_WU?$default_delete@$$BY0A@_W@std@@@std@@UEAAPEAXI@Z 0000000180011840 f i * CIL library *:* CIL module *
 0001:00010840       ??_E?$_Ref_count@VNameValue@yloader@@@std@@UEAAPEAXI@Z 0000000180011840 f i * CIL library *:* CIL module *
 0001:00010840       ??_E?$_Ref_count@VDateTimeImpl@@@std@@UEAAPEAXI@Z 0000000180011840 f i * CIL library *:* CIL module *
 0001:00010840       ??_G?$_Ref_count@VTimeDurationImpl@@@std@@UEAAPEAXI@Z 0000000180011840 f i misc.obj
 0001:00010840       ??_G?$_Ref_count@VDateTimeImpl@@@std@@UEAAPEAXI@Z 0000000180011840 f i misc.obj
 0001:00010870       ??_G?$_Ref_count_obj2@VDateTimeImpl@@@std@@UEAAPEAXI@Z 0000000180011870 f i misc.obj
 0001:00010870       ??_E?$_Ref_count_obj2@VDateTimeImpl@@@std@@UEAAPEAXI@Z 0000000180011870 f i * CIL library *:* CIL module *
 0001:000108a0       ??_G?$_Ref_count_obj2@VTimeDurationImpl@@@std@@UEAAPEAXI@Z 00000001800118a0 f i misc.obj
 0001:000108a0       ??_E?$_Ref_count_obj2@VTimeDurationImpl@@@std@@UEAAPEAXI@Z 00000001800118a0 f i * CIL library *:* CIL module *
 0001:000108d0       ??_E?$_Ref_count_obj2@VDateImpl@@@std@@UEAAPEAXI@Z 00000001800118d0 f i * CIL library *:* CIL module *
 0001:000108d0       ??_G?$_Ref_count_obj2@VDateImpl@@@std@@UEAAPEAXI@Z 00000001800118d0 f i misc.obj
 0001:00010900       ??_G?$_Ref_count_obj2@VDateDurationImpl@@@std@@UEAAPEAXI@Z 0000000180011900 f i misc.obj
 0001:00010900       ??_E?$_Ref_count_obj2@VDateDurationImpl@@@std@@UEAAPEAXI@Z 0000000180011900 f i * CIL library *:* CIL module *
 0001:00010930       ??0bad_exception@std@@QEAA@AEBV01@@Z 0000000180011930 f i misc.obj
 0001:00010970       ??_E?$basic_stringstream@DU?$char_traits@D@std@@V?$allocator@D@2@@std@@UEAAPEAXI@Z 0000000180011970 f i * CIL library *:* CIL module *
 0001:00010970       ??_G?$basic_stringstream@DU?$char_traits@D@std@@V?$allocator@D@2@@std@@UEAAPEAXI@Z 0000000180011970 f i misc.obj
 0001:00010a10       ??0offset_separator@boost@@QEAA@AEBV01@@Z 0000000180011a10 f i misc.obj
 0001:00010b20       ??1deleter@?$wrapexcept@Vruntime_error@std@@@boost@@QEAA@XZ 0000000180011b20 f i misc.obj
 0001:00010b20       ??1deleter@?$wrapexcept@Vbad_format_string@io@boost@@@boost@@QEAA@XZ 0000000180011b20 f i misc.obj
 0001:00010b20       ??1deleter@?$wrapexcept@Vtoo_few_args@io@boost@@@boost@@QEAA@XZ 0000000180011b20 f i misc.obj
 0001:00010b20       ??1deleter@?$wrapexcept@Vbad_lexical_cast@boost@@@boost@@QEAA@XZ 0000000180011b20 f i misc.obj
 0001:00010b20       ??1deleter@?$wrapexcept@Ubad_year@gregorian@boost@@@boost@@QEAA@XZ 0000000180011b20 f i misc.obj
 0001:00010b20       ??1deleter@?$wrapexcept@Vtoo_many_args@io@boost@@@boost@@QEAA@XZ 0000000180011b20 f i misc.obj
 0001:00010b20       ??1deleter@?$wrapexcept@Ubad_month@gregorian@boost@@@boost@@QEAA@XZ 0000000180011b20 f i misc.obj
 0001:00010b20       ??1deleter@?$wrapexcept@Ubad_day_of_month@gregorian@boost@@@boost@@QEAA@XZ 0000000180011b20 f i misc.obj
 0001:00010b40       ?ymd_to_string@?$ymd_formatter@U?$year_month_day_base@Vgreg_year@gregorian@boost@@Vgreg_month@23@Vgreg_day@23@@date_time@boost@@V?$simple_format@_W@23@_W@date_time@boost@@SA?AV?$basic_string@_WU?$char_traits@_W@std@@V?$allocator@_W@2@@std@@U?$year_month_day_base@Vgreg_year@gregorian@boost@@Vgreg_month@23@Vgreg_day@23@@23@@Z 0000000180011b40 f i misc.obj
 0001:00010d60       ?ymd_to_string@?$ymd_formatter@U?$year_month_day_base@Vgreg_year@gregorian@boost@@Vgreg_month@23@Vgreg_day@23@@date_time@boost@@V?$iso_format@_W@23@_W@date_time@boost@@SA?AV?$basic_string@_WU?$char_traits@_W@std@@V?$allocator@_W@2@@std@@U?$year_month_day_base@Vgreg_year@gregorian@boost@@Vgreg_month@23@Vgreg_day@23@@23@@Z 0000000180011d60 f i misc.obj
 0001:00010fd0       ?ymd_to_string@?$ymd_formatter@U?$year_month_day_base@Vgreg_year@gregorian@boost@@Vgreg_month@23@Vgreg_day@23@@date_time@boost@@V?$iso_extended_format@_W@23@_W@date_time@boost@@SA?AV?$basic_string@_WU?$char_traits@_W@std@@V?$allocator@_W@2@@std@@U?$year_month_day_base@Vgreg_year@gregorian@boost@@Vgreg_month@23@Vgreg_day@23@@23@@Z 0000000180011fd0 f i misc.obj
 0001:00011260       ?sv_strings@?$special_values_parser@Vdate@gregorian@boost@@D@date_time@boost@@QEAAXAEBV?$basic_string@DU?$char_traits@D@std@@V?$allocator@D@2@@std@@0000@Z 0000000180012260 f i misc.obj
 0001:00011510       ?match@?$string_parse_tree@D@date_time@boost@@QEBAFAEAV?$istreambuf_iterator@DU?$char_traits@D@std@@@std@@0AEAU?$parse_match_result@D@23@AEAI@Z 0000000180012510 f i misc.obj
 0001:000117d0       ??0?$token_iterator@Voffset_separator@boost@@V?$_String_const_iterator@V?$_String_val@U?$_Simple_types@D@std@@@std@@@std@@V?$basic_string@DU?$char_traits@D@std@@V?$allocator@D@2@@4@@boost@@QEAA@Voffset_separator@1@V?$_String_const_iterator@V?$_String_val@U?$_Simple_types@D@std@@@std@@@std@@1@Z 00000001800127d0 f i misc.obj
 0001:00011910       ??0?$string_parse_tree@D@date_time@boost@@QEAA@V?$vector@V?$basic_string@DU?$char_traits@D@std@@V?$allocator@D@2@@std@@V?$allocator@V?$basic_string@DU?$char_traits@D@std@@V?$allocator@D@2@@std@@@2@@std@@I@Z 0000000180012910 f i misc.obj
 0001:00011b50       ?_Destroy@?$vector@U?$format_item@_WU?$char_traits@_W@std@@V?$allocator@_W@2@@detail@io@boost@@V?$allocator@U?$format_item@_WU?$char_traits@_W@std@@V?$allocator@_W@2@@detail@io@boost@@@std@@@std@@AEAAXPEAU?$format_item@_WU?$char_traits@_W@std@@V?$allocator@_W@2@@detail@io@boost@@0@Z 0000000180012b50 f i misc.obj
 0001:00011b90       ?deallocate@?$allocator@U?$format_item@_WU?$char_traits@_W@std@@V?$allocator@_W@2@@detail@io@boost@@@std@@QEAAXQEAU?$format_item@_WU?$char_traits@_W@std@@V?$allocator@_W@2@@detail@io@boost@@_K@Z 0000000180012b90 f i misc.obj
 0001:00011be0       ??1?$_Tidy_guard@V?$numpunct@_W@std@@@std@@QEAA@XZ 0000000180012be0 f i misc.obj
 0001:00011be0       ??1?$_Tidy_guard@V?$numpunct@D@std@@@std@@QEAA@XZ 0000000180012be0 f i misc.obj
 0001:00011c20       ??1?$_Tidy_guard@V?$vector@V?$basic_string@DU?$char_traits@D@std@@V?$allocator@D@2@@std@@V?$allocator@V?$basic_string@DU?$char_traits@D@std@@V?$allocator@D@2@@std@@@2@@std@@@std@@QEAA@XZ 0000000180012c20 f i misc.obj
 0001:00011c30       ??1?$basic_ios_fill_saver@_WU?$char_traits@_W@std@@@io@boost@@QEAA@XZ 0000000180012c30 f i misc.obj
 0001:00011c40       ?insert@?$string_parse_tree@D@date_time@boost@@QEAAXAEBV?$basic_string@DU?$char_traits@D@std@@V?$allocator@D@2@@std@@G@Z 0000000180012c40 f i misc.obj
 0001:00011fb0       ??1?$pair@$$CBDU?$string_parse_tree@D@date_time@boost@@@std@@QEAA@XZ 0000000180012fb0 f i misc.obj
 0001:00011fc0       ??$?6_WU?$char_traits@_W@std@@@std@@YAAEAV?$basic_ostream@_WU?$char_traits@_W@std@@@0@AEAV10@D@Z 0000000180012fc0 f i misc.obj
 0001:00012200       ?str@?$basic_format@_WU?$char_traits@_W@std@@V?$allocator@_W@2@@boost@@QEBA?AV?$basic_string@_WU?$char_traits@_W@std@@V?$allocator@_W@2@@std@@XZ 0000000180013200 f i misc.obj
 0001:00012550       ??$?6_WU?$char_traits@_W@std@@@std@@YAAEAV?$basic_ostream@_WU?$char_traits@_W@std@@@0@AEAV10@PEBD@Z 0000000180013550 f i misc.obj
 0001:000127c0       ??$lexical_cast@GV?$basic_string@DU?$char_traits@D@std@@V?$allocator@D@2@@std@@@boost@@YAGAEBV?$basic_string@DU?$char_traits@D@std@@V?$allocator@D@2@@std@@@Z 00000001800137c0 f i misc.obj
 0001:00012850       ??$month_str_to_ushort@Vgreg_month@gregorian@boost@@@date_time@boost@@YAGAEBV?$basic_string@DU?$char_traits@D@std@@V?$allocator@D@2@@std@@@Z 0000000180013850 f i misc.obj
 0001:00013220       ??$?0PEAH@offset_separator@boost@@QEAA@PEAH0_N1@Z 0000000180014220 f i misc.obj
 0001:00013330       ??$str_from_delimited_time_duration@Vtime_duration@posix_time@boost@@D@date_time@boost@@YA?AVtime_duration@posix_time@1@AEBV?$basic_string@DU?$char_traits@D@std@@V?$allocator@D@2@@std@@@Z 0000000180014330 f i misc.obj
 0001:00013a90       ??$parse_undelimited_time_duration@Vtime_duration@posix_time@boost@@@date_time@boost@@YA?AVtime_duration@posix_time@1@AEBV?$basic_string@DU?$char_traits@D@std@@V?$allocator@D@2@@std@@@Z 0000000180014a90 f i misc.obj
 0001:000143d0       ??$get_static_exception_object@Ubad_alloc_@exception_detail@boost@@@exception_detail@boost@@YA?AVexception_ptr@1@XZ 00000001800153d0 f i misc.obj
 0001:00014750       ??$get_static_exception_object@Ubad_exception_@exception_detail@boost@@@exception_detail@boost@@YA?AVexception_ptr@1@XZ 0000000180015750 f i misc.obj
 0001:00014ad0       ??$_Insert_string@_WU?$char_traits@_W@std@@_K@std@@YAAEAV?$basic_ostream@_WU?$char_traits@_W@std@@@0@AEAV10@QEB_W_K@Z 0000000180015ad0 f i misc.obj
 0001:00014cb0       ??$throw_bad_cast@V?$basic_string@_WU?$char_traits@_W@std@@V?$allocator@_W@2@@std@@I@detail@conversion@boost@@YAXXZ 0000000180015cb0 f i misc.obj
 0001:00014ce0       ??$_Uninitialized_move@PEAV?$basic_string@DU?$char_traits@D@std@@V?$allocator@D@2@@std@@V?$allocator@V?$basic_string@DU?$char_traits@D@std@@V?$allocator@D@2@@std@@@2@@std@@YAPEAV?$basic_string@DU?$char_traits@D@std@@V?$allocator@D@2@@0@QEAV10@0PEAV10@AEAV?$allocator@V?$basic_string@DU?$char_traits@D@std@@V?$allocator@D@2@@std@@@0@@Z 0000000180015ce0 f i misc.obj
 0001:00014d60       ??$_Uninitialized_move@PEAV?$basic_string@_WU?$char_traits@_W@std@@V?$allocator@_W@2@@std@@V?$allocator@V?$basic_string@_WU?$char_traits@_W@std@@V?$allocator@_W@2@@std@@@2@@std@@YAPEAV?$basic_string@_WU?$char_traits@_W@std@@V?$allocator@_W@2@@0@QEAV10@0PEAV10@AEAV?$allocator@V?$basic_string@_WU?$char_traits@_W@std@@V?$allocator@_W@2@@std@@@0@@Z 0000000180015d60 f i misc.obj
 0001:00014de0       ??$_Emplace_reallocate@AEBV?$basic_string@DU?$char_traits@D@std@@V?$allocator@D@2@@std@@@?$vector@V?$basic_string@DU?$char_traits@D@std@@V?$allocator@D@2@@std@@V?$allocator@V?$basic_string@DU?$char_traits@D@std@@V?$allocator@D@2@@std@@@2@@std@@QEAAPEAV?$basic_string@DU?$char_traits@D@std@@V?$allocator@D@2@@1@QEAV21@AEBV21@@Z 0000000180015de0 f i misc.obj
 0001:00014fa0       ??$?RV?$_String_const_iterator@V?$_String_val@U?$_Simple_types@D@std@@@std@@@std@@V?$basic_string@DU?$char_traits@D@std@@V?$allocator@D@2@@1@@offset_separator@boost@@QEAA_NAEAV?$_String_const_iterator@V?$_String_val@U?$_Simple_types@D@std@@@std@@@std@@V23@AEAV?$basic_string@DU?$char_traits@D@std@@V?$allocator@D@2@@3@@Z 0000000180015fa0 f i misc.obj
 0001:00015050       ??$?RV?$_String_const_iterator@V?$_String_val@U?$_Simple_types@D@std@@@std@@@std@@V?$basic_string@DU?$char_traits@D@std@@V?$allocator@D@2@@1@@?$char_separator@DU?$char_traits@D@std@@@boost@@QEAA_NAEAV?$_String_const_iterator@V?$_String_val@U?$_Simple_types@D@std@@@std@@@std@@V23@AEAV?$basic_string@DU?$char_traits@D@std@@V?$allocator@D@2@@3@@Z 0000000180016050 f i misc.obj
 0001:00015500       ??$insert@$00$0A@@?$_Tree@V?$_Tmap_traits@DU?$string_parse_tree@D@date_time@boost@@U?$less@D@std@@V?$allocator@U?$pair@$$CBDU?$string_parse_tree@D@date_time@boost@@@std@@@5@$00@std@@@std@@QEAA?AV?$_Tree_iterator@V?$_Tree_val@U?$_Tree_simple_types@U?$pair@$$CBDU?$string_parse_tree@D@date_time@boost@@@std@@@std@@@std@@@1@$$QEAU?$pair@$$CBDU?$string_parse_tree@D@date_time@boost@@@1@@Z 0000000180016500 f i misc.obj
 0001:00015600       ??$_Erase_tree@V?$allocator@U?$_Tree_node@U?$pair@$$CBDU?$string_parse_tree@D@date_time@boost@@@std@@PEAX@std@@@std@@@?$_Tree_val@U?$_Tree_simple_types@U?$pair@$$CBDU?$string_parse_tree@D@date_time@boost@@@std@@@std@@@std@@QEAAXAEAV?$allocator@U?$_Tree_node@U?$pair@$$CBDU?$string_parse_tree@D@date_time@boost@@@std@@PEAX@std@@@1@PEAU?$_Tree_node@U?$pair@$$CBDU?$string_parse_tree@D@date_time@boost@@@std@@PEAX@1@@Z 0000000180016600 f i misc.obj
 0001:00015680       ??_D?$clone_impl@Ubad_alloc_@exception_detail@boost@@@exception_detail@boost@@QEAAXXZ 0000000180016680 f i misc.obj
 0001:00015720       ??0?$clone_impl@Ubad_alloc_@exception_detail@boost@@@exception_detail@boost@@QEAA@AEBV012@@Z 0000000180016720 f i misc.obj
 0001:000157a0       ??_D?$clone_impl@Ubad_exception_@exception_detail@boost@@@exception_detail@boost@@QEAAXXZ 00000001800167a0 f i misc.obj
 0001:00015840       ??0?$clone_impl@Ubad_exception_@exception_detail@boost@@@exception_detail@boost@@QEAA@AEBV012@@Z 0000000180016840 f i misc.obj
 0001:000158c0       ??_E?$clone_impl@Ubad_alloc_@exception_detail@boost@@@exception_detail@boost@@UEAAPEAXI@Z 00000001800168c0 f i * CIL library *:* CIL module *
 0001:000158c0       ??_G?$clone_impl@Ubad_alloc_@exception_detail@boost@@@exception_detail@boost@@UEAAPEAXI@Z 00000001800168c0 f i misc.obj
 0001:00015900       ??0bad_alloc_@exception_detail@boost@@QEAA@AEBU012@@Z 0000000180016900 f i misc.obj
 0001:00015990       ??_E?$clone_impl@Ubad_exception_@exception_detail@boost@@@exception_detail@boost@@UEAAPEAXI@Z 0000000180016990 f i * CIL library *:* CIL module *
 0001:00015990       ??_G?$clone_impl@Ubad_exception_@exception_detail@boost@@@exception_detail@boost@@UEAAPEAXI@Z 0000000180016990 f i misc.obj
 0001:000159d0       ??0bad_exception_@exception_detail@boost@@QEAA@AEBU012@@Z 00000001800169d0 f i misc.obj
 0001:00015a60       ??1?$_Uninitialized_backout_al@V?$allocator@V?$basic_string@DU?$char_traits@D@std@@V?$allocator@D@2@@std@@@std@@@std@@QEAA@XZ 0000000180016a60 f i misc.obj
 0001:00015a70       ?_Destroy@?$_Ref_count_resource@PEA_WU?$default_delete@$$BY0A@_W@std@@@std@@EEAAXXZ 0000000180016a70 f i misc.obj
 0001:00015a70       ?_Destroy@?$_Ref_count_resource@PEADU?$default_delete@$$BY0A@D@std@@@std@@EEAAXXZ 0000000180016a70 f i misc.obj
 0001:00015a80       ?_Get_deleter@?$_Ref_count_resource@PEADU?$default_delete@$$BY0A@D@std@@@std@@UEBAPEAXAEBVtype_info@@@Z 0000000180016a80 f i misc.obj
 0001:00015ab0       ??1?$_Temporary_owner_del@PEA_WU?$default_delete@$$BY0A@_W@std@@@std@@QEAA@XZ 0000000180016ab0 f i misc.obj
 0001:00015ab0       ??1?$_Temporary_owner_del@PEADU?$default_delete@$$BY0A@D@std@@@std@@QEAA@XZ 0000000180016ab0 f i misc.obj
 0001:00015ac0       ?_Get_deleter@?$_Ref_count_resource@PEA_WU?$default_delete@$$BY0A@_W@std@@@std@@UEBAPEAXAEBVtype_info@@@Z 0000000180016ac0 f i misc.obj
 0001:00015af0       ?rethrow@?$clone_impl@Ubad_exception_@exception_detail@boost@@@exception_detail@boost@@EEBAXXZ 0000000180016af0 f i misc.obj
 0001:00015b20       ?clone@?$clone_impl@Ubad_exception_@exception_detail@boost@@@exception_detail@boost@@EEBAPEBVclone_base@23@XZ 0000000180016b20 f i misc.obj
 0001:00015be0       ?rethrow@?$clone_impl@Ubad_alloc_@exception_detail@boost@@@exception_detail@boost@@EEBAXXZ 0000000180016be0 f i misc.obj
 0001:00015c10       ?clone@?$clone_impl@Ubad_alloc_@exception_detail@boost@@@exception_detail@boost@@EEBAPEBVclone_base@23@XZ 0000000180016c10 f i misc.obj
 0001:00015cd0       ??1?$_Tree@V?$_Tmap_traits@V?$basic_string@DU?$char_traits@D@std@@V?$allocator@D@2@@std@@GU?$less@V?$basic_string@DU?$char_traits@D@std@@V?$allocator@D@2@@std@@@2@V?$allocator@U?$pair@$$CBV?$basic_string@DU?$char_traits@D@std@@V?$allocator@D@2@@std@@G@std@@@2@$0A@@std@@@std@@QEAA@XZ 0000000180016cd0 f i misc.obj
 0001:00015d00       ?parse@?$basic_format@_WU?$char_traits@_W@std@@V?$allocator@_W@2@@boost@@QEAAAEAV12@AEBV?$basic_string@_WU?$char_traits@_W@std@@V?$allocator@_W@2@@std@@@Z 0000000180016d00 f i misc.obj
 0001:00016340       ??$throw_exception@Vtoo_few_args@io@boost@@@boost@@YAXAEBVtoo_few_args@io@0@@Z 0000000180017340 f i misc.obj
 0001:00016370       ??$throw_bad_cast@V?$basic_string@DU?$char_traits@D@std@@V?$allocator@D@2@@std@@G@detail@conversion@boost@@YAXXZ 0000000180017370 f i misc.obj
 0001:000163a0       ??$lexical_cast@HV?$basic_string@DU?$char_traits@D@std@@V?$allocator@D@2@@std@@@boost@@YAHAEBV?$basic_string@DU?$char_traits@D@std@@V?$allocator@D@2@@std@@@Z 00000001800173a0 f i misc.obj
 0001:00016460       ??$lexical_cast@_JV?$basic_string@DU?$char_traits@D@std@@V?$allocator@D@2@@std@@@boost@@YA_JAEBV?$basic_string@DU?$char_traits@D@std@@V?$allocator@D@2@@std@@@Z 0000000180017460 f i misc.obj
 0001:00016530       ??$lexical_cast@FV?$basic_string@DU?$char_traits@D@std@@V?$allocator@D@2@@std@@@boost@@YAFAEBV?$basic_string@DU?$char_traits@D@std@@V?$allocator@D@2@@std@@@Z 0000000180017530 f i misc.obj
 0001:000165f0       ??$throw_exception@Vbad_lexical_cast@boost@@@boost@@YAXAEBVbad_lexical_cast@0@@Z 00000001800175f0 f i misc.obj
 0001:00016620       ??$_Reallocate_grow_by@V<lambda_1>@?1??reserve@?$basic_string@_WU?$char_traits@_W@std@@V?$allocator@_W@2@@std@@QEAAX_K@Z@$$V@?$basic_string@_WU?$char_traits@_W@std@@V?$allocator@_W@2@@std@@AEAAAEAV01@_KV<lambda_1>@?1??reserve@01@QEAAX0@Z@@Z 0000000180017620 f i misc.obj
 0001:00016790       ??1?$format_item@_WU?$char_traits@_W@std@@V?$allocator@_W@2@@detail@io@boost@@QEAA@XZ 0000000180017790 f i misc.obj
 0001:00016880       ??0?$wrapexcept@Vtoo_few_args@io@boost@@@boost@@QEAA@AEBU01@@Z 0000000180017880 f i misc.obj
 0001:00016950       ??0too_few_args@io@boost@@QEAA@AEBV012@@Z 0000000180017950 f i misc.obj
 0001:000169b0       ??0?$wrapexcept@Vbad_lexical_cast@boost@@@boost@@QEAA@AEBU01@@Z 00000001800179b0 f i misc.obj
 0001:00016a80       ??0bad_lexical_cast@boost@@QEAA@AEBV01@@Z 0000000180017a80 f i misc.obj
 0001:00016ae0       ?convert@?$lcast_ret_unsigned@U?$char_traits@_W@std@@I_W@detail@boost@@QEAA_NXZ 0000000180017ae0 f i misc.obj
 0001:00016e40       ??1?$_Tree_temp_node@V?$allocator@U?$_Tree_node@U?$pair@$$CBDU?$string_parse_tree@D@date_time@boost@@@std@@PEAX@std@@@std@@@std@@QEAA@XZ 0000000180017e40 f i misc.obj
 0001:00016e80       ?rethrow@?$wrapexcept@Vbad_lexical_cast@boost@@@boost@@UEBAXXZ 0000000180017e80 f i misc.obj
 0001:00016eb0       ?clone@?$wrapexcept@Vbad_lexical_cast@boost@@@boost@@UEBAPEBVclone_base@exception_detail@2@XZ 0000000180017eb0 f i misc.obj
 0001:00016f10       ??0?$wrapexcept@Vbad_lexical_cast@boost@@@boost@@QEAA@AEBVbad_lexical_cast@1@@Z 0000000180017f10 f i misc.obj
 0001:00016fb0       ?rethrow@?$wrapexcept@Vtoo_few_args@io@boost@@@boost@@UEBAXXZ 0000000180017fb0 f i misc.obj
 0001:00016fe0       ?clone@?$wrapexcept@Vtoo_few_args@io@boost@@@boost@@UEBAPEBVclone_base@exception_detail@2@XZ 0000000180017fe0 f i misc.obj
 0001:00017040       ??0?$wrapexcept@Vtoo_few_args@io@boost@@@boost@@QEAA@AEBVtoo_few_args@io@1@@Z 0000000180018040 f i misc.obj
 0001:000170e0       ?_Insert_node@?$_Tree_val@U?$_Tree_simple_types@U?$pair@$$CBV?$basic_string@_WU?$char_traits@_W@std@@V?$allocator@_W@2@@std@@V?$shared_ptr@VNameValue@yloader@@@2@@std@@@std@@@std@@QEAAPEAU?$_Tree_node@U?$pair@$$CBV?$basic_string@_WU?$char_traits@_W@std@@V?$allocator@_W@2@@std@@V?$shared_ptr@VNameValue@yloader@@@2@@std@@PEAX@2@U?$_Tree_id@PEAU?$_Tree_node@U?$pair@$$CBV?$basic_string@_WU?$char_traits@_W@std@@V?$allocator@_W@2@@std@@V?$shared_ptr@VNameValue@yloader@@@2@@std@@PEAX@std@@@2@QEAU32@@Z 00000001800180e0 f i namevalue.obj
 0001:000170e0       ?_Insert_node@?$_Tree_val@U?$_Tree_simple_types@U?$pair@$$CBDU?$string_parse_tree@D@date_time@boost@@@std@@@std@@@std@@QEAAPEAU?$_Tree_node@U?$pair@$$CBDU?$string_parse_tree@D@date_time@boost@@@std@@PEAX@2@U?$_Tree_id@PEAU?$_Tree_node@U?$pair@$$CBDU?$string_parse_tree@D@date_time@boost@@@std@@PEAX@std@@@2@QEAU32@@Z 00000001800180e0 f i misc.obj
 0001:000170e0       ?_Insert_node@?$_Tree_val@U?$_Tree_simple_types@U?$pair@$$CBV?$basic_string@DU?$char_traits@D@std@@V?$allocator@D@2@@std@@G@std@@@std@@@std@@QEAAPEAU?$_Tree_node@U?$pair@$$CBV?$basic_string@DU?$char_traits@D@std@@V?$allocator@D@2@@std@@G@std@@PEAX@2@U?$_Tree_id@PEAU?$_Tree_node@U?$pair@$$CBV?$basic_string@DU?$char_traits@D@std@@V?$allocator@D@2@@std@@G@std@@PEAX@std@@@2@QEAU32@@Z 00000001800180e0 f i misc.obj
 0001:00017360       ?resize@?$vector@U?$format_item@_WU?$char_traits@_W@std@@V?$allocator@_W@2@@detail@io@boost@@V?$allocator@U?$format_item@_WU?$char_traits@_W@std@@V?$allocator@_W@2@@detail@io@boost@@@std@@@std@@QEAAX_KAEBU?$format_item@_WU?$char_traits@_W@std@@V?$allocator@_W@2@@detail@io@boost@@@Z 0000000180018360 f i misc.obj
 0001:00017460       ??1?$_Alloc_construct_ptr@V?$allocator@U?$_Tree_node@U?$pair@$$CBDU?$string_parse_tree@D@date_time@boost@@@std@@PEAX@std@@@std@@@std@@QEAA@XZ 0000000180018460 f i misc.obj
 0001:00017460       ??1?$_Tree_temp_node_alloc@V?$allocator@U?$_Tree_node@U?$pair@$$CBDU?$string_parse_tree@D@date_time@boost@@@std@@PEAX@std@@@std@@@std@@QEAA@XZ 0000000180018460 f i misc.obj
 0001:00017480       ?main_convert_loop@?$lcast_ret_unsigned@U?$char_traits@_W@std@@I_W@detail@boost@@AEAA_NXZ 0000000180018480 f i misc.obj
 0001:00017520       ?make_or_reuse_data@?$basic_format@_WU?$char_traits@_W@std@@V?$allocator@_W@2@@boost@@AEAAX_K@Z 0000000180018520 f i misc.obj
 0001:00017890       ??$upper_bound_from_fstring@V?$basic_string@_WU?$char_traits@_W@std@@V?$allocator@_W@2@@std@@V?$ctype@_W@2@@detail@io@boost@@YAHAEBV?$basic_string@_WU?$char_traits@_W@std@@V?$allocator@_W@2@@std@@_WAEBV?$ctype@_W@4@E@Z 0000000180018890 f i misc.obj
 0001:00017a30       ??$parse_printf_directive@_WU?$char_traits@_W@std@@V?$allocator@_W@2@V?$_String_const_iterator@V?$_String_val@U?$_Simple_types@_W@std@@@std@@@2@V?$ctype@_W@2@@detail@io@boost@@YA_NAEAV?$_String_const_iterator@V?$_String_val@U?$_Simple_types@_W@std@@@std@@@std@@AEBV34@PEAU?$format_item@_WU?$char_traits@_W@std@@V?$allocator@_W@2@@012@AEBV?$ctype@_W@4@_KE@Z 0000000180018a30 f i misc.obj
 0001:000184a0       ??$throw_bad_cast@V?$basic_string@DU?$char_traits@D@std@@V?$allocator@D@2@@std@@H@detail@conversion@boost@@YAXXZ 00000001800194a0 f i misc.obj
 0001:000184d0       ??$throw_bad_cast@V?$basic_string@DU?$char_traits@D@std@@V?$allocator@D@2@@std@@_J@detail@conversion@boost@@YAXXZ 00000001800194d0 f i misc.obj
 0001:00018500       ??$throw_bad_cast@V?$basic_string@DU?$char_traits@D@std@@V?$allocator@D@2@@std@@F@detail@conversion@boost@@YAXXZ 0000000180019500 f i misc.obj
 0001:00018530       ??$feed_impl@_WU?$char_traits@_W@std@@V?$allocator@_W@2@AEBU?$put_holder@_WU?$char_traits@_W@std@@@detail@io@boost@@@detail@io@boost@@YAAEAV?$basic_format@_WU?$char_traits@_W@std@@V?$allocator@_W@2@@2@AEAV32@AEBU?$put_holder@_WU?$char_traits@_W@std@@@012@@Z 0000000180019530 f i misc.obj
 0001:00018780       ??$_Erase_tree@V?$allocator@U?$_Tree_node@U?$pair@$$CBV?$basic_string@DU?$char_traits@D@std@@V?$allocator@D@2@@std@@G@std@@PEAX@std@@@std@@@?$_Tree_val@U?$_Tree_simple_types@U?$pair@$$CBV?$basic_string@DU?$char_traits@D@std@@V?$allocator@D@2@@std@@G@std@@@std@@@std@@QEAAXAEAV?$allocator@U?$_Tree_node@U?$pair@$$CBV?$basic_string@DU?$char_traits@D@std@@V?$allocator@D@2@@std@@G@std@@PEAX@std@@@1@PEAU?$_Tree_node@U?$pair@$$CBV?$basic_string@DU?$char_traits@D@std@@V?$allocator@D@2@@std@@G@std@@PEAX@1@@Z 0000000180019780 f i misc.obj
 0001:00018840       ?convert@?$lcast_ret_unsigned@U?$char_traits@D@std@@GD@detail@boost@@QEAA_NXZ 0000000180019840 f i misc.obj
 0001:00018ad0       ?assign@?$vector@U?$format_item@_WU?$char_traits@_W@std@@V?$allocator@_W@2@@detail@io@boost@@V?$allocator@U?$format_item@_WU?$char_traits@_W@std@@V?$allocator@_W@2@@detail@io@boost@@@std@@@std@@QEAAX_KAEBU?$format_item@_WU?$char_traits@_W@std@@V?$allocator@_W@2@@detail@io@boost@@@Z 0000000180019ad0 f i misc.obj
 0001:00018ce0       ??1?$_Tree_temp_node_alloc@V?$allocator@U?$_Tree_node@U?$pair@$$CBV?$basic_string@DU?$char_traits@D@std@@V?$allocator@D@2@@std@@G@std@@PEAX@std@@@std@@@std@@QEAA@XZ 0000000180019ce0 f i misc.obj
 0001:00018ce0       ??1?$_Alloc_construct_ptr@V?$allocator@U?$_Tree_node@U?$pair@$$CBV?$basic_string@DU?$char_traits@D@std@@V?$allocator@D@2@@std@@G@std@@PEAX@std@@@std@@@std@@QEAA@XZ 0000000180019ce0 f i misc.obj
 0001:00018d00       ?main_convert_iteration@?$lcast_ret_unsigned@U?$char_traits@D@std@@GD@detail@boost@@AEAA_NXZ 0000000180019d00 f i misc.obj
 0001:00018da0       ?erase@?$vector@_NV?$allocator@_N@std@@@std@@QEAA?AV?$_Vb_iterator@U?$_Wrap_alloc@V?$allocator@I@std@@@std@@@2@V?$_Vb_const_iterator@U?$_Wrap_alloc@V?$allocator@I@std@@@std@@@2@0@Z 0000000180019da0 f i misc.obj
 0001:00019030       ?allocate@?$allocator@U?$format_item@_WU?$char_traits@_W@std@@V?$allocator@_W@2@@detail@io@boost@@@std@@QEAAPEAU?$format_item@_WU?$char_traits@_W@std@@V?$allocator@_W@2@@detail@io@boost@@_K@Z 000000018001a030 f i misc.obj
 0001:000190a0       ?_Xlen@?$vector@_NV?$allocator@_N@std@@@std@@QEBAXXZ 000000018001a0a0 f i misc.obj
 0001:000190c0       ??$?0V?$clone_impl@Ubad_alloc_@exception_detail@boost@@@exception_detail@boost@@@shared_count@detail@boost@@QEAA@PEAV?$clone_impl@Ubad_alloc_@exception_detail@boost@@@exception_detail@2@@Z 000000018001a0c0 f i misc.obj
 0001:00019120       ??$?0V?$clone_impl@Ubad_exception_@exception_detail@boost@@@exception_detail@boost@@@shared_count@detail@boost@@QEAA@PEAV?$clone_impl@Ubad_exception_@exception_detail@boost@@@exception_detail@2@@Z 000000018001a120 f i misc.obj
 0001:00019180       ?_Check_node_allocator@?$_Tree@V?$_Tmap_traits@V?$basic_string@_WU?$char_traits@_W@std@@V?$allocator@_W@2@@std@@V?$shared_ptr@VNameValue@yloader@@@2@U?$less@V?$basic_string@_WU?$char_traits@_W@std@@V?$allocator@_W@2@@std@@@2@V?$allocator@U?$pair@$$CBV?$basic_string@_WU?$char_traits@_W@std@@V?$allocator@_W@2@@std@@V?$shared_ptr@VNameValue@yloader@@@2@@std@@@2@$00@std@@@std@@IEBAXAEAV?$_Node_handle@U?$_Tree_node@U?$pair@$$CBV?$basic_string@_WU?$char_traits@_W@std@@V?$allocator@_W@2@@std@@V?$shared_ptr@VNameValue@yloader@@@2@@std@@PEAX@std@@V?$allocator@U?$pair@$$CBV?$basic_string@_WU?$char_traits@_W@std@@V?$allocator@_W@2@@std@@V?$shared_ptr@VNameValue@yloader@@@2@@std@@@2@U_Node_handle_map_base@2@V?$basic_string@_WU?$char_traits@_W@std@@V?$allocator@_W@2@@2@V?$shared_ptr@VNameValue@yloader@@@2@@2@@Z 000000018001a180 f i namevalue.obj
 0001:00019180       ??$call_put_head@_WU?$char_traits@_W@std@@$$CBI@detail@io@boost@@YAXAEAV?$basic_ostream@_WU?$char_traits@_W@std@@@std@@PEBX@Z 000000018001a180 f i misc.obj
 0001:00019180       ??$call_put_head@_WU?$char_traits@_W@std@@$$CBV?$basic_string@_WU?$char_traits@_W@std@@V?$allocator@_W@2@@2@@detail@io@boost@@YAXAEAV?$basic_ostream@_WU?$char_traits@_W@std@@@std@@PEBX@Z 000000018001a180 f i misc.obj
 0001:00019180       ?dispose@?$sp_counted_impl_pd@PEAV?$basic_altstringbuf@_WU?$char_traits@_W@std@@V?$allocator@_W@2@@io@boost@@VNo_Op@?$basic_oaltstringstream@_WU?$char_traits@_W@std@@V?$allocator@_W@2@@23@@detail@boost@@UEAAXXZ 000000018001a180 f i misc.obj
 0001:00019180       _guard_check_icall_nop     000000018001a180 f i MSVCRT:guard_support.obj
 0001:00019190       ??$call_put_last@_WU?$char_traits@_W@std@@$$CBV?$basic_string@_WU?$char_traits@_W@std@@V?$allocator@_W@2@@2@@detail@io@boost@@YAXAEAV?$basic_ostream@_WU?$char_traits@_W@std@@@std@@PEBX@Z 000000018001a190 f i misc.obj
 0001:000191b0       ??$call_put_last@_WU?$char_traits@_W@std@@$$CBI@detail@io@boost@@YAXAEAV?$basic_ostream@_WU?$char_traits@_W@std@@@std@@PEBX@Z 000000018001a1b0 f i misc.obj
 0001:000191c0       ??$_Find_hint@V?$basic_string@DU?$char_traits@D@std@@V?$allocator@D@2@@std@@@?$_Tree@V?$_Tmap_traits@V?$basic_string@DU?$char_traits@D@std@@V?$allocator@D@2@@std@@GU?$less@V?$basic_string@DU?$char_traits@D@std@@V?$allocator@D@2@@std@@@2@V?$allocator@U?$pair@$$CBV?$basic_string@DU?$char_traits@D@std@@V?$allocator@D@2@@std@@G@std@@@2@$0A@@std@@@std@@IEBA?AU?$_Tree_find_hint_result@PEAU?$_Tree_node@U?$pair@$$CBV?$basic_string@DU?$char_traits@D@std@@V?$allocator@D@2@@std@@G@std@@PEAX@std@@@1@QEAU?$_Tree_node@U?$pair@$$CBV?$basic_string@DU?$char_traits@D@std@@V?$allocator@D@2@@std@@G@std@@PEAX@1@AEBV?$basic_string@DU?$char_traits@D@std@@V?$allocator@D@2@@1@@Z 000000018001a1c0 f i misc.obj
 0001:00019620       ??$_Resize_reallocate@U?$format_item@_WU?$char_traits@_W@std@@V?$allocator@_W@2@@detail@io@boost@@@?$vector@U?$format_item@_WU?$char_traits@_W@std@@V?$allocator@_W@2@@detail@io@boost@@V?$allocator@U?$format_item@_WU?$char_traits@_W@std@@V?$allocator@_W@2@@detail@io@boost@@@std@@@std@@AEAAX_KAEBU?$format_item@_WU?$char_traits@_W@std@@V?$allocator@_W@2@@detail@io@boost@@@Z 000000018001a620 f i misc.obj
 0001:00019830       ??$fill@PEAU?$format_item@_WU?$char_traits@_W@std@@V?$allocator@_W@2@@detail@io@boost@@U1234@@std@@YAXQEAU?$format_item@_WU?$char_traits@_W@std@@V?$allocator@_W@2@@detail@io@boost@@0AEBU1234@@Z 000000018001a830 f i misc.obj
 0001:000199a0       ??0?$pair@$$CBDU?$string_parse_tree@D@date_time@boost@@@std@@QEAA@$$QEAU01@@Z 000000018001a9a0 f i misc.obj
 0001:00019a10       ?convert@?$lcast_ret_unsigned@U?$char_traits@D@std@@ID@detail@boost@@QEAA_NXZ 000000018001aa10 f i misc.obj
 0001:00019cd0       ?convert@?$lcast_ret_unsigned@U?$char_traits@D@std@@_KD@detail@boost@@QEAA_NXZ 000000018001acd0 f i misc.obj
 0001:00019fa0       ??1?$_Uninitialized_backout_al@V?$allocator@U?$format_item@_WU?$char_traits@_W@std@@V?$allocator@_W@2@@detail@io@boost@@@std@@@std@@QEAA@XZ 000000018001afa0 f i misc.obj
 0001:00019fe0       ??1?$_Tidy_deallocate_guard@V?$basic_string@DU?$char_traits@D@std@@V?$allocator@D@2@@std@@@std@@QEAA@XZ 000000018001afe0 f i misc.obj
 0001:0001a050       ??_G?$sp_counted_impl_p@V?$clone_impl@Ubad_exception_@exception_detail@boost@@@exception_detail@boost@@@detail@boost@@UEAAPEAXI@Z 000000018001b050 f i misc.obj
 0001:0001a050       ??_E?$sp_counted_impl_p@V?$clone_impl@Ubad_exception_@exception_detail@boost@@@exception_detail@boost@@@detail@boost@@UEAAPEAXI@Z 000000018001b050 f i * CIL library *:* CIL module *
 0001:0001a050       ??_E?$sp_counted_impl_p@V?$clone_impl@Ubad_alloc_@exception_detail@boost@@@exception_detail@boost@@@detail@boost@@UEAAPEAXI@Z 000000018001b050 f i * CIL library *:* CIL module *
 0001:0001a050       ??_G?$sp_counted_impl_p@V?$clone_impl@Ubad_alloc_@exception_detail@boost@@@exception_detail@boost@@@detail@boost@@UEAAPEAXI@Z 000000018001b050 f i misc.obj
 0001:0001a080       ?main_convert_loop@?$lcast_ret_unsigned@U?$char_traits@D@std@@ID@detail@boost@@AEAA_NXZ 000000018001b080 f i misc.obj
 0001:0001a110       ?main_convert_loop@?$lcast_ret_unsigned@U?$char_traits@D@std@@_KD@detail@boost@@AEAA_NXZ 000000018001b110 f i misc.obj
 0001:0001a1d0       ??$throw_exception@Vtoo_many_args@io@boost@@@boost@@YAXAEBVtoo_many_args@io@0@@Z 000000018001b1d0 f i misc.obj
 0001:0001a200       ??$put@_WU?$char_traits@_W@std@@V?$allocator@_W@2@AEBU?$put_holder@_WU?$char_traits@_W@std@@@detail@io@boost@@@detail@io@boost@@YAXAEBU?$put_holder@_WU?$char_traits@_W@std@@@012@AEBU?$format_item@_WU?$char_traits@_W@std@@V?$allocator@_W@2@@012@AEAV?$basic_string@_WU?$char_traits@_W@std@@V?$allocator@_W@2@@std@@AEAV?$basic_altstringbuf@_WU?$char_traits@_W@std@@V?$allocator@_W@2@@12@PEAVlocale@6@@Z 000000018001b200 f i misc.obj
 0001:0001a8c0       ??0?$wrapexcept@Vtoo_many_args@io@boost@@@boost@@QEAA@AEBU01@@Z 000000018001b8c0 f i misc.obj
 0001:0001a990       ??0too_many_args@io@boost@@QEAA@AEBV012@@Z 000000018001b990 f i misc.obj
 0001:0001a9f0       ??_D?$basic_oaltstringstream@_WU?$char_traits@_W@std@@V?$allocator@_W@2@@io@boost@@QEAAXXZ 000000018001b9f0 f i misc.obj
 0001:0001aa60       ??1?$base_from_member@V?$shared_ptr@V?$basic_altstringbuf@_WU?$char_traits@_W@std@@V?$allocator@_W@2@@io@boost@@@boost@@$0A@@boost@@QEAA@XZ 000000018001ba60 f i misc.obj
 0001:0001aab0       ?rethrow@?$wrapexcept@Vtoo_many_args@io@boost@@@boost@@UEBAXXZ 000000018001bab0 f i misc.obj
 0001:0001aae0       ?clone@?$wrapexcept@Vtoo_many_args@io@boost@@@boost@@UEBAPEBVclone_base@exception_detail@2@XZ 000000018001bae0 f i misc.obj
 0001:0001ab40       ??0?$wrapexcept@Vtoo_many_args@io@boost@@@boost@@QEAA@AEBVtoo_many_args@io@1@@Z 000000018001bb40 f i misc.obj
 0001:0001abe0       ??_G?$basic_oaltstringstream@_WU?$char_traits@_W@std@@V?$allocator@_W@2@@io@boost@@UEAAPEAXI@Z 000000018001bbe0 f i misc.obj
 0001:0001abe0       ??_E?$basic_oaltstringstream@_WU?$char_traits@_W@std@@V?$allocator@_W@2@@io@boost@@UEAAPEAXI@Z 000000018001bbe0 f i * CIL library *:* CIL module *
 0001:0001ac80       ?clear_buffer@?$basic_altstringbuf@_WU?$char_traits@_W@std@@V?$allocator@_W@2@@io@boost@@QEAAXXZ 000000018001bc80 f i misc.obj
 0001:0001ad30       ?apply_on@?$stream_format_state@_WU?$char_traits@_W@std@@@detail@io@boost@@QEBAXAEAV?$basic_ios@_WU?$char_traits@_W@std@@@std@@PEAVlocale@6@@Z 000000018001bd30 f i misc.obj
 0001:0001ade0       ??$mk_str@_WU?$char_traits@_W@std@@V?$allocator@_W@2@@detail@io@boost@@YAXAEAV?$basic_string@_WU?$char_traits@_W@std@@V?$allocator@_W@2@@std@@PEB_W_K_J_WH4_N@Z 000000018001bde0 f i misc.obj
 0001:0001b110       ??0?$format_item@_WU?$char_traits@_W@std@@V?$allocator@_W@2@@detail@io@boost@@QEAA@AEBU0123@@Z 000000018001c110 f i misc.obj
 0001:0001b1c0       ??0?$format_item@_WU?$char_traits@_W@std@@V?$allocator@_W@2@@detail@io@boost@@QEAA@$$QEAU0123@@Z 000000018001c1c0 f i misc.obj
 0001:0001b2a0       ??$?0PEAV?$basic_altstringbuf@_WU?$char_traits@_W@std@@V?$allocator@_W@2@@io@boost@@VNo_Op@?$basic_oaltstringstream@_WU?$char_traits@_W@std@@V?$allocator@_W@2@@12@@shared_count@detail@boost@@QEAA@PEAV?$basic_altstringbuf@_WU?$char_traits@_W@std@@V?$allocator@_W@2@@io@2@VNo_Op@?$basic_oaltstringstream@_WU?$char_traits@_W@std@@V?$allocator@_W@2@@42@@Z 000000018001c2a0 f i misc.obj
 0001:0001b2f0       ?get_untyped_deleter@?$sp_counted_impl_pd@PEAV?$basic_altstringbuf@_WU?$char_traits@_W@std@@V?$allocator@_W@2@@io@boost@@VNo_Op@?$basic_oaltstringstream@_WU?$char_traits@_W@std@@V?$allocator@_W@2@@23@@detail@boost@@UEAAPEAXXZ 000000018001c2f0 f i misc.obj
 0001:0001b300       ?get_local_deleter@?$sp_counted_impl_pd@PEAV?$basic_altstringbuf@_WU?$char_traits@_W@std@@V?$allocator@_W@2@@io@boost@@VNo_Op@?$basic_oaltstringstream@_WU?$char_traits@_W@std@@V?$allocator@_W@2@@23@@detail@boost@@UEAAPEAXAEBVtype_info@@@Z 000000018001c300 f i misc.obj
 0001:0001b320       ?get_deleter@?$sp_counted_impl_pd@PEAV?$basic_altstringbuf@_WU?$char_traits@_W@std@@V?$allocator@_W@2@@io@boost@@VNo_Op@?$basic_oaltstringstream@_WU?$char_traits@_W@std@@V?$allocator@_W@2@@23@@detail@boost@@UEAAPEAXAEBVtype_info@@@Z 000000018001c320 f i misc.obj
 0001:0001b350       ??_G?$sp_counted_impl_pd@PEAV?$basic_altstringbuf@_WU?$char_traits@_W@std@@V?$allocator@_W@2@@io@boost@@VNo_Op@?$basic_oaltstringstream@_WU?$char_traits@_W@std@@V?$allocator@_W@2@@23@@detail@boost@@UEAAPEAXI@Z 000000018001c350 f i misc.obj
 0001:0001b350       ??_E?$sp_counted_impl_pd@PEAV?$basic_altstringbuf@_WU?$char_traits@_W@std@@V?$allocator@_W@2@@io@boost@@VNo_Op@?$basic_oaltstringstream@_WU?$char_traits@_W@std@@V?$allocator@_W@2@@23@@detail@boost@@UEAAPEAXI@Z 000000018001c350 f i * CIL library *:* CIL module *
 0001:0001b37c       ?rethrow@?$clone_impl@Ubad_exception_@exception_detail@boost@@@exception_detail@boost@@$0PPPPPPPM@A@EBAXXZ 000000018001c37c f i misc.obj
 0001:0001b388       ??_E?$wrapexcept@Vtoo_few_args@io@boost@@@boost@@W7EAAPEAXI@Z 000000018001c388 f i misc.obj
 0001:0001b388       ??_E?$wrapexcept@Vbad_format_string@io@boost@@@boost@@W7EAAPEAXI@Z 000000018001c388 f i misc.obj
 0001:0001b388       ??_E?$wrapexcept@Vtoo_many_args@io@boost@@@boost@@W7EAAPEAXI@Z 000000018001c388 f i misc.obj
 0001:0001b388       ??_E?$wrapexcept@Vbad_lexical_cast@boost@@@boost@@W7EAAPEAXI@Z 000000018001c388 f i misc.obj
 0001:0001b394       ?clone@?$clone_impl@Ubad_exception_@exception_detail@boost@@@exception_detail@boost@@$0PPPPPPPM@A@EBAPEBVclone_base@23@XZ 000000018001c394 f i misc.obj
 0001:0001b3a0       ?clone@?$clone_impl@Ubad_alloc_@exception_detail@boost@@@exception_detail@boost@@$0PPPPPPPM@A@EBAPEBVclone_base@23@XZ 000000018001c3a0 f i misc.obj
 0001:0001b3ac       ??_E?$basic_ostringstream@_WU?$char_traits@_W@std@@V?$allocator@_W@2@@std@@$4PPPPPPPM@A@EAAPEAXI@Z 000000018001c3ac f i misc.obj
 0001:0001b3b8       ??_E?$clone_impl@Ubad_exception_@exception_detail@boost@@@exception_detail@boost@@$4PPPPPPPM@FA@EAAPEAXI@Z 000000018001c3b8 f i misc.obj
 0001:0001b3c8       ??_E?$basic_stringstream@DU?$char_traits@D@std@@V?$allocator@D@2@@std@@$4PPPPPPPM@A@EAAPEAXI@Z 000000018001c3c8 f i misc.obj
 0001:0001b3d4       ??_E?$basic_oaltstringstream@_WU?$char_traits@_W@std@@V?$allocator@_W@2@@io@boost@@$4PPPPPPPM@A@EAAPEAXI@Z 000000018001c3d4 f i misc.obj
 0001:0001b3e0       ??_E?$wrapexcept@Vruntime_error@std@@@boost@@WCA@EAAPEAXI@Z 000000018001c3e0 f i misc.obj
 0001:0001b3e0       ??_E?$wrapexcept@Ubad_month@gregorian@boost@@@boost@@WCA@EAAPEAXI@Z 000000018001c3e0 f i misc.obj
 0001:0001b3e0       ??_E?$wrapexcept@Ubad_day_of_month@gregorian@boost@@@boost@@WCA@EAAPEAXI@Z 000000018001c3e0 f i misc.obj
 0001:0001b3e0       ??_E?$wrapexcept@Ubad_year@gregorian@boost@@@boost@@WCA@EAAPEAXI@Z 000000018001c3e0 f i misc.obj
 0001:0001b3ec       ??_E?$wrapexcept@Vbad_lexical_cast@boost@@@boost@@WDA@EAAPEAXI@Z 000000018001c3ec f i misc.obj
 0001:0001b3ec       ??_E?$wrapexcept@Vtoo_few_args@io@boost@@@boost@@WDA@EAAPEAXI@Z 000000018001c3ec f i misc.obj
 0001:0001b3ec       ??_E?$wrapexcept@Vbad_format_string@io@boost@@@boost@@WDA@EAAPEAXI@Z 000000018001c3ec f i misc.obj
 0001:0001b3ec       ??_E?$wrapexcept@Vtoo_many_args@io@boost@@@boost@@WDA@EAAPEAXI@Z 000000018001c3ec f i misc.obj
 0001:0001b3f8       ?rethrow@?$clone_impl@Ubad_alloc_@exception_detail@boost@@@exception_detail@boost@@$0PPPPPPPM@A@EBAXXZ 000000018001c3f8 f i misc.obj
 0001:0001b404       ??_E?$wrapexcept@Vruntime_error@std@@@boost@@W7EAAPEAXI@Z 000000018001c404 f i misc.obj
 0001:0001b404       ??_E?$wrapexcept@Ubad_month@gregorian@boost@@@boost@@W7EAAPEAXI@Z 000000018001c404 f i misc.obj
 0001:0001b404       ??_E?$wrapexcept@Ubad_year@gregorian@boost@@@boost@@W7EAAPEAXI@Z 000000018001c404 f i misc.obj
 0001:0001b404       ??_E?$wrapexcept@Ubad_day_of_month@gregorian@boost@@@boost@@W7EAAPEAXI@Z 000000018001c404 f i misc.obj
 0001:0001b410       ??_E?$clone_impl@Ubad_alloc_@exception_detail@boost@@@exception_detail@boost@@WCI@EAAPEAXI@Z 000000018001c410 f i misc.obj
 0001:0001b41c       ??_Ebad_alloc_@exception_detail@boost@@WCI@EAAPEAXI@Z 000000018001c41c f i misc.obj
 0001:0001b428       ??_E?$clone_impl@Ubad_exception_@exception_detail@boost@@@exception_detail@boost@@WCI@EAAPEAXI@Z 000000018001c428 f i misc.obj
 0001:0001b434       ??_E?$clone_impl@Ubad_alloc_@exception_detail@boost@@@exception_detail@boost@@$4PPPPPPPM@FA@EAAPEAXI@Z 000000018001c434 f i misc.obj
 0001:0001b444       ??_Ebad_exception_@exception_detail@boost@@WCI@EAAPEAXI@Z 000000018001c444 f i misc.obj
 0001:0001b450       ??1?$multimap@V?$basic_string@_WU?$char_traits@_W@std@@V?$allocator@_W@2@@std@@V?$shared_ptr@VNameValue@yloader@@@2@U?$less@V?$basic_string@_WU?$char_traits@_W@std@@V?$allocator@_W@2@@std@@@2@V?$allocator@U?$pair@$$CBV?$basic_string@_WU?$char_traits@_W@std@@V?$allocator@_W@2@@std@@V?$shared_ptr@VNameValue@yloader@@@2@@std@@@2@@std@@QEAA@XZ 000000018001c450 f i namevalue.obj
 0001:0001b450       ??1?$_Tree@V?$_Tmap_traits@V?$basic_string@_WU?$char_traits@_W@std@@V?$allocator@_W@2@@std@@V?$shared_ptr@VNameValue@yloader@@@2@U?$less@V?$basic_string@_WU?$char_traits@_W@std@@V?$allocator@_W@2@@std@@@2@V?$allocator@U?$pair@$$CBV?$basic_string@_WU?$char_traits@_W@std@@V?$allocator@_W@2@@std@@V?$shared_ptr@VNameValue@yloader@@@2@@std@@@2@$00@std@@@std@@QEAA@XZ 000000018001c450 f i namevalue.obj
 0001:0001b460       ??0NameValueMap@yloader@@QEAA@XZ 000000018001c460 f i namevalue.obj
 0001:0001b4b0       ??1NameValueMap@yloader@@QEAA@XZ 000000018001c4b0 f i namevalue.obj
 0001:0001b4e0       ??0NameValueMap@yloader@@QEAA@AEBV01@@Z 000000018001c4e0 f i namevalue.obj
 0001:0001b5e0       ??0NameValueMap@yloader@@QEAA@$$QEAV01@@Z 000000018001c5e0 f i namevalue.obj
 0001:0001b670       ??4NameValueMap@yloader@@QEAAAEAV01@AEBV01@@Z 000000018001c670 f i namevalue.obj
 0001:0001b6d0       ??4NameValueMap@yloader@@QEAAAEAV01@$$QEAV01@@Z 000000018001c6d0 f i namevalue.obj
 0001:0001b760       ?set@NameValueMap@yloader@@QEAAXAEBVNameValue@2@@Z 000000018001c760 f   namevalue.obj
 0001:0001b8a0       ?add@NameValueMap@yloader@@QEAAXAEBVNameValue@2@@Z 000000018001c8a0 f   namevalue.obj
 0001:0001b8a0       ?push_back@NameValueMap@yloader@@QEAAXAEBVNameValue@2@@Z 000000018001c8a0 f   namevalue.obj
 0001:0001b8b0       ??ANameValueMap@yloader@@QEBA?AVNameValue@1@_K@Z 000000018001c8b0 f   namevalue.obj
 0001:0001bbb0       ??1NameValue@yloader@@QEAA@XZ 000000018001cbb0 f i namevalue.obj
 0001:0001bbc0       ?add@NameValueMap@yloader@@QEAAXAEBV?$basic_string@_WU?$char_traits@_W@std@@V?$allocator@_W@2@@std@@0@Z 000000018001cbc0 f   namevalue.obj
 0001:0001bd30       ??1?$pair@$$CBV?$basic_string@_WU?$char_traits@_W@std@@V?$allocator@_W@2@@std@@V?$shared_ptr@VNameValue@yloader@@@2@@std@@QEAA@XZ 000000018001cd30 f i namevalue.obj
 0001:0001bde0       ?toString@NameValueMap@yloader@@QEBA?AV?$shared_ptr@V?$basic_string@_WU?$char_traits@_W@std@@V?$allocator@_W@2@@std@@@std@@_N@Z 000000018001cde0 f   namevalue.obj
 0001:0001c550       ??4?$multimap@V?$basic_string@_WU?$char_traits@_W@std@@V?$allocator@_W@2@@std@@V?$shared_ptr@VNameValue@yloader@@@2@U?$less@V?$basic_string@_WU?$char_traits@_W@std@@V?$allocator@_W@2@@std@@@2@V?$allocator@U?$pair@$$CBV?$basic_string@_WU?$char_traits@_W@std@@V?$allocator@_W@2@@std@@V?$shared_ptr@VNameValue@yloader@@@2@@std@@@2@@std@@QEAAAEAV01@V?$initializer_list@U?$pair@$$CBV?$basic_string@_WU?$char_traits@_W@std@@V?$allocator@_W@2@@std@@V?$shared_ptr@VNameValue@yloader@@@2@@std@@@1@@Z 000000018001d550 f i namevalue.obj
 0001:0001c5c0       ??0?$multimap@V?$basic_string@_WU?$char_traits@_W@std@@V?$allocator@_W@2@@std@@V?$shared_ptr@VNameValue@yloader@@@2@U?$less@V?$basic_string@_WU?$char_traits@_W@std@@V?$allocator@_W@2@@std@@@2@V?$allocator@U?$pair@$$CBV?$basic_string@_WU?$char_traits@_W@std@@V?$allocator@_W@2@@std@@V?$shared_ptr@VNameValue@yloader@@@2@@std@@@2@@std@@QEAA@V?$initializer_list@U?$pair@$$CBV?$basic_string@_WU?$char_traits@_W@std@@V?$allocator@_W@2@@std@@V?$shared_ptr@VNameValue@yloader@@@2@@std@@@1@AEBU?$less@V?$basic_string@_WU?$char_traits@_W@std@@V?$allocator@_W@2@@std@@@1@@Z 000000018001d5c0 f i namevalue.obj
 0001:0001c5c0       ??0?$multimap@V?$basic_string@_WU?$char_traits@_W@std@@V?$allocator@_W@2@@std@@V?$shared_ptr@VNameValue@yloader@@@2@U?$less@V?$basic_string@_WU?$char_traits@_W@std@@V?$allocator@_W@2@@std@@@2@V?$allocator@U?$pair@$$CBV?$basic_string@_WU?$char_traits@_W@std@@V?$allocator@_W@2@@std@@V?$shared_ptr@VNameValue@yloader@@@2@@std@@@2@@std@@QEAA@V?$initializer_list@U?$pair@$$CBV?$basic_string@_WU?$char_traits@_W@std@@V?$allocator@_W@2@@std@@V?$shared_ptr@VNameValue@yloader@@@2@@std@@@1@AEBU?$less@V?$basic_string@_WU?$char_traits@_W@std@@V?$allocator@_W@2@@std@@@1@AEBV?$allocator@U?$pair@$$CBV?$basic_string@_WU?$char_traits@_W@std@@V?$allocator@_W@2@@std@@V?$shared_ptr@VNameValue@yloader@@@2@@std@@@1@@Z 000000018001d5c0 f i namevalue.obj
 0001:0001c5c0       ??0?$multimap@V?$basic_string@_WU?$char_traits@_W@std@@V?$allocator@_W@2@@std@@V?$shared_ptr@VNameValue@yloader@@@2@U?$less@V?$basic_string@_WU?$char_traits@_W@std@@V?$allocator@_W@2@@std@@@2@V?$allocator@U?$pair@$$CBV?$basic_string@_WU?$char_traits@_W@std@@V?$allocator@_W@2@@std@@V?$shared_ptr@VNameValue@yloader@@@2@@std@@@2@@std@@QEAA@V?$initializer_list@U?$pair@$$CBV?$basic_string@_WU?$char_traits@_W@std@@V?$allocator@_W@2@@std@@V?$shared_ptr@VNameValue@yloader@@@2@@std@@@1@AEBV?$allocator@U?$pair@$$CBV?$basic_string@_WU?$char_traits@_W@std@@V?$allocator@_W@2@@std@@V?$shared_ptr@VNameValue@yloader@@@2@@std@@@1@@Z 000000018001d5c0 f i namevalue.obj
 0001:0001c5c0       ??0?$multimap@V?$basic_string@_WU?$char_traits@_W@std@@V?$allocator@_W@2@@std@@V?$shared_ptr@VNameValue@yloader@@@2@U?$less@V?$basic_string@_WU?$char_traits@_W@std@@V?$allocator@_W@2@@std@@@2@V?$allocator@U?$pair@$$CBV?$basic_string@_WU?$char_traits@_W@std@@V?$allocator@_W@2@@std@@V?$shared_ptr@VNameValue@yloader@@@2@@std@@@2@@std@@QEAA@V?$initializer_list@U?$pair@$$CBV?$basic_string@_WU?$char_traits@_W@std@@V?$allocator@_W@2@@std@@V?$shared_ptr@VNameValue@yloader@@@2@@std@@@1@@Z 000000018001d5c0 f i namevalue.obj
 0001:0001c650       ?swap@?$multimap@V?$basic_string@_WU?$char_traits@_W@std@@V?$allocator@_W@2@@std@@V?$shared_ptr@VNameValue@yloader@@@2@U?$less@V?$basic_string@_WU?$char_traits@_W@std@@V?$allocator@_W@2@@std@@@2@V?$allocator@U?$pair@$$CBV?$basic_string@_WU?$char_traits@_W@std@@V?$allocator@_W@2@@std@@V?$shared_ptr@VNameValue@yloader@@@2@@std@@@2@@std@@QEAAXAEAV12@@Z 000000018001d650 f i namevalue.obj
 0001:0001c650       ?swap@?$_Tree@V?$_Tmap_traits@V?$basic_string@_WU?$char_traits@_W@std@@V?$allocator@_W@2@@std@@V?$shared_ptr@VNameValue@yloader@@@2@U?$less@V?$basic_string@_WU?$char_traits@_W@std@@V?$allocator@_W@2@@std@@@2@V?$allocator@U?$pair@$$CBV?$basic_string@_WU?$char_traits@_W@std@@V?$allocator@_W@2@@std@@V?$shared_ptr@VNameValue@yloader@@@2@@std@@@2@$00@std@@@std@@QEAAXAEAV12@@Z 000000018001d650 f i namevalue.obj
 0001:0001c680       ??4?$multimap@V?$basic_string@_WU?$char_traits@_W@std@@V?$allocator@_W@2@@std@@V?$shared_ptr@VNameValue@yloader@@@2@U?$less@V?$basic_string@_WU?$char_traits@_W@std@@V?$allocator@_W@2@@std@@@2@V?$allocator@U?$pair@$$CBV?$basic_string@_WU?$char_traits@_W@std@@V?$allocator@_W@2@@std@@V?$shared_ptr@VNameValue@yloader@@@2@@std@@@2@@std@@QEAAAEAV01@$$QEAV01@@Z 000000018001d680 f i namevalue.obj
 0001:0001c680       ??4?$_Tree@V?$_Tmap_traits@V?$basic_string@_WU?$char_traits@_W@std@@V?$allocator@_W@2@@std@@V?$shared_ptr@VNameValue@yloader@@@2@U?$less@V?$basic_string@_WU?$char_traits@_W@std@@V?$allocator@_W@2@@std@@@2@V?$allocator@U?$pair@$$CBV?$basic_string@_WU?$char_traits@_W@std@@V?$allocator@_W@2@@std@@V?$shared_ptr@VNameValue@yloader@@@2@@std@@@2@$00@std@@@std@@QEAAAEAV01@$$QEAV01@@Z 000000018001d680 f i namevalue.obj
 0001:0001c6d0       ??0?$_Tree@V?$_Tmap_traits@V?$basic_string@_WU?$char_traits@_W@std@@V?$allocator@_W@2@@std@@V?$shared_ptr@VNameValue@yloader@@@2@U?$less@V?$basic_string@_WU?$char_traits@_W@std@@V?$allocator@_W@2@@std@@@2@V?$allocator@U?$pair@$$CBV?$basic_string@_WU?$char_traits@_W@std@@V?$allocator@_W@2@@std@@V?$shared_ptr@VNameValue@yloader@@@2@@std@@@2@$00@std@@@std@@QEAA@$$QEAV01@AEBV?$allocator@U?$pair@$$CBV?$basic_string@_WU?$char_traits@_W@std@@V?$allocator@_W@2@@std@@V?$shared_ptr@VNameValue@yloader@@@2@@std@@@1@@Z 000000018001d6d0 f i namevalue.obj
 0001:0001c6d0       ??0?$multimap@V?$basic_string@_WU?$char_traits@_W@std@@V?$allocator@_W@2@@std@@V?$shared_ptr@VNameValue@yloader@@@2@U?$less@V?$basic_string@_WU?$char_traits@_W@std@@V?$allocator@_W@2@@std@@@2@V?$allocator@U?$pair@$$CBV?$basic_string@_WU?$char_traits@_W@std@@V?$allocator@_W@2@@std@@V?$shared_ptr@VNameValue@yloader@@@2@@std@@@2@@std@@QEAA@$$QEAV01@@Z 000000018001d6d0 f i namevalue.obj
 0001:0001c6d0       ??0?$multimap@V?$basic_string@_WU?$char_traits@_W@std@@V?$allocator@_W@2@@std@@V?$shared_ptr@VNameValue@yloader@@@2@U?$less@V?$basic_string@_WU?$char_traits@_W@std@@V?$allocator@_W@2@@std@@@2@V?$allocator@U?$pair@$$CBV?$basic_string@_WU?$char_traits@_W@std@@V?$allocator@_W@2@@std@@V?$shared_ptr@VNameValue@yloader@@@2@@std@@@2@@std@@QEAA@$$QEAV01@AEBV?$allocator@U?$pair@$$CBV?$basic_string@_WU?$char_traits@_W@std@@V?$allocator@_W@2@@std@@V?$shared_ptr@VNameValue@yloader@@@2@@std@@@1@@Z 000000018001d6d0 f i namevalue.obj
 0001:0001c6d0       ??0?$_Tree@V?$_Tmap_traits@V?$basic_string@_WU?$char_traits@_W@std@@V?$allocator@_W@2@@std@@V?$shared_ptr@VNameValue@yloader@@@2@U?$less@V?$basic_string@_WU?$char_traits@_W@std@@V?$allocator@_W@2@@std@@@2@V?$allocator@U?$pair@$$CBV?$basic_string@_WU?$char_traits@_W@std@@V?$allocator@_W@2@@std@@V?$shared_ptr@VNameValue@yloader@@@2@@std@@@2@$00@std@@@std@@QEAA@$$QEAV01@@Z 000000018001d6d0 f i namevalue.obj
 0001:0001c730       ??4?$_Tree@V?$_Tmap_traits@V?$basic_string@_WU?$char_traits@_W@std@@V?$allocator@_W@2@@std@@V?$shared_ptr@VNameValue@yloader@@@2@U?$less@V?$basic_string@_WU?$char_traits@_W@std@@V?$allocator@_W@2@@std@@@2@V?$allocator@U?$pair@$$CBV?$basic_string@_WU?$char_traits@_W@std@@V?$allocator@_W@2@@std@@V?$shared_ptr@VNameValue@yloader@@@2@@std@@@2@$00@std@@@std@@QEAAAEAV01@AEBV01@@Z 000000018001d730 f i namevalue.obj
 0001:0001c730       ??4?$multimap@V?$basic_string@_WU?$char_traits@_W@std@@V?$allocator@_W@2@@std@@V?$shared_ptr@VNameValue@yloader@@@2@U?$less@V?$basic_string@_WU?$char_traits@_W@std@@V?$allocator@_W@2@@std@@@2@V?$allocator@U?$pair@$$CBV?$basic_string@_WU?$char_traits@_W@std@@V?$allocator@_W@2@@std@@V?$shared_ptr@VNameValue@yloader@@@2@@std@@@2@@std@@QEAAAEAV01@AEBV01@@Z 000000018001d730 f i namevalue.obj
 0001:0001c770       ??0?$_Tree@V?$_Tmap_traits@V?$basic_string@_WU?$char_traits@_W@std@@V?$allocator@_W@2@@std@@V?$shared_ptr@VNameValue@yloader@@@2@U?$less@V?$basic_string@_WU?$char_traits@_W@std@@V?$allocator@_W@2@@std@@@2@V?$allocator@U?$pair@$$CBV?$basic_string@_WU?$char_traits@_W@std@@V?$allocator@_W@2@@std@@V?$shared_ptr@VNameValue@yloader@@@2@@std@@@2@$00@std@@@std@@QEAA@AEBU?$less@V?$basic_string@_WU?$char_traits@_W@std@@V?$allocator@_W@2@@std@@@1@AEBV?$allocator@U?$pair@$$CBV?$basic_string@_WU?$char_traits@_W@std@@V?$allocator@_W@2@@std@@V?$shared_ptr@VNameValue@yloader@@@2@@std@@@1@@Z 000000018001d770 f i namevalue.obj
 0001:0001c770       ??0?$multimap@V?$basic_string@_WU?$char_traits@_W@std@@V?$allocator@_W@2@@std@@V?$shared_ptr@VNameValue@yloader@@@2@U?$less@V?$basic_string@_WU?$char_traits@_W@std@@V?$allocator@_W@2@@std@@@2@V?$allocator@U?$pair@$$CBV?$basic_string@_WU?$char_traits@_W@std@@V?$allocator@_W@2@@std@@V?$shared_ptr@VNameValue@yloader@@@2@@std@@@2@@std@@QEAA@AEBU?$less@V?$basic_string@_WU?$char_traits@_W@std@@V?$allocator@_W@2@@std@@@1@AEBV?$allocator@U?$pair@$$CBV?$basic_string@_WU?$char_traits@_W@std@@V?$allocator@_W@2@@std@@V?$shared_ptr@VNameValue@yloader@@@2@@std@@@1@@Z 000000018001d770 f i namevalue.obj
 0001:0001c770       ??0?$_Tree@V?$_Tmap_traits@V?$basic_string@_WU?$char_traits@_W@std@@V?$allocator@_W@2@@std@@V?$shared_ptr@VNameValue@yloader@@@2@U?$less@V?$basic_string@_WU?$char_traits@_W@std@@V?$allocator@_W@2@@std@@@2@V?$allocator@U?$pair@$$CBV?$basic_string@_WU?$char_traits@_W@std@@V?$allocator@_W@2@@std@@V?$shared_ptr@VNameValue@yloader@@@2@@std@@@2@$00@std@@@std@@QEAA@AEBU?$less@V?$basic_string@_WU?$char_traits@_W@std@@V?$allocator@_W@2@@std@@@1@@Z 000000018001d770 f i namevalue.obj
 0001:0001c770       ??0?$multimap@V?$basic_string@_WU?$char_traits@_W@std@@V?$allocator@_W@2@@std@@V?$shared_ptr@VNameValue@yloader@@@2@U?$less@V?$basic_string@_WU?$char_traits@_W@std@@V?$allocator@_W@2@@std@@@2@V?$allocator@U?$pair@$$CBV?$basic_string@_WU?$char_traits@_W@std@@V?$allocator@_W@2@@std@@V?$shared_ptr@VNameValue@yloader@@@2@@std@@@2@@std@@QEAA@AEBV?$allocator@U?$pair@$$CBV?$basic_string@_WU?$char_traits@_W@std@@V?$allocator@_W@2@@std@@V?$shared_ptr@VNameValue@yloader@@@2@@std@@@1@@Z 000000018001d770 f i namevalue.obj
 0001:0001c770       ??0?$multimap@V?$basic_string@_WU?$char_traits@_W@std@@V?$allocator@_W@2@@std@@V?$shared_ptr@VNameValue@yloader@@@2@U?$less@V?$basic_string@_WU?$char_traits@_W@std@@V?$allocator@_W@2@@std@@@2@V?$allocator@U?$pair@$$CBV?$basic_string@_WU?$char_traits@_W@std@@V?$allocator@_W@2@@std@@V?$shared_ptr@VNameValue@yloader@@@2@@std@@@2@@std@@QEAA@XZ 000000018001d770 f i namevalue.obj
 0001:0001c770       ??0?$multimap@V?$basic_string@_WU?$char_traits@_W@std@@V?$allocator@_W@2@@std@@V?$shared_ptr@VNameValue@yloader@@@2@U?$less@V?$basic_string@_WU?$char_traits@_W@std@@V?$allocator@_W@2@@std@@@2@V?$allocator@U?$pair@$$CBV?$basic_string@_WU?$char_traits@_W@std@@V?$allocator@_W@2@@std@@V?$shared_ptr@VNameValue@yloader@@@2@@std@@@2@@std@@QEAA@AEBU?$less@V?$basic_string@_WU?$char_traits@_W@std@@V?$allocator@_W@2@@std@@@1@@Z 000000018001d770 f i namevalue.obj
 0001:0001c7b0       ??0?$multimap@V?$basic_string@_WU?$char_traits@_W@std@@V?$allocator@_W@2@@std@@V?$shared_ptr@VNameValue@yloader@@@2@U?$less@V?$basic_string@_WU?$char_traits@_W@std@@V?$allocator@_W@2@@std@@@2@V?$allocator@U?$pair@$$CBV?$basic_string@_WU?$char_traits@_W@std@@V?$allocator@_W@2@@std@@V?$shared_ptr@VNameValue@yloader@@@2@@std@@@2@@std@@QEAA@AEBV01@AEBV?$allocator@U?$pair@$$CBV?$basic_string@_WU?$char_traits@_W@std@@V?$allocator@_W@2@@std@@V?$shared_ptr@VNameValue@yloader@@@2@@std@@@1@@Z 000000018001d7b0 f i namevalue.obj
 0001:0001c820       ??0?$multimap@V?$basic_string@_WU?$char_traits@_W@std@@V?$allocator@_W@2@@std@@V?$shared_ptr@VNameValue@yloader@@@2@U?$less@V?$basic_string@_WU?$char_traits@_W@std@@V?$allocator@_W@2@@std@@@2@V?$allocator@U?$pair@$$CBV?$basic_string@_WU?$char_traits@_W@std@@V?$allocator@_W@2@@std@@V?$shared_ptr@VNameValue@yloader@@@2@@std@@@2@@std@@QEAA@AEBV01@@Z 000000018001d820 f i namevalue.obj
 0001:0001c890       ?_Getcomp@?$_Tree@V?$_Tmap_traits@V?$basic_string@_WU?$char_traits@_W@std@@V?$allocator@_W@2@@std@@V?$shared_ptr@VNameValue@yloader@@@2@U?$less@V?$basic_string@_WU?$char_traits@_W@std@@V?$allocator@_W@2@@std@@@2@V?$allocator@U?$pair@$$CBV?$basic_string@_WU?$char_traits@_W@std@@V?$allocator@_W@2@@std@@V?$shared_ptr@VNameValue@yloader@@@2@@std@@@2@$00@std@@@std@@IEAAAEAU?$less@V?$basic_string@_WU?$char_traits@_W@std@@V?$allocator@_W@2@@std@@@2@XZ 000000018001d890 f i namevalue.obj
 0001:0001c890       ?_Get_scary@?$_Tree@V?$_Tmap_traits@V?$basic_string@_WU?$char_traits@_W@std@@V?$allocator@_W@2@@std@@V?$shared_ptr@VNameValue@yloader@@@2@U?$less@V?$basic_string@_WU?$char_traits@_W@std@@V?$allocator@_W@2@@std@@@2@V?$allocator@U?$pair@$$CBV?$basic_string@_WU?$char_traits@_W@std@@V?$allocator@_W@2@@std@@V?$shared_ptr@VNameValue@yloader@@@2@@std@@@2@$00@std@@@std@@IEBAPEBV?$_Tree_val@U?$_Tree_simple_types@U?$pair@$$CBV?$basic_string@_WU?$char_traits@_W@std@@V?$allocator@_W@2@@std@@V?$shared_ptr@VNameValue@yloader@@@2@@std@@@std@@@2@XZ 000000018001d890 f i namevalue.obj
 0001:0001c890       ?_Get_scary@?$_Tree@V?$_Tmap_traits@V?$basic_string@_WU?$char_traits@_W@std@@V?$allocator@_W@2@@std@@V?$shared_ptr@VNameValue@yloader@@@2@U?$less@V?$basic_string@_WU?$char_traits@_W@std@@V?$allocator@_W@2@@std@@@2@V?$allocator@U?$pair@$$CBV?$basic_string@_WU?$char_traits@_W@std@@V?$allocator@_W@2@@std@@V?$shared_ptr@VNameValue@yloader@@@2@@std@@@2@$00@std@@@std@@IEAAPEAV?$_Tree_val@U?$_Tree_simple_types@U?$pair@$$CBV?$basic_string@_WU?$char_traits@_W@std@@V?$allocator@_W@2@@std@@V?$shared_ptr@VNameValue@yloader@@@2@@std@@@std@@@2@XZ 000000018001d890 f i namevalue.obj
 0001:0001c890       ?_Getal@?$_Tree@V?$_Tmap_traits@V?$basic_string@_WU?$char_traits@_W@std@@V?$allocator@_W@2@@std@@V?$shared_ptr@VNameValue@yloader@@@2@U?$less@V?$basic_string@_WU?$char_traits@_W@std@@V?$allocator@_W@2@@std@@@2@V?$allocator@U?$pair@$$CBV?$basic_string@_WU?$char_traits@_W@std@@V?$allocator@_W@2@@std@@V?$shared_ptr@VNameValue@yloader@@@2@@std@@@2@$00@std@@@std@@IEBAAEBV?$allocator@U?$_Tree_node@U?$pair@$$CBV?$basic_string@_WU?$char_traits@_W@std@@V?$allocator@_W@2@@std@@V?$shared_ptr@VNameValue@yloader@@@2@@std@@PEAX@std@@@2@XZ 000000018001d890 f i namevalue.obj
 0001:0001c890       ?_Getal@?$_Tree@V?$_Tmap_traits@V?$basic_string@_WU?$char_traits@_W@std@@V?$allocator@_W@2@@std@@V?$shared_ptr@VNameValue@yloader@@@2@U?$less@V?$basic_string@_WU?$char_traits@_W@std@@V?$allocator@_W@2@@std@@@2@V?$allocator@U?$pair@$$CBV?$basic_string@_WU?$char_traits@_W@std@@V?$allocator@_W@2@@std@@V?$shared_ptr@VNameValue@yloader@@@2@@std@@@2@$00@std@@@std@@IEAAAEAV?$allocator@U?$_Tree_node@U?$pair@$$CBV?$basic_string@_WU?$char_traits@_W@std@@V?$allocator@_W@2@@std@@V?$shared_ptr@VNameValue@yloader@@@2@@std@@PEAX@std@@@2@XZ 000000018001d890 f i namevalue.obj
 0001:0001c890       ?_Getcomp@?$_Tree@V?$_Tmap_traits@V?$basic_string@_WU?$char_traits@_W@std@@V?$allocator@_W@2@@std@@V?$shared_ptr@VNameValue@yloader@@@2@U?$less@V?$basic_string@_WU?$char_traits@_W@std@@V?$allocator@_W@2@@std@@@2@V?$allocator@U?$pair@$$CBV?$basic_string@_WU?$char_traits@_W@std@@V?$allocator@_W@2@@std@@V?$shared_ptr@VNameValue@yloader@@@2@@std@@@2@$00@std@@@std@@IEBAAEBU?$less@V?$basic_string@_WU?$char_traits@_W@std@@V?$allocator@_W@2@@std@@@2@XZ 000000018001d890 f i namevalue.obj
 0001:0001c8a0       ?_Alloc_sentinel_and_proxy@?$_Tree@V?$_Tmap_traits@V?$basic_string@_WU?$char_traits@_W@std@@V?$allocator@_W@2@@std@@V?$shared_ptr@VNameValue@yloader@@@2@U?$less@V?$basic_string@_WU?$char_traits@_W@std@@V?$allocator@_W@2@@std@@@2@V?$allocator@U?$pair@$$CBV?$basic_string@_WU?$char_traits@_W@std@@V?$allocator@_W@2@@std@@V?$shared_ptr@VNameValue@yloader@@@2@@std@@@2@$00@std@@@std@@IEAAXXZ 000000018001d8a0 f i namevalue.obj
 0001:0001c8d0       ?insert@?$_Tree@V?$_Tmap_traits@V?$basic_string@_WU?$char_traits@_W@std@@V?$allocator@_W@2@@std@@V?$shared_ptr@VNameValue@yloader@@@2@U?$less@V?$basic_string@_WU?$char_traits@_W@std@@V?$allocator@_W@2@@std@@@2@V?$allocator@U?$pair@$$CBV?$basic_string@_WU?$char_traits@_W@std@@V?$allocator@_W@2@@std@@V?$shared_ptr@VNameValue@yloader@@@2@@std@@@2@$00@std@@@std@@QEAA?AV?$_Tree_iterator@V?$_Tree_val@U?$_Tree_simple_types@U?$pair@$$CBV?$basic_string@_WU?$char_traits@_W@std@@V?$allocator@_W@2@@std@@V?$shared_ptr@VNameValue@yloader@@@2@@std@@@std@@@std@@@2@V?$_Tree_const_iterator@V?$_Tree_val@U?$_Tree_simple_types@U?$pair@$$CBV?$basic_string@_WU?$char_traits@_W@std@@V?$allocator@_W@2@@std@@V?$shared_ptr@VNameValue@yloader@@@2@@std@@@std@@@std@@@2@$$QEAV?$_Node_handle@U?$_Tree_node@U?$pair@$$CBV?$basic_string@_WU?$char_traits@_W@std@@V?$allocator@_W@2@@std@@V?$shared_ptr@VNameValue@yloader@@@2@@std@@PEAX@std@@V?$allocator@U?$pair@$$CBV?$basic_string@_WU?$char_traits@_W@std@@V?$allocator@_W@2@@std@@V?$shared_ptr@VNameValue@yloader@@@2@@std@@@2@U_Node_handle_map_base@2@V?$basic_string@_WU?$char_traits@_W@std@@V?$allocator@_W@2@@2@V?$shared_ptr@VNameValue@yloader@@@2@@2@@Z 000000018001d8d0 f i namevalue.obj
 0001:0001c980       ?insert@?$_Tree@V?$_Tmap_traits@V?$basic_string@_WU?$char_traits@_W@std@@V?$allocator@_W@2@@std@@V?$shared_ptr@VNameValue@yloader@@@2@U?$less@V?$basic_string@_WU?$char_traits@_W@std@@V?$allocator@_W@2@@std@@@2@V?$allocator@U?$pair@$$CBV?$basic_string@_WU?$char_traits@_W@std@@V?$allocator@_W@2@@std@@V?$shared_ptr@VNameValue@yloader@@@2@@std@@@2@$00@std@@@std@@QEAA@$$QEAV?$_Node_handle@U?$_Tree_node@U?$pair@$$CBV?$basic_string@_WU?$char_traits@_W@std@@V?$allocator@_W@2@@std@@V?$shared_ptr@VNameValue@yloader@@@2@@std@@PEAX@std@@V?$allocator@U?$pair@$$CBV?$basic_string@_WU?$char_traits@_W@std@@V?$allocator@_W@2@@std@@V?$shared_ptr@VNameValue@yloader@@@2@@std@@@2@U_Node_handle_map_base@2@V?$basic_string@_WU?$char_traits@_W@std@@V?$allocator@_W@2@@2@V?$shared_ptr@VNameValue@yloader@@@2@@2@@Z 000000018001d980 f i namevalue.obj
 0001:0001cb20       ?extract@?$_Tree@V?$_Tmap_traits@V?$basic_string@_WU?$char_traits@_W@std@@V?$allocator@_W@2@@std@@V?$shared_ptr@VNameValue@yloader@@@2@U?$less@V?$basic_string@_WU?$char_traits@_W@std@@V?$allocator@_W@2@@std@@@2@V?$allocator@U?$pair@$$CBV?$basic_string@_WU?$char_traits@_W@std@@V?$allocator@_W@2@@std@@V?$shared_ptr@VNameValue@yloader@@@2@@std@@@2@$00@std@@@std@@QEAA?AV?$_Node_handle@U?$_Tree_node@U?$pair@$$CBV?$basic_string@_WU?$char_traits@_W@std@@V?$allocator@_W@2@@std@@V?$shared_ptr@VNameValue@yloader@@@2@@std@@PEAX@std@@V?$allocator@U?$pair@$$CBV?$basic_string@_WU?$char_traits@_W@std@@V?$allocator@_W@2@@std@@V?$shared_ptr@VNameValue@yloader@@@2@@std@@@2@U_Node_handle_map_base@2@V?$basic_string@_WU?$char_traits@_W@std@@V?$allocator@_W@2@@2@V?$shared_ptr@VNameValue@yloader@@@2@@2@AEBV?$basic_string@_WU?$char_traits@_W@std@@V?$allocator@_W@2@@2@@Z 000000018001db20 f i namevalue.obj
 0001:0001cba0       ?extract@?$_Tree@V?$_Tmap_traits@V?$basic_string@_WU?$char_traits@_W@std@@V?$allocator@_W@2@@std@@V?$shared_ptr@VNameValue@yloader@@@2@U?$less@V?$basic_string@_WU?$char_traits@_W@std@@V?$allocator@_W@2@@std@@@2@V?$allocator@U?$pair@$$CBV?$basic_string@_WU?$char_traits@_W@std@@V?$allocator@_W@2@@std@@V?$shared_ptr@VNameValue@yloader@@@2@@std@@@2@$00@std@@@std@@QEAA?AV?$_Node_handle@U?$_Tree_node@U?$pair@$$CBV?$basic_string@_WU?$char_traits@_W@std@@V?$allocator@_W@2@@std@@V?$shared_ptr@VNameValue@yloader@@@2@@std@@PEAX@std@@V?$allocator@U?$pair@$$CBV?$basic_string@_WU?$char_traits@_W@std@@V?$allocator@_W@2@@std@@V?$shared_ptr@VNameValue@yloader@@@2@@std@@@2@U_Node_handle_map_base@2@V?$basic_string@_WU?$char_traits@_W@std@@V?$allocator@_W@2@@2@V?$shared_ptr@VNameValue@yloader@@@2@@2@V?$_Tree_const_iterator@V?$_Tree_val@U?$_Tree_simple_types@U?$pair@$$CBV?$basic_string@_WU?$char_traits@_W@std@@V?$allocator@_W@2@@std@@V?$shared_ptr@VNameValue@yloader@@@2@@std@@@std@@@std@@@2@@Z 000000018001dba0 f i namevalue.obj
 0001:0001cbc0       ?_Check_grow_by_1@?$_Tree@V?$_Tmap_traits@V?$basic_string@_WU?$char_traits@_W@std@@V?$allocator@_W@2@@std@@V?$shared_ptr@VNameValue@yloader@@@2@U?$less@V?$basic_string@_WU?$char_traits@_W@std@@V?$allocator@_W@2@@std@@@2@V?$allocator@U?$pair@$$CBV?$basic_string@_WU?$char_traits@_W@std@@V?$allocator@_W@2@@std@@V?$shared_ptr@VNameValue@yloader@@@2@@std@@@2@$00@std@@@std@@IEAAXXZ 000000018001dbc0 f i namevalue.obj
 0001:0001cbe0       ?equal_range@?$_Tree@V?$_Tmap_traits@V?$basic_string@_WU?$char_traits@_W@std@@V?$allocator@_W@2@@std@@V?$shared_ptr@VNameValue@yloader@@@2@U?$less@V?$basic_string@_WU?$char_traits@_W@std@@V?$allocator@_W@2@@std@@@2@V?$allocator@U?$pair@$$CBV?$basic_string@_WU?$char_traits@_W@std@@V?$allocator@_W@2@@std@@V?$shared_ptr@VNameValue@yloader@@@2@@std@@@2@$00@std@@@std@@QEBA?AU?$pair@V?$_Tree_const_iterator@V?$_Tree_val@U?$_Tree_simple_types@U?$pair@$$CBV?$basic_string@_WU?$char_traits@_W@std@@V?$allocator@_W@2@@std@@V?$shared_ptr@VNameValue@yloader@@@2@@std@@@std@@@std@@@std@@V12@@2@AEBV?$basic_string@_WU?$char_traits@_W@std@@V?$allocator@_W@2@@2@@Z 000000018001dbe0 f i namevalue.obj
 0001:0001cbe0       ?equal_range@?$_Tree@V?$_Tmap_traits@V?$basic_string@_WU?$char_traits@_W@std@@V?$allocator@_W@2@@std@@V?$shared_ptr@VNameValue@yloader@@@2@U?$less@V?$basic_string@_WU?$char_traits@_W@std@@V?$allocator@_W@2@@std@@@2@V?$allocator@U?$pair@$$CBV?$basic_string@_WU?$char_traits@_W@std@@V?$allocator@_W@2@@std@@V?$shared_ptr@VNameValue@yloader@@@2@@std@@@2@$00@std@@@std@@QEAA?AU?$pair@V?$_Tree_iterator@V?$_Tree_val@U?$_Tree_simple_types@U?$pair@$$CBV?$basic_string@_WU?$char_traits@_W@std@@V?$allocator@_W@2@@std@@V?$shared_ptr@VNameValue@yloader@@@2@@std@@@std@@@std@@@std@@V12@@2@AEBV?$basic_string@_WU?$char_traits@_W@std@@V?$allocator@_W@2@@2@@Z 000000018001dbe0 f i namevalue.obj
 0001:0001cc10       ?upper_bound@?$_Tree@V?$_Tmap_traits@V?$basic_string@_WU?$char_traits@_W@std@@V?$allocator@_W@2@@std@@V?$shared_ptr@VNameValue@yloader@@@2@U?$less@V?$basic_string@_WU?$char_traits@_W@std@@V?$allocator@_W@2@@std@@@2@V?$allocator@U?$pair@$$CBV?$basic_string@_WU?$char_traits@_W@std@@V?$allocator@_W@2@@std@@V?$shared_ptr@VNameValue@yloader@@@2@@std@@@2@$00@std@@@std@@QEBA?AV?$_Tree_const_iterator@V?$_Tree_val@U?$_Tree_simple_types@U?$pair@$$CBV?$basic_string@_WU?$char_traits@_W@std@@V?$allocator@_W@2@@std@@V?$shared_ptr@VNameValue@yloader@@@2@@std@@@std@@@std@@@2@AEBV?$basic_string@_WU?$char_traits@_W@std@@V?$allocator@_W@2@@2@@Z 000000018001dc10 f i namevalue.obj
 0001:0001cd10       ?upper_bound@?$_Tree@V?$_Tmap_traits@V?$basic_string@_WU?$char_traits@_W@std@@V?$allocator@_W@2@@std@@V?$shared_ptr@VNameValue@yloader@@@2@U?$less@V?$basic_string@_WU?$char_traits@_W@std@@V?$allocator@_W@2@@std@@@2@V?$allocator@U?$pair@$$CBV?$basic_string@_WU?$char_traits@_W@std@@V?$allocator@_W@2@@std@@V?$shared_ptr@VNameValue@yloader@@@2@@std@@@2@$00@std@@@std@@QEAA?AV?$_Tree_iterator@V?$_Tree_val@U?$_Tree_simple_types@U?$pair@$$CBV?$basic_string@_WU?$char_traits@_W@std@@V?$allocator@_W@2@@std@@V?$shared_ptr@VNameValue@yloader@@@2@@std@@@std@@@std@@@2@AEBV?$basic_string@_WU?$char_traits@_W@std@@V?$allocator@_W@2@@2@@Z 000000018001dd10 f i namevalue.obj
 0001:0001cd40       ?lower_bound@?$_Tree@V?$_Tmap_traits@V?$basic_string@_WU?$char_traits@_W@std@@V?$allocator@_W@2@@std@@V?$shared_ptr@VNameValue@yloader@@@2@U?$less@V?$basic_string@_WU?$char_traits@_W@std@@V?$allocator@_W@2@@std@@@2@V?$allocator@U?$pair@$$CBV?$basic_string@_WU?$char_traits@_W@std@@V?$allocator@_W@2@@std@@V?$shared_ptr@VNameValue@yloader@@@2@@std@@@2@$00@std@@@std@@QEBA?AV?$_Tree_const_iterator@V?$_Tree_val@U?$_Tree_simple_types@U?$pair@$$CBV?$basic_string@_WU?$char_traits@_W@std@@V?$allocator@_W@2@@std@@V?$shared_ptr@VNameValue@yloader@@@2@@std@@@std@@@std@@@2@AEBV?$basic_string@_WU?$char_traits@_W@std@@V?$allocator@_W@2@@2@@Z 000000018001dd40 f i namevalue.obj
 0001:0001ce40       ?lower_bound@?$_Tree@V?$_Tmap_traits@V?$basic_string@_WU?$char_traits@_W@std@@V?$allocator@_W@2@@std@@V?$shared_ptr@VNameValue@yloader@@@2@U?$less@V?$basic_string@_WU?$char_traits@_W@std@@V?$allocator@_W@2@@std@@@2@V?$allocator@U?$pair@$$CBV?$basic_string@_WU?$char_traits@_W@std@@V?$allocator@_W@2@@std@@V?$shared_ptr@VNameValue@yloader@@@2@@std@@@2@$00@std@@@std@@QEAA?AV?$_Tree_iterator@V?$_Tree_val@U?$_Tree_simple_types@U?$pair@$$CBV?$basic_string@_WU?$char_traits@_W@std@@V?$allocator@_W@2@@std@@V?$shared_ptr@VNameValue@yloader@@@2@@std@@@std@@@std@@@2@AEBV?$basic_string@_WU?$char_traits@_W@std@@V?$allocator@_W@2@@2@@Z 000000018001de40 f i namevalue.obj
 0001:0001ce70       ?count@?$_Tree@V?$_Tmap_traits@V?$basic_string@_WU?$char_traits@_W@std@@V?$allocator@_W@2@@std@@V?$shared_ptr@VNameValue@yloader@@@2@U?$less@V?$basic_string@_WU?$char_traits@_W@std@@V?$allocator@_W@2@@std@@@2@V?$allocator@U?$pair@$$CBV?$basic_string@_WU?$char_traits@_W@std@@V?$allocator@_W@2@@std@@V?$shared_ptr@VNameValue@yloader@@@2@@std@@@2@$00@std@@@std@@QEBA_KAEBV?$basic_string@_WU?$char_traits@_W@std@@V?$allocator@_W@2@@2@@Z 000000018001de70 f i namevalue.obj
 0001:0001cf00       ?contains@?$_Tree@V?$_Tmap_traits@V?$basic_string@_WU?$char_traits@_W@std@@V?$allocator@_W@2@@std@@V?$shared_ptr@VNameValue@yloader@@@2@U?$less@V?$basic_string@_WU?$char_traits@_W@std@@V?$allocator@_W@2@@std@@@2@V?$allocator@U?$pair@$$CBV?$basic_string@_WU?$char_traits@_W@std@@V?$allocator@_W@2@@std@@V?$shared_ptr@VNameValue@yloader@@@2@@std@@@2@$00@std@@@std@@QEBA_NAEBV?$basic_string@_WU?$char_traits@_W@std@@V?$allocator@_W@2@@2@@Z 000000018001df00 f i namevalue.obj
 0001:0001cf30       ?find@?$_Tree@V?$_Tmap_traits@V?$basic_string@_WU?$char_traits@_W@std@@V?$allocator@_W@2@@std@@V?$shared_ptr@VNameValue@yloader@@@2@U?$less@V?$basic_string@_WU?$char_traits@_W@std@@V?$allocator@_W@2@@std@@@2@V?$allocator@U?$pair@$$CBV?$basic_string@_WU?$char_traits@_W@std@@V?$allocator@_W@2@@std@@V?$shared_ptr@VNameValue@yloader@@@2@@std@@@2@$00@std@@@std@@QEAA?AV?$_Tree_iterator@V?$_Tree_val@U?$_Tree_simple_types@U?$pair@$$CBV?$basic_string@_WU?$char_traits@_W@std@@V?$allocator@_W@2@@std@@V?$shared_ptr@VNameValue@yloader@@@2@@std@@@std@@@std@@@2@AEBV?$basic_string@_WU?$char_traits@_W@std@@V?$allocator@_W@2@@2@@Z 000000018001df30 f i namevalue.obj
 0001:0001cf30       ?find@?$_Tree@V?$_Tmap_traits@V?$basic_string@_WU?$char_traits@_W@std@@V?$allocator@_W@2@@std@@V?$shared_ptr@VNameValue@yloader@@@2@U?$less@V?$basic_string@_WU?$char_traits@_W@std@@V?$allocator@_W@2@@std@@@2@V?$allocator@U?$pair@$$CBV?$basic_string@_WU?$char_traits@_W@std@@V?$allocator@_W@2@@std@@V?$shared_ptr@VNameValue@yloader@@@2@@std@@@2@$00@std@@@std@@QEBA?AV?$_Tree_const_iterator@V?$_Tree_val@U?$_Tree_simple_types@U?$pair@$$CBV?$basic_string@_WU?$char_traits@_W@std@@V?$allocator@_W@2@@std@@V?$shared_ptr@VNameValue@yloader@@@2@@std@@@std@@@std@@@2@AEBV?$basic_string@_WU?$char_traits@_W@std@@V?$allocator@_W@2@@2@@Z 000000018001df30 f i namevalue.obj
 0001:0001cfa0       ?clear@?$_Tree@V?$_Tmap_traits@V?$basic_string@_WU?$char_traits@_W@std@@V?$allocator@_W@2@@std@@V?$shared_ptr@VNameValue@yloader@@@2@U?$less@V?$basic_string@_WU?$char_traits@_W@std@@V?$allocator@_W@2@@std@@@2@V?$allocator@U?$pair@$$CBV?$basic_string@_WU?$char_traits@_W@std@@V?$allocator@_W@2@@std@@V?$shared_ptr@VNameValue@yloader@@@2@@std@@@2@$00@std@@@std@@QEAAXXZ 000000018001dfa0 f i namevalue.obj
 0001:0001d030       ?erase@?$_Tree@V?$_Tmap_traits@V?$basic_string@_WU?$char_traits@_W@std@@V?$allocator@_W@2@@std@@V?$shared_ptr@VNameValue@yloader@@@2@U?$less@V?$basic_string@_WU?$char_traits@_W@std@@V?$allocator@_W@2@@std@@@2@V?$allocator@U?$pair@$$CBV?$basic_string@_WU?$char_traits@_W@std@@V?$allocator@_W@2@@std@@V?$shared_ptr@VNameValue@yloader@@@2@@std@@@2@$00@std@@@std@@QEAA_KAEBV?$basic_string@_WU?$char_traits@_W@std@@V?$allocator@_W@2@@2@@Z 000000018001e030 f i namevalue.obj
 0001:0001d0d0       ?erase@?$_Tree@V?$_Tmap_traits@V?$basic_string@_WU?$char_traits@_W@std@@V?$allocator@_W@2@@std@@V?$shared_ptr@VNameValue@yloader@@@2@U?$less@V?$basic_string@_WU?$char_traits@_W@std@@V?$allocator@_W@2@@std@@@2@V?$allocator@U?$pair@$$CBV?$basic_string@_WU?$char_traits@_W@std@@V?$allocator@_W@2@@std@@V?$shared_ptr@VNameValue@yloader@@@2@@std@@@2@$00@std@@@std@@QEAA?AV?$_Tree_iterator@V?$_Tree_val@U?$_Tree_simple_types@U?$pair@$$CBV?$basic_string@_WU?$char_traits@_W@std@@V?$allocator@_W@2@@std@@V?$shared_ptr@VNameValue@yloader@@@2@@std@@@std@@@std@@@2@V?$_Tree_const_iterator@V?$_Tree_val@U?$_Tree_simple_types@U?$pair@$$CBV?$basic_string@_WU?$char_traits@_W@std@@V?$allocator@_W@2@@std@@V?$shared_ptr@VNameValue@yloader@@@2@@std@@@std@@@std@@@2@0@Z 000000018001e0d0 f i namevalue.obj
 0001:0001d100       ?erase@?$_Tree@V?$_Tmap_traits@V?$basic_string@_WU?$char_traits@_W@std@@V?$allocator@_W@2@@std@@V?$shared_ptr@VNameValue@yloader@@@2@U?$less@V?$basic_string@_WU?$char_traits@_W@std@@V?$allocator@_W@2@@std@@@2@V?$allocator@U?$pair@$$CBV?$basic_string@_WU?$char_traits@_W@std@@V?$allocator@_W@2@@std@@V?$shared_ptr@VNameValue@yloader@@@2@@std@@@2@$00@std@@@std@@QEAA?AV?$_Tree_iterator@V?$_Tree_val@U?$_Tree_simple_types@U?$pair@$$CBV?$basic_string@_WU?$char_traits@_W@std@@V?$allocator@_W@2@@std@@V?$shared_ptr@VNameValue@yloader@@@2@@std@@@std@@@std@@@2@V?$_Tree_const_iterator@V?$_Tree_val@U?$_Tree_simple_types@U?$pair@$$CBV?$basic_string@_WU?$char_traits@_W@std@@V?$allocator@_W@2@@std@@V?$shared_ptr@VNameValue@yloader@@@2@@std@@@std@@@std@@@2@@Z 000000018001e100 f i namevalue.obj
 0001:0001d1a0       ?_Erase_unchecked@?$_Tree@V?$_Tmap_traits@V?$basic_string@_WU?$char_traits@_W@std@@V?$allocator@_W@2@@std@@V?$shared_ptr@VNameValue@yloader@@@2@U?$less@V?$basic_string@_WU?$char_traits@_W@std@@V?$allocator@_W@2@@std@@@2@V?$allocator@U?$pair@$$CBV?$basic_string@_WU?$char_traits@_W@std@@V?$allocator@_W@2@@std@@V?$shared_ptr@VNameValue@yloader@@@2@@std@@@2@$00@std@@@std@@AEAAPEAU?$_Tree_node@U?$pair@$$CBV?$basic_string@_WU?$char_traits@_W@std@@V?$allocator@_W@2@@std@@V?$shared_ptr@VNameValue@yloader@@@2@@std@@PEAX@2@V?$_Tree_unchecked_const_iterator@V?$_Tree_val@U?$_Tree_simple_types@U?$pair@$$CBV?$basic_string@_WU?$char_traits@_W@std@@V?$allocator@_W@2@@std@@V?$shared_ptr@VNameValue@yloader@@@2@@std@@@std@@@std@@U_Iterator_base0@2@@2@0@Z 000000018001e1a0 f i namevalue.obj
 0001:0001d2d0       ?_Erase_unchecked@?$_Tree@V?$_Tmap_traits@V?$basic_string@_WU?$char_traits@_W@std@@V?$allocator@_W@2@@std@@V?$shared_ptr@VNameValue@yloader@@@2@U?$less@V?$basic_string@_WU?$char_traits@_W@std@@V?$allocator@_W@2@@std@@@2@V?$allocator@U?$pair@$$CBV?$basic_string@_WU?$char_traits@_W@std@@V?$allocator@_W@2@@std@@V?$shared_ptr@VNameValue@yloader@@@2@@std@@@2@$00@std@@@std@@AEAAPEAU?$_Tree_node@U?$pair@$$CBV?$basic_string@_WU?$char_traits@_W@std@@V?$allocator@_W@2@@std@@V?$shared_ptr@VNameValue@yloader@@@2@@std@@PEAX@2@V?$_Tree_unchecked_const_iterator@V?$_Tree_val@U?$_Tree_simple_types@U?$pair@$$CBV?$basic_string@_WU?$char_traits@_W@std@@V?$allocator@_W@2@@std@@V?$shared_ptr@VNameValue@yloader@@@2@@std@@@std@@@std@@U_Iterator_base0@2@@2@@Z 000000018001e2d0 f i namevalue.obj
 0001:0001d360       ?insert@?$_Tree@V?$_Tmap_traits@V?$basic_string@_WU?$char_traits@_W@std@@V?$allocator@_W@2@@std@@V?$shared_ptr@VNameValue@yloader@@@2@U?$less@V?$basic_string@_WU?$char_traits@_W@std@@V?$allocator@_W@2@@std@@@2@V?$allocator@U?$pair@$$CBV?$basic_string@_WU?$char_traits@_W@std@@V?$allocator@_W@2@@std@@V?$shared_ptr@VNameValue@yloader@@@2@@std@@@2@$00@std@@@std@@QEAAXV?$initializer_list@U?$pair@$$CBV?$basic_string@_WU?$char_traits@_W@std@@V?$allocator@_W@2@@std@@V?$shared_ptr@VNameValue@yloader@@@2@@std@@@2@@Z 000000018001e360 f i namevalue.obj
 0001:0001d3c0       ?insert@?$_Tree@V?$_Tmap_traits@V?$basic_string@_WU?$char_traits@_W@std@@V?$allocator@_W@2@@std@@V?$shared_ptr@VNameValue@yloader@@@2@U?$less@V?$basic_string@_WU?$char_traits@_W@std@@V?$allocator@_W@2@@std@@@2@V?$allocator@U?$pair@$$CBV?$basic_string@_WU?$char_traits@_W@std@@V?$allocator@_W@2@@std@@V?$shared_ptr@VNameValue@yloader@@@2@@std@@@2@$00@std@@@std@@QEAA?AV?$_Tree_iterator@V?$_Tree_val@U?$_Tree_simple_types@U?$pair@$$CBV?$basic_string@_WU?$char_traits@_W@std@@V?$allocator@_W@2@@std@@V?$shared_ptr@VNameValue@yloader@@@2@@std@@@std@@@std@@@2@V?$_Tree_const_iterator@V?$_Tree_val@U?$_Tree_simple_types@U?$pair@$$CBV?$basic_string@_WU?$char_traits@_W@std@@V?$allocator@_W@2@@std@@V?$shared_ptr@VNameValue@yloader@@@2@@std@@@std@@@std@@@2@$$QEAU?$pair@$$CBV?$basic_string@_WU?$char_traits@_W@std@@V?$allocator@_W@2@@std@@V?$shared_ptr@VNameValue@yloader@@@2@@2@@Z 000000018001e3c0 f i namevalue.obj
 0001:0001d4b0       ?insert@?$_Tree@V?$_Tmap_traits@V?$basic_string@_WU?$char_traits@_W@std@@V?$allocator@_W@2@@std@@V?$shared_ptr@VNameValue@yloader@@@2@U?$less@V?$basic_string@_WU?$char_traits@_W@std@@V?$allocator@_W@2@@std@@@2@V?$allocator@U?$pair@$$CBV?$basic_string@_WU?$char_traits@_W@std@@V?$allocator@_W@2@@std@@V?$shared_ptr@VNameValue@yloader@@@2@@std@@@2@$00@std@@@std@@QEAA?AV?$_Tree_iterator@V?$_Tree_val@U?$_Tree_simple_types@U?$pair@$$CBV?$basic_string@_WU?$char_traits@_W@std@@V?$allocator@_W@2@@std@@V?$shared_ptr@VNameValue@yloader@@@2@@std@@@std@@@std@@@2@V?$_Tree_const_iterator@V?$_Tree_val@U?$_Tree_simple_types@U?$pair@$$CBV?$basic_string@_WU?$char_traits@_W@std@@V?$allocator@_W@2@@std@@V?$shared_ptr@VNameValue@yloader@@@2@@std@@@std@@@std@@@2@AEBU?$pair@$$CBV?$basic_string@_WU?$char_traits@_W@std@@V?$allocator@_W@2@@std@@V?$shared_ptr@VNameValue@yloader@@@2@@2@@Z 000000018001e4b0 f i namevalue.obj
 0001:0001d4e0       ?get_allocator@?$_Tree@V?$_Tmap_traits@V?$basic_string@_WU?$char_traits@_W@std@@V?$allocator@_W@2@@std@@V?$shared_ptr@VNameValue@yloader@@@2@U?$less@V?$basic_string@_WU?$char_traits@_W@std@@V?$allocator@_W@2@@std@@@2@V?$allocator@U?$pair@$$CBV?$basic_string@_WU?$char_traits@_W@std@@V?$allocator@_W@2@@std@@V?$shared_ptr@VNameValue@yloader@@@2@@std@@@2@$00@std@@@std@@QEBA?AV?$allocator@U?$pair@$$CBV?$basic_string@_WU?$char_traits@_W@std@@V?$allocator@_W@2@@std@@V?$shared_ptr@VNameValue@yloader@@@2@@std@@@2@XZ 000000018001e4e0 f i namevalue.obj
 0001:0001d4e0       ?key_comp@?$_Tree@V?$_Tmap_traits@V?$basic_string@_WU?$char_traits@_W@std@@V?$allocator@_W@2@@std@@V?$shared_ptr@VNameValue@yloader@@@2@U?$less@V?$basic_string@_WU?$char_traits@_W@std@@V?$allocator@_W@2@@std@@@2@V?$allocator@U?$pair@$$CBV?$basic_string@_WU?$char_traits@_W@std@@V?$allocator@_W@2@@std@@V?$shared_ptr@VNameValue@yloader@@@2@@std@@@2@$00@std@@@std@@QEBA?AU?$less@V?$basic_string@_WU?$char_traits@_W@std@@V?$allocator@_W@2@@std@@@2@XZ 000000018001e4e0 f i namevalue.obj
 0001:0001d4e0       ?value_comp@?$_Tree@V?$_Tmap_traits@V?$basic_string@_WU?$char_traits@_W@std@@V?$allocator@_W@2@@std@@V?$shared_ptr@VNameValue@yloader@@@2@U?$less@V?$basic_string@_WU?$char_traits@_W@std@@V?$allocator@_W@2@@std@@@2@V?$allocator@U?$pair@$$CBV?$basic_string@_WU?$char_traits@_W@std@@V?$allocator@_W@2@@std@@V?$shared_ptr@VNameValue@yloader@@@2@@std@@@2@$00@std@@@std@@QEBA?AVvalue_compare@?$_Tmap_traits@V?$basic_string@_WU?$char_traits@_W@std@@V?$allocator@_W@2@@std@@V?$shared_ptr@VNameValue@yloader@@@2@U?$less@V?$basic_string@_WU?$char_traits@_W@std@@V?$allocator@_W@2@@std@@@2@V?$allocator@U?$pair@$$CBV?$basic_string@_WU?$char_traits@_W@std@@V?$allocator@_W@2@@std@@V?$shared_ptr@VNameValue@yloader@@@2@@std@@@2@$00@2@XZ 000000018001e4e0 f i namevalue.obj
 0001:0001d4f0       ?empty@?$_Tree@V?$_Tmap_traits@V?$basic_string@_WU?$char_traits@_W@std@@V?$allocator@_W@2@@std@@V?$shared_ptr@VNameValue@yloader@@@2@U?$less@V?$basic_string@_WU?$char_traits@_W@std@@V?$allocator@_W@2@@std@@@2@V?$allocator@U?$pair@$$CBV?$basic_string@_WU?$char_traits@_W@std@@V?$allocator@_W@2@@std@@V?$shared_ptr@VNameValue@yloader@@@2@@std@@@2@$00@std@@@std@@QEBA_NXZ 000000018001e4f0 f i namevalue.obj
 0001:0001d500       ?max_size@?$_Tree@V?$_Tmap_traits@V?$basic_string@_WU?$char_traits@_W@std@@V?$allocator@_W@2@@std@@V?$shared_ptr@VNameValue@yloader@@@2@U?$less@V?$basic_string@_WU?$char_traits@_W@std@@V?$allocator@_W@2@@std@@@2@V?$allocator@U?$pair@$$CBV?$basic_string@_WU?$char_traits@_W@std@@V?$allocator@_W@2@@std@@V?$shared_ptr@VNameValue@yloader@@@2@@std@@@2@$00@std@@@std@@QEBA_KXZ 000000018001e500 f i namevalue.obj
 0001:0001d510       ?size@?$_Tree@V?$_Tmap_traits@V?$basic_string@_WU?$char_traits@_W@std@@V?$allocator@_W@2@@std@@V?$shared_ptr@VNameValue@yloader@@@2@U?$less@V?$basic_string@_WU?$char_traits@_W@std@@V?$allocator@_W@2@@std@@@2@V?$allocator@U?$pair@$$CBV?$basic_string@_WU?$char_traits@_W@std@@V?$allocator@_W@2@@std@@V?$shared_ptr@VNameValue@yloader@@@2@@std@@@2@$00@std@@@std@@QEBA_KXZ 000000018001e510 f i namevalue.obj
 0001:0001d520       ?cbegin@?$_Tree@V?$_Tmap_traits@V?$basic_string@_WU?$char_traits@_W@std@@V?$allocator@_W@2@@std@@V?$shared_ptr@VNameValue@yloader@@@2@U?$less@V?$basic_string@_WU?$char_traits@_W@std@@V?$allocator@_W@2@@std@@@2@V?$allocator@U?$pair@$$CBV?$basic_string@_WU?$char_traits@_W@std@@V?$allocator@_W@2@@std@@V?$shared_ptr@VNameValue@yloader@@@2@@std@@@2@$00@std@@@std@@QEBA?AV?$_Tree_const_iterator@V?$_Tree_val@U?$_Tree_simple_types@U?$pair@$$CBV?$basic_string@_WU?$char_traits@_W@std@@V?$allocator@_W@2@@std@@V?$shared_ptr@VNameValue@yloader@@@2@@std@@@std@@@std@@@2@XZ 000000018001e520 f i namevalue.obj
 0001:0001d520       ?begin@?$_Tree@V?$_Tmap_traits@V?$basic_string@_WU?$char_traits@_W@std@@V?$allocator@_W@2@@std@@V?$shared_ptr@VNameValue@yloader@@@2@U?$less@V?$basic_string@_WU?$char_traits@_W@std@@V?$allocator@_W@2@@std@@@2@V?$allocator@U?$pair@$$CBV?$basic_string@_WU?$char_traits@_W@std@@V?$allocator@_W@2@@std@@V?$shared_ptr@VNameValue@yloader@@@2@@std@@@2@$00@std@@@std@@QEBA?AV?$_Tree_const_iterator@V?$_Tree_val@U?$_Tree_simple_types@U?$pair@$$CBV?$basic_string@_WU?$char_traits@_W@std@@V?$allocator@_W@2@@std@@V?$shared_ptr@VNameValue@yloader@@@2@@std@@@std@@@std@@@2@XZ 000000018001e520 f i namevalue.obj
 0001:0001d520       ?rend@?$_Tree@V?$_Tmap_traits@V?$basic_string@_WU?$char_traits@_W@std@@V?$allocator@_W@2@@std@@V?$shared_ptr@VNameValue@yloader@@@2@U?$less@V?$basic_string@_WU?$char_traits@_W@std@@V?$allocator@_W@2@@std@@@2@V?$allocator@U?$pair@$$CBV?$basic_string@_WU?$char_traits@_W@std@@V?$allocator@_W@2@@std@@V?$shared_ptr@VNameValue@yloader@@@2@@std@@@2@$00@std@@@std@@QEAA?AV?$reverse_iterator@V?$_Tree_iterator@V?$_Tree_val@U?$_Tree_simple_types@U?$pair@$$CBV?$basic_string@_WU?$char_traits@_W@std@@V?$allocator@_W@2@@std@@V?$shared_ptr@VNameValue@yloader@@@2@@std@@@std@@@std@@@std@@@2@XZ 000000018001e520 f i namevalue.obj
 0001:0001d520       ?rend@?$_Tree@V?$_Tmap_traits@V?$basic_string@_WU?$char_traits@_W@std@@V?$allocator@_W@2@@std@@V?$shared_ptr@VNameValue@yloader@@@2@U?$less@V?$basic_string@_WU?$char_traits@_W@std@@V?$allocator@_W@2@@std@@@2@V?$allocator@U?$pair@$$CBV?$basic_string@_WU?$char_traits@_W@std@@V?$allocator@_W@2@@std@@V?$shared_ptr@VNameValue@yloader@@@2@@std@@@2@$00@std@@@std@@QEBA?AV?$reverse_iterator@V?$_Tree_const_iterator@V?$_Tree_val@U?$_Tree_simple_types@U?$pair@$$CBV?$basic_string@_WU?$char_traits@_W@std@@V?$allocator@_W@2@@std@@V?$shared_ptr@VNameValue@yloader@@@2@@std@@@std@@@std@@@std@@@2@XZ 000000018001e520 f i namevalue.obj
 0001:0001d520       ?_Unchecked_begin@?$_Tree@V?$_Tmap_traits@V?$basic_string@_WU?$char_traits@_W@std@@V?$allocator@_W@2@@std@@V?$shared_ptr@VNameValue@yloader@@@2@U?$less@V?$basic_string@_WU?$char_traits@_W@std@@V?$allocator@_W@2@@std@@@2@V?$allocator@U?$pair@$$CBV?$basic_string@_WU?$char_traits@_W@std@@V?$allocator@_W@2@@std@@V?$shared_ptr@VNameValue@yloader@@@2@@std@@@2@$00@std@@@std@@QEBA?AV?$_Tree_unchecked_const_iterator@V?$_Tree_val@U?$_Tree_simple_types@U?$pair@$$CBV?$basic_string@_WU?$char_traits@_W@std@@V?$allocator@_W@2@@std@@V?$shared_ptr@VNameValue@yloader@@@2@@std@@@std@@@std@@U_Iterator_base0@2@@2@XZ 000000018001e520 f i namevalue.obj
 0001:0001d520       ?_Unchecked_begin@?$_Tree@V?$_Tmap_traits@V?$basic_string@_WU?$char_traits@_W@std@@V?$allocator@_W@2@@std@@V?$shared_ptr@VNameValue@yloader@@@2@U?$less@V?$basic_string@_WU?$char_traits@_W@std@@V?$allocator@_W@2@@std@@@2@V?$allocator@U?$pair@$$CBV?$basic_string@_WU?$char_traits@_W@std@@V?$allocator@_W@2@@std@@V?$shared_ptr@VNameValue@yloader@@@2@@std@@@2@$00@std@@@std@@QEAA?AV?$_Tree_unchecked_iterator@V?$_Tree_val@U?$_Tree_simple_types@U?$pair@$$CBV?$basic_string@_WU?$char_traits@_W@std@@V?$allocator@_W@2@@std@@V?$shared_ptr@VNameValue@yloader@@@2@@std@@@std@@@std@@@2@XZ 000000018001e520 f i namevalue.obj
 0001:0001d520       ?begin@?$_Tree@V?$_Tmap_traits@V?$basic_string@_WU?$char_traits@_W@std@@V?$allocator@_W@2@@std@@V?$shared_ptr@VNameValue@yloader@@@2@U?$less@V?$basic_string@_WU?$char_traits@_W@std@@V?$allocator@_W@2@@std@@@2@V?$allocator@U?$pair@$$CBV?$basic_string@_WU?$char_traits@_W@std@@V?$allocator@_W@2@@std@@V?$shared_ptr@VNameValue@yloader@@@2@@std@@@2@$00@std@@@std@@QEAA?AV?$_Tree_iterator@V?$_Tree_val@U?$_Tree_simple_types@U?$pair@$$CBV?$basic_string@_WU?$char_traits@_W@std@@V?$allocator@_W@2@@std@@V?$shared_ptr@VNameValue@yloader@@@2@@std@@@std@@@std@@@2@XZ 000000018001e520 f i namevalue.obj
 0001:0001d520       ?crend@?$_Tree@V?$_Tmap_traits@V?$basic_string@_WU?$char_traits@_W@std@@V?$allocator@_W@2@@std@@V?$shared_ptr@VNameValue@yloader@@@2@U?$less@V?$basic_string@_WU?$char_traits@_W@std@@V?$allocator@_W@2@@std@@@2@V?$allocator@U?$pair@$$CBV?$basic_string@_WU?$char_traits@_W@std@@V?$allocator@_W@2@@std@@V?$shared_ptr@VNameValue@yloader@@@2@@std@@@2@$00@std@@@std@@QEBA?AV?$reverse_iterator@V?$_Tree_const_iterator@V?$_Tree_val@U?$_Tree_simple_types@U?$pair@$$CBV?$basic_string@_WU?$char_traits@_W@std@@V?$allocator@_W@2@@std@@V?$shared_ptr@VNameValue@yloader@@@2@@std@@@std@@@std@@@std@@@2@XZ 000000018001e520 f i namevalue.obj
 0001:0001d530       ?crbegin@?$_Tree@V?$_Tmap_traits@V?$basic_string@_WU?$char_traits@_W@std@@V?$allocator@_W@2@@std@@V?$shared_ptr@VNameValue@yloader@@@2@U?$less@V?$basic_string@_WU?$char_traits@_W@std@@V?$allocator@_W@2@@std@@@2@V?$allocator@U?$pair@$$CBV?$basic_string@_WU?$char_traits@_W@std@@V?$allocator@_W@2@@std@@V?$shared_ptr@VNameValue@yloader@@@2@@std@@@2@$00@std@@@std@@QEBA?AV?$reverse_iterator@V?$_Tree_const_iterator@V?$_Tree_val@U?$_Tree_simple_types@U?$pair@$$CBV?$basic_string@_WU?$char_traits@_W@std@@V?$allocator@_W@2@@std@@V?$shared_ptr@VNameValue@yloader@@@2@@std@@@std@@@std@@@std@@@2@XZ 000000018001e530 f i namevalue.obj
 0001:0001d530       ?end@?$_Tree@V?$_Tmap_traits@V?$basic_string@_WU?$char_traits@_W@std@@V?$allocator@_W@2@@std@@V?$shared_ptr@VNameValue@yloader@@@2@U?$less@V?$basic_string@_WU?$char_traits@_W@std@@V?$allocator@_W@2@@std@@@2@V?$allocator@U?$pair@$$CBV?$basic_string@_WU?$char_traits@_W@std@@V?$allocator@_W@2@@std@@V?$shared_ptr@VNameValue@yloader@@@2@@std@@@2@$00@std@@@std@@QEBA?AV?$_Tree_const_iterator@V?$_Tree_val@U?$_Tree_simple_types@U?$pair@$$CBV?$basic_string@_WU?$char_traits@_W@std@@V?$allocator@_W@2@@std@@V?$shared_ptr@VNameValue@yloader@@@2@@std@@@std@@@std@@@2@XZ 000000018001e530 f i namevalue.obj
 0001:0001d530       ?end@?$_Tree@V?$_Tmap_traits@V?$basic_string@_WU?$char_traits@_W@std@@V?$allocator@_W@2@@std@@V?$shared_ptr@VNameValue@yloader@@@2@U?$less@V?$basic_string@_WU?$char_traits@_W@std@@V?$allocator@_W@2@@std@@@2@V?$allocator@U?$pair@$$CBV?$basic_string@_WU?$char_traits@_W@std@@V?$allocator@_W@2@@std@@V?$shared_ptr@VNameValue@yloader@@@2@@std@@@2@$00@std@@@std@@QEAA?AV?$_Tree_iterator@V?$_Tree_val@U?$_Tree_simple_types@U?$pair@$$CBV?$basic_string@_WU?$char_traits@_W@std@@V?$allocator@_W@2@@std@@V?$shared_ptr@VNameValue@yloader@@@2@@std@@@std@@@std@@@2@XZ 000000018001e530 f i namevalue.obj
 0001:0001d530       ?rbegin@?$_Tree@V?$_Tmap_traits@V?$basic_string@_WU?$char_traits@_W@std@@V?$allocator@_W@2@@std@@V?$shared_ptr@VNameValue@yloader@@@2@U?$less@V?$basic_string@_WU?$char_traits@_W@std@@V?$allocator@_W@2@@std@@@2@V?$allocator@U?$pair@$$CBV?$basic_string@_WU?$char_traits@_W@std@@V?$allocator@_W@2@@std@@V?$shared_ptr@VNameValue@yloader@@@2@@std@@@2@$00@std@@@std@@QEBA?AV?$reverse_iterator@V?$_Tree_const_iterator@V?$_Tree_val@U?$_Tree_simple_types@U?$pair@$$CBV?$basic_string@_WU?$char_traits@_W@std@@V?$allocator@_W@2@@std@@V?$shared_ptr@VNameValue@yloader@@@2@@std@@@std@@@std@@@std@@@2@XZ 000000018001e530 f i namevalue.obj
 0001:0001d530       ?rbegin@?$_Tree@V?$_Tmap_traits@V?$basic_string@_WU?$char_traits@_W@std@@V?$allocator@_W@2@@std@@V?$shared_ptr@VNameValue@yloader@@@2@U?$less@V?$basic_string@_WU?$char_traits@_W@std@@V?$allocator@_W@2@@std@@@2@V?$allocator@U?$pair@$$CBV?$basic_string@_WU?$char_traits@_W@std@@V?$allocator@_W@2@@std@@V?$shared_ptr@VNameValue@yloader@@@2@@std@@@2@$00@std@@@std@@QEAA?AV?$reverse_iterator@V?$_Tree_iterator@V?$_Tree_val@U?$_Tree_simple_types@U?$pair@$$CBV?$basic_string@_WU?$char_traits@_W@std@@V?$allocator@_W@2@@std@@V?$shared_ptr@VNameValue@yloader@@@2@@std@@@std@@@std@@@std@@@2@XZ 000000018001e530 f i namevalue.obj
 0001:0001d530       ?cend@?$_Tree@V?$_Tmap_traits@V?$basic_string@_WU?$char_traits@_W@std@@V?$allocator@_W@2@@std@@V?$shared_ptr@VNameValue@yloader@@@2@U?$less@V?$basic_string@_WU?$char_traits@_W@std@@V?$allocator@_W@2@@std@@@2@V?$allocator@U?$pair@$$CBV?$basic_string@_WU?$char_traits@_W@std@@V?$allocator@_W@2@@std@@V?$shared_ptr@VNameValue@yloader@@@2@@std@@@2@$00@std@@@std@@QEBA?AV?$_Tree_const_iterator@V?$_Tree_val@U?$_Tree_simple_types@U?$pair@$$CBV?$basic_string@_WU?$char_traits@_W@std@@V?$allocator@_W@2@@std@@V?$shared_ptr@VNameValue@yloader@@@2@@std@@@std@@@std@@@2@XZ 000000018001e530 f i namevalue.obj
 0001:0001d530       ?_Unchecked_end_iter@?$_Tree@V?$_Tmap_traits@V?$basic_string@_WU?$char_traits@_W@std@@V?$allocator@_W@2@@std@@V?$shared_ptr@VNameValue@yloader@@@2@U?$less@V?$basic_string@_WU?$char_traits@_W@std@@V?$allocator@_W@2@@std@@@2@V?$allocator@U?$pair@$$CBV?$basic_string@_WU?$char_traits@_W@std@@V?$allocator@_W@2@@std@@V?$shared_ptr@VNameValue@yloader@@@2@@std@@@2@$00@std@@@std@@QEBA?AV?$_Tree_unchecked_const_iterator@V?$_Tree_val@U?$_Tree_simple_types@U?$pair@$$CBV?$basic_string@_WU?$char_traits@_W@std@@V?$allocator@_W@2@@std@@V?$shared_ptr@VNameValue@yloader@@@2@@std@@@std@@@std@@U_Iterator_base0@2@@2@XZ 000000018001e530 f i namevalue.obj
 0001:0001d540       ?_Unchecked_end@?$_Tree@V?$_Tmap_traits@V?$basic_string@_WU?$char_traits@_W@std@@V?$allocator@_W@2@@std@@V?$shared_ptr@VNameValue@yloader@@@2@U?$less@V?$basic_string@_WU?$char_traits@_W@std@@V?$allocator@_W@2@@std@@@2@V?$allocator@U?$pair@$$CBV?$basic_string@_WU?$char_traits@_W@std@@V?$allocator@_W@2@@std@@V?$shared_ptr@VNameValue@yloader@@@2@@std@@@2@$00@std@@@std@@QEBA?AU_Default_sentinel@2@XZ 000000018001e540 f i namevalue.obj
 0001:0001d550       ?_Copy_assign@?$_Tree@V?$_Tmap_traits@V?$basic_string@_WU?$char_traits@_W@std@@V?$allocator@_W@2@@std@@V?$shared_ptr@VNameValue@yloader@@@2@U?$less@V?$basic_string@_WU?$char_traits@_W@std@@V?$allocator@_W@2@@std@@@2@V?$allocator@U?$pair@$$CBV?$basic_string@_WU?$char_traits@_W@std@@V?$allocator@_W@2@@std@@V?$shared_ptr@VNameValue@yloader@@@2@@std@@@2@$00@std@@@std@@AEAAXAEBV12@U?$integral_constant@_N$00@2@@Z 000000018001e550 f i namevalue.obj
 0001:0001d550       ?_Copy_assign@?$_Tree@V?$_Tmap_traits@V?$basic_string@_WU?$char_traits@_W@std@@V?$allocator@_W@2@@std@@V?$shared_ptr@VNameValue@yloader@@@2@U?$less@V?$basic_string@_WU?$char_traits@_W@std@@V?$allocator@_W@2@@std@@@2@V?$allocator@U?$pair@$$CBV?$basic_string@_WU?$char_traits@_W@std@@V?$allocator@_W@2@@std@@V?$shared_ptr@VNameValue@yloader@@@2@@std@@@2@$00@std@@@std@@AEAAXAEBV12@U?$integral_constant@_N$0A@@2@@Z 000000018001e550 f i namevalue.obj
 0001:0001d580       ?_Swap_val_excluding_comp@?$_Tree@V?$_Tmap_traits@V?$basic_string@_WU?$char_traits@_W@std@@V?$allocator@_W@2@@std@@V?$shared_ptr@VNameValue@yloader@@@2@U?$less@V?$basic_string@_WU?$char_traits@_W@std@@V?$allocator@_W@2@@std@@@2@V?$allocator@U?$pair@$$CBV?$basic_string@_WU?$char_traits@_W@std@@V?$allocator@_W@2@@std@@V?$shared_ptr@VNameValue@yloader@@@2@@std@@@2@$00@std@@@std@@AEAAXAEAV12@@Z 000000018001e580 f i namevalue.obj
 0001:0001d5a0       ?_Move_assign@?$_Tree@V?$_Tmap_traits@V?$basic_string@_WU?$char_traits@_W@std@@V?$allocator@_W@2@@std@@V?$shared_ptr@VNameValue@yloader@@@2@U?$less@V?$basic_string@_WU?$char_traits@_W@std@@V?$allocator@_W@2@@std@@@2@V?$allocator@U?$pair@$$CBV?$basic_string@_WU?$char_traits@_W@std@@V?$allocator@_W@2@@std@@V?$shared_ptr@VNameValue@yloader@@@2@@std@@@2@$00@std@@@std@@AEAAXAEAV12@U?$integral_constant@_N$0A@@2@@Z 000000018001e5a0 f i namevalue.obj
 0001:0001d5a0       ?_Move_assign@?$_Tree@V?$_Tmap_traits@V?$basic_string@_WU?$char_traits@_W@std@@V?$allocator@_W@2@@std@@V?$shared_ptr@VNameValue@yloader@@@2@U?$less@V?$basic_string@_WU?$char_traits@_W@std@@V?$allocator@_W@2@@std@@@2@V?$allocator@U?$pair@$$CBV?$basic_string@_WU?$char_traits@_W@std@@V?$allocator@_W@2@@std@@V?$shared_ptr@VNameValue@yloader@@@2@@std@@@2@$00@std@@@std@@AEAAXAEAV12@U?$integral_constant@_N$00@2@@Z 000000018001e5a0 f i namevalue.obj
 0001:0001d5a0       ?_Move_assign@?$_Tree@V?$_Tmap_traits@V?$basic_string@_WU?$char_traits@_W@std@@V?$allocator@_W@2@@std@@V?$shared_ptr@VNameValue@yloader@@@2@U?$less@V?$basic_string@_WU?$char_traits@_W@std@@V?$allocator@_W@2@@std@@@2@V?$allocator@U?$pair@$$CBV?$basic_string@_WU?$char_traits@_W@std@@V?$allocator@_W@2@@std@@V?$shared_ptr@VNameValue@yloader@@@2@@std@@@2@$00@std@@@std@@AEAAXAEAV12@U_Equal_allocators@2@@Z 000000018001e5a0 f i namevalue.obj
 0001:0001d5e0       ?_Different_allocator_move_construct@?$_Tree@V?$_Tmap_traits@V?$basic_string@_WU?$char_traits@_W@std@@V?$allocator@_W@2@@std@@V?$shared_ptr@VNameValue@yloader@@@2@U?$less@V?$basic_string@_WU?$char_traits@_W@std@@V?$allocator@_W@2@@std@@@2@V?$allocator@U?$pair@$$CBV?$basic_string@_WU?$char_traits@_W@std@@V?$allocator@_W@2@@std@@V?$shared_ptr@VNameValue@yloader@@@2@@std@@@2@$00@std@@@std@@AEAAX$$QEAV12@@Z 000000018001e5e0 f i namevalue.obj
 0001:0001d640       ??1?$_Tree_head_scoped_ptr@V?$allocator@U?$_Tree_node@U?$pair@$$CBV?$basic_string@_WU?$char_traits@_W@std@@V?$allocator@_W@2@@std@@V?$shared_ptr@VNameValue@yloader@@@2@@std@@PEAX@std@@@std@@V?$_Tree_val@U?$_Tree_simple_types@U?$pair@$$CBV?$basic_string@_WU?$char_traits@_W@std@@V?$allocator@_W@2@@std@@V?$shared_ptr@VNameValue@yloader@@@2@@std@@@std@@@2@@std@@QEAA@XZ 000000018001e640 f i namevalue.obj
 0001:0001d660       ?_Tidy@?$vector@V?$shared_ptr@VNameValue@yloader@@@std@@V?$allocator@V?$shared_ptr@VNameValue@yloader@@@std@@@2@@std@@AEAAXXZ 000000018001e660 f i namevalue.obj
 0001:0001d6d0       ?_Buy_raw@?$vector@V?$shared_ptr@VNameValue@yloader@@@std@@V?$allocator@V?$shared_ptr@VNameValue@yloader@@@std@@@2@@std@@AEAAX_K@Z 000000018001e6d0 f i namevalue.obj
 0001:0001d760       ?_Extract@?$_Tree_val@U?$_Tree_simple_types@U?$pair@$$CBV?$basic_string@_WU?$char_traits@_W@std@@V?$allocator@_W@2@@std@@V?$shared_ptr@VNameValue@yloader@@@2@@std@@@std@@@std@@QEAAPEAU?$_Tree_node@U?$pair@$$CBV?$basic_string@_WU?$char_traits@_W@std@@V?$allocator@_W@2@@std@@V?$shared_ptr@VNameValue@yloader@@@2@@std@@PEAX@2@V?$_Tree_unchecked_const_iterator@V?$_Tree_val@U?$_Tree_simple_types@U?$pair@$$CBV?$basic_string@_WU?$char_traits@_W@std@@V?$allocator@_W@2@@std@@V?$shared_ptr@VNameValue@yloader@@@2@@std@@@std@@@std@@U_Iterator_base0@2@@2@@Z 000000018001e760 f i namevalue.obj
 0001:0001dc00       ??$_Eqrange@V?$basic_string@_WU?$char_traits@_W@std@@V?$allocator@_W@2@@std@@@?$_Tree@V?$_Tmap_traits@V?$basic_string@_WU?$char_traits@_W@std@@V?$allocator@_W@2@@std@@V?$shared_ptr@VNameValue@yloader@@@2@U?$less@V?$basic_string@_WU?$char_traits@_W@std@@V?$allocator@_W@2@@std@@@2@V?$allocator@U?$pair@$$CBV?$basic_string@_WU?$char_traits@_W@std@@V?$allocator@_W@2@@std@@V?$shared_ptr@VNameValue@yloader@@@2@@std@@@2@$00@std@@@std@@IEBA?AU?$pair@PEAU?$_Tree_node@U?$pair@$$CBV?$basic_string@_WU?$char_traits@_W@std@@V?$allocator@_W@2@@std@@V?$shared_ptr@VNameValue@yloader@@@2@@std@@PEAX@std@@PEAU12@@1@AEBV?$basic_string@_WU?$char_traits@_W@std@@V?$allocator@_W@2@@1@@Z 000000018001ec00 f i namevalue.obj
 0001:0001de50       ??$_Emplace_reallocate@AEBV?$shared_ptr@VNameValue@yloader@@@std@@@?$vector@V?$shared_ptr@VNameValue@yloader@@@std@@V?$allocator@V?$shared_ptr@VNameValue@yloader@@@std@@@2@@std@@QEAAPEAV?$shared_ptr@VNameValue@yloader@@@1@QEAV21@AEBV21@@Z 000000018001ee50 f i namevalue.obj
 0001:0001e0b0       ??$_Find_hint@V?$basic_string@_WU?$char_traits@_W@std@@V?$allocator@_W@2@@std@@@?$_Tree@V?$_Tmap_traits@V?$basic_string@_WU?$char_traits@_W@std@@V?$allocator@_W@2@@std@@V?$shared_ptr@VNameValue@yloader@@@2@U?$less@V?$basic_string@_WU?$char_traits@_W@std@@V?$allocator@_W@2@@std@@@2@V?$allocator@U?$pair@$$CBV?$basic_string@_WU?$char_traits@_W@std@@V?$allocator@_W@2@@std@@V?$shared_ptr@VNameValue@yloader@@@2@@std@@@2@$00@std@@@std@@IEBA?AU?$_Tree_find_hint_result@PEAU?$_Tree_node@U?$pair@$$CBV?$basic_string@_WU?$char_traits@_W@std@@V?$allocator@_W@2@@std@@V?$shared_ptr@VNameValue@yloader@@@2@@std@@PEAX@std@@@1@QEAU?$_Tree_node@U?$pair@$$CBV?$basic_string@_WU?$char_traits@_W@std@@V?$allocator@_W@2@@std@@V?$shared_ptr@VNameValue@yloader@@@2@@std@@PEAX@1@AEBV?$basic_string@_WU?$char_traits@_W@std@@V?$allocator@_W@2@@1@@Z 000000018001f0b0 f i namevalue.obj
 0001:0001e6b0       ??$_Find_upper_bound@V?$basic_string@_WU?$char_traits@_W@std@@V?$allocator@_W@2@@std@@@?$_Tree@V?$_Tmap_traits@V?$basic_string@_WU?$char_traits@_W@std@@V?$allocator@_W@2@@std@@V?$shared_ptr@VNameValue@yloader@@@2@U?$less@V?$basic_string@_WU?$char_traits@_W@std@@V?$allocator@_W@2@@std@@@2@V?$allocator@U?$pair@$$CBV?$basic_string@_WU?$char_traits@_W@std@@V?$allocator@_W@2@@std@@V?$shared_ptr@VNameValue@yloader@@@2@@std@@@2@$00@std@@@std@@IEBA?AU?$_Tree_find_result@PEAU?$_Tree_node@U?$pair@$$CBV?$basic_string@_WU?$char_traits@_W@std@@V?$allocator@_W@2@@std@@V?$shared_ptr@VNameValue@yloader@@@2@@std@@PEAX@std@@@1@AEBV?$basic_string@_WU?$char_traits@_W@std@@V?$allocator@_W@2@@1@@Z 000000018001f6b0 f i namevalue.obj
 0001:0001e7a0       ??$_Find_lower_bound@V?$basic_string@_WU?$char_traits@_W@std@@V?$allocator@_W@2@@std@@@?$_Tree@V?$_Tmap_traits@V?$basic_string@_WU?$char_traits@_W@std@@V?$allocator@_W@2@@std@@V?$shared_ptr@VNameValue@yloader@@@2@U?$less@V?$basic_string@_WU?$char_traits@_W@std@@V?$allocator@_W@2@@std@@@2@V?$allocator@U?$pair@$$CBV?$basic_string@_WU?$char_traits@_W@std@@V?$allocator@_W@2@@std@@V?$shared_ptr@VNameValue@yloader@@@2@@std@@@2@$00@std@@@std@@IEBA?AU?$_Tree_find_result@PEAU?$_Tree_node@U?$pair@$$CBV?$basic_string@_WU?$char_traits@_W@std@@V?$allocator@_W@2@@std@@V?$shared_ptr@VNameValue@yloader@@@2@@std@@PEAX@std@@@1@AEBV?$basic_string@_WU?$char_traits@_W@std@@V?$allocator@_W@2@@1@@Z 000000018001f7a0 f i namevalue.obj
 0001:0001e890       ??$_Lower_bound_duplicate@V?$basic_string@_WU?$char_traits@_W@std@@V?$allocator@_W@2@@std@@@?$_Tree@V?$_Tmap_traits@V?$basic_string@_WU?$char_traits@_W@std@@V?$allocator@_W@2@@std@@V?$shared_ptr@VNameValue@yloader@@@2@U?$less@V?$basic_string@_WU?$char_traits@_W@std@@V?$allocator@_W@2@@std@@@2@V?$allocator@U?$pair@$$CBV?$basic_string@_WU?$char_traits@_W@std@@V?$allocator@_W@2@@std@@V?$shared_ptr@VNameValue@yloader@@@2@@std@@@2@$00@std@@@std@@IEBA_NQEAU?$_Tree_node@U?$pair@$$CBV?$basic_string@_WU?$char_traits@_W@std@@V?$allocator@_W@2@@std@@V?$shared_ptr@VNameValue@yloader@@@2@@std@@PEAX@1@AEBV?$basic_string@_WU?$char_traits@_W@std@@V?$allocator@_W@2@@1@@Z 000000018001f890 f i namevalue.obj
 0001:0001e920       ??$_Erase_tree_and_orphan@V?$allocator@U?$_Tree_node@U?$pair@$$CBV?$basic_string@_WU?$char_traits@_W@std@@V?$allocator@_W@2@@std@@V?$shared_ptr@VNameValue@yloader@@@2@@std@@PEAX@std@@@std@@@?$_Tree_val@U?$_Tree_simple_types@U?$pair@$$CBV?$basic_string@_WU?$char_traits@_W@std@@V?$allocator@_W@2@@std@@V?$shared_ptr@VNameValue@yloader@@@2@@std@@@std@@@std@@QEAAXAEAV?$allocator@U?$_Tree_node@U?$pair@$$CBV?$basic_string@_WU?$char_traits@_W@std@@V?$allocator@_W@2@@std@@V?$shared_ptr@VNameValue@yloader@@@2@@std@@PEAX@std@@@1@PEAU?$_Tree_node@U?$pair@$$CBV?$basic_string@_WU?$char_traits@_W@std@@V?$allocator@_W@2@@std@@V?$shared_ptr@VNameValue@yloader@@@2@@std@@PEAX@1@@Z 000000018001f920 f i namevalue.obj
 0001:0001e920       ??$_Erase_tree@V?$allocator@U?$_Tree_node@U?$pair@$$CBV?$basic_string@_WU?$char_traits@_W@std@@V?$allocator@_W@2@@std@@V?$shared_ptr@VNameValue@yloader@@@2@@std@@PEAX@std@@@std@@@?$_Tree_val@U?$_Tree_simple_types@U?$pair@$$CBV?$basic_string@_WU?$char_traits@_W@std@@V?$allocator@_W@2@@std@@V?$shared_ptr@VNameValue@yloader@@@2@@std@@@std@@@std@@QEAAXAEAV?$allocator@U?$_Tree_node@U?$pair@$$CBV?$basic_string@_WU?$char_traits@_W@std@@V?$allocator@_W@2@@std@@V?$shared_ptr@VNameValue@yloader@@@2@@std@@PEAX@std@@@1@PEAU?$_Tree_node@U?$pair@$$CBV?$basic_string@_WU?$char_traits@_W@std@@V?$allocator@_W@2@@std@@V?$shared_ptr@VNameValue@yloader@@@2@@std@@PEAX@1@@Z 000000018001f920 f i namevalue.obj
 0001:0001e9a0       ??$_Emplace_hint@AEBU?$pair@$$CBV?$basic_string@_WU?$char_traits@_W@std@@V?$allocator@_W@2@@std@@V?$shared_ptr@VNameValue@yloader@@@2@@std@@@?$_Tree@V?$_Tmap_traits@V?$basic_string@_WU?$char_traits@_W@std@@V?$allocator@_W@2@@std@@V?$shared_ptr@VNameValue@yloader@@@2@U?$less@V?$basic_string@_WU?$char_traits@_W@std@@V?$allocator@_W@2@@std@@@2@V?$allocator@U?$pair@$$CBV?$basic_string@_WU?$char_traits@_W@std@@V?$allocator@_W@2@@std@@V?$shared_ptr@VNameValue@yloader@@@2@@std@@@2@$00@std@@@std@@IEAAPEAU?$_Tree_node@U?$pair@$$CBV?$basic_string@_WU?$char_traits@_W@std@@V?$allocator@_W@2@@std@@V?$shared_ptr@VNameValue@yloader@@@2@@std@@PEAX@1@QEAU21@AEBU?$pair@$$CBV?$basic_string@_WU?$char_traits@_W@std@@V?$allocator@_W@2@@std@@V?$shared_ptr@VNameValue@yloader@@@2@@1@@Z 000000018001f9a0 f i namevalue.obj
 0001:0001eaa0       ??$_Copy@U_Copy_tag@?$_Tree@V?$_Tmap_traits@V?$basic_string@_WU?$char_traits@_W@std@@V?$allocator@_W@2@@std@@V?$shared_ptr@VNameValue@yloader@@@2@U?$less@V?$basic_string@_WU?$char_traits@_W@std@@V?$allocator@_W@2@@std@@@2@V?$allocator@U?$pair@$$CBV?$basic_string@_WU?$char_traits@_W@std@@V?$allocator@_W@2@@std@@V?$shared_ptr@VNameValue@yloader@@@2@@std@@@2@$00@std@@@std@@@?$_Tree@V?$_Tmap_traits@V?$basic_string@_WU?$char_traits@_W@std@@V?$allocator@_W@2@@std@@V?$shared_ptr@VNameValue@yloader@@@2@U?$less@V?$basic_string@_WU?$char_traits@_W@std@@V?$allocator@_W@2@@std@@@2@V?$allocator@U?$pair@$$CBV?$basic_string@_WU?$char_traits@_W@std@@V?$allocator@_W@2@@std@@V?$shared_ptr@VNameValue@yloader@@@2@@std@@@2@$00@std@@@std@@IEAAXAEBV01@U_Copy_tag@01@@Z 000000018001faa0 f i namevalue.obj
 0001:0001eb50       ??$_Erase_head@V?$allocator@U?$_Tree_node@U?$pair@$$CBV?$basic_string@_WU?$char_traits@_W@std@@V?$allocator@_W@2@@std@@V?$shared_ptr@VNameValue@yloader@@@2@@std@@PEAX@std@@@std@@@?$_Tree_val@U?$_Tree_simple_types@U?$pair@$$CBV?$basic_string@_WU?$char_traits@_W@std@@V?$allocator@_W@2@@std@@V?$shared_ptr@VNameValue@yloader@@@2@@std@@@std@@@std@@QEAAXAEAV?$allocator@U?$_Tree_node@U?$pair@$$CBV?$basic_string@_WU?$char_traits@_W@std@@V?$allocator@_W@2@@std@@V?$shared_ptr@VNameValue@yloader@@@2@@std@@PEAX@std@@@1@@Z 000000018001fb50 f i namevalue.obj
 0001:0001ebe0       ??$_Copy@U_Move_tag@?$_Tree@V?$_Tmap_traits@V?$basic_string@_WU?$char_traits@_W@std@@V?$allocator@_W@2@@std@@V?$shared_ptr@VNameValue@yloader@@@2@U?$less@V?$basic_string@_WU?$char_traits@_W@std@@V?$allocator@_W@2@@std@@@2@V?$allocator@U?$pair@$$CBV?$basic_string@_WU?$char_traits@_W@std@@V?$allocator@_W@2@@std@@V?$shared_ptr@VNameValue@yloader@@@2@@std@@@2@$00@std@@@std@@@?$_Tree@V?$_Tmap_traits@V?$basic_string@_WU?$char_traits@_W@std@@V?$allocator@_W@2@@std@@V?$shared_ptr@VNameValue@yloader@@@2@U?$less@V?$basic_string@_WU?$char_traits@_W@std@@V?$allocator@_W@2@@std@@@2@V?$allocator@U?$pair@$$CBV?$basic_string@_WU?$char_traits@_W@std@@V?$allocator@_W@2@@std@@V?$shared_ptr@VNameValue@yloader@@@2@@std@@@2@$00@std@@@std@@IEAAXAEBV01@U_Move_tag@01@@Z 000000018001fbe0 f i namevalue.obj
 0001:0001ec90       ??$_Destroy_range@V?$allocator@V?$shared_ptr@VNameValue@yloader@@@std@@@std@@@std@@YAXPEAV?$shared_ptr@VNameValue@yloader@@@0@QEAV10@AEAV?$allocator@V?$shared_ptr@VNameValue@yloader@@@std@@@0@@Z 000000018001fc90 f i namevalue.obj
 0001:0001ed10       ??1?$_Tree_temp_node@V?$allocator@U?$_Tree_node@U?$pair@$$CBV?$basic_string@_WU?$char_traits@_W@std@@V?$allocator@_W@2@@std@@V?$shared_ptr@VNameValue@yloader@@@2@@std@@PEAX@std@@@std@@@std@@QEAA@XZ 000000018001fd10 f i namevalue.obj
 0001:0001ed50       ?_Destroy@?$_Ref_count@V?$basic_string@_WU?$char_traits@_W@std@@V?$allocator@_W@2@@std@@@std@@EEAAXXZ 000000018001fd50 f i namevalue.obj
 0001:0001edd0       ??1?$_Temporary_owner@V?$basic_string@_WU?$char_traits@_W@std@@V?$allocator@_W@2@@std@@@std@@QEAA@XZ 000000018001fdd0 f i namevalue.obj
 0001:0001ee50       ?_Destroy@?$_Ref_count@VNameValue@yloader@@@std@@EEAAXXZ 000000018001fe50 f i namevalue.obj
 0001:0001ee80       ??1?$_Temporary_owner@VNameValue@yloader@@@std@@QEAA@XZ 000000018001fe80 f i namevalue.obj
 0001:0001eeb0       ??1?$_Tree_temp_node_alloc@V?$allocator@U?$_Tree_node@U?$pair@$$CBV?$basic_string@_WU?$char_traits@_W@std@@V?$allocator@_W@2@@std@@V?$shared_ptr@VNameValue@yloader@@@2@@std@@PEAX@std@@@std@@@std@@QEAA@XZ 000000018001feb0 f i namevalue.obj
 0001:0001eeb0       ??1?$_Alloc_construct_ptr@V?$allocator@U?$_Tree_node@U?$pair@$$CBV?$basic_string@_WU?$char_traits@_W@std@@V?$allocator@_W@2@@std@@V?$shared_ptr@VNameValue@yloader@@@2@@std@@PEAX@std@@@std@@@std@@QEAA@XZ 000000018001feb0 f i namevalue.obj
 0001:0001eed0       ??$_Emplace@U?$pair@$$CBV?$basic_string@_WU?$char_traits@_W@std@@V?$allocator@_W@2@@std@@V?$shared_ptr@VNameValue@yloader@@@2@@std@@@?$_Tree@V?$_Tmap_traits@V?$basic_string@_WU?$char_traits@_W@std@@V?$allocator@_W@2@@std@@V?$shared_ptr@VNameValue@yloader@@@2@U?$less@V?$basic_string@_WU?$char_traits@_W@std@@V?$allocator@_W@2@@std@@@2@V?$allocator@U?$pair@$$CBV?$basic_string@_WU?$char_traits@_W@std@@V?$allocator@_W@2@@std@@V?$shared_ptr@VNameValue@yloader@@@2@@std@@@2@$00@std@@@std@@IEAA?AU?$pair@PEAU?$_Tree_node@U?$pair@$$CBV?$basic_string@_WU?$char_traits@_W@std@@V?$allocator@_W@2@@std@@V?$shared_ptr@VNameValue@yloader@@@2@@std@@PEAX@std@@_N@1@$$QEAU?$pair@$$CBV?$basic_string@_WU?$char_traits@_W@std@@V?$allocator@_W@2@@std@@V?$shared_ptr@VNameValue@yloader@@@2@@1@@Z 000000018001fed0 f i namevalue.obj
 0001:0001f090       ??$_Copy_nodes@U_Copy_tag@?$_Tree@V?$_Tmap_traits@V?$basic_string@_WU?$char_traits@_W@std@@V?$allocator@_W@2@@std@@V?$shared_ptr@VNameValue@yloader@@@2@U?$less@V?$basic_string@_WU?$char_traits@_W@std@@V?$allocator@_W@2@@std@@@2@V?$allocator@U?$pair@$$CBV?$basic_string@_WU?$char_traits@_W@std@@V?$allocator@_W@2@@std@@V?$shared_ptr@VNameValue@yloader@@@2@@std@@@2@$00@std@@@std@@@?$_Tree@V?$_Tmap_traits@V?$basic_string@_WU?$char_traits@_W@std@@V?$allocator@_W@2@@std@@V?$shared_ptr@VNameValue@yloader@@@2@U?$less@V?$basic_string@_WU?$char_traits@_W@std@@V?$allocator@_W@2@@std@@@2@V?$allocator@U?$pair@$$CBV?$basic_string@_WU?$char_traits@_W@std@@V?$allocator@_W@2@@std@@V?$shared_ptr@VNameValue@yloader@@@2@@std@@@2@$00@std@@@std@@IEAAPEAU?$_Tree_node@U?$pair@$$CBV?$basic_string@_WU?$char_traits@_W@std@@V?$allocator@_W@2@@std@@V?$shared_ptr@VNameValue@yloader@@@2@@std@@PEAX@1@PEAU21@0U_Copy_tag@01@@Z 0000000180020090 f i namevalue.obj
 0001:0001f190       ??$_Copy_nodes@U_Move_tag@?$_Tree@V?$_Tmap_traits@V?$basic_string@_WU?$char_traits@_W@std@@V?$allocator@_W@2@@std@@V?$shared_ptr@VNameValue@yloader@@@2@U?$less@V?$basic_string@_WU?$char_traits@_W@std@@V?$allocator@_W@2@@std@@@2@V?$allocator@U?$pair@$$CBV?$basic_string@_WU?$char_traits@_W@std@@V?$allocator@_W@2@@std@@V?$shared_ptr@VNameValue@yloader@@@2@@std@@@2@$00@std@@@std@@@?$_Tree@V?$_Tmap_traits@V?$basic_string@_WU?$char_traits@_W@std@@V?$allocator@_W@2@@std@@V?$shared_ptr@VNameValue@yloader@@@2@U?$less@V?$basic_string@_WU?$char_traits@_W@std@@V?$allocator@_W@2@@std@@@2@V?$allocator@U?$pair@$$CBV?$basic_string@_WU?$char_traits@_W@std@@V?$allocator@_W@2@@std@@V?$shared_ptr@VNameValue@yloader@@@2@@std@@@2@$00@std@@@std@@IEAAPEAU?$_Tree_node@U?$pair@$$CBV?$basic_string@_WU?$char_traits@_W@std@@V?$allocator@_W@2@@std@@V?$shared_ptr@VNameValue@yloader@@@2@@std@@PEAX@1@PEAU21@0U_Move_tag@01@@Z 0000000180020190 f i namevalue.obj
 0001:0001f2a0       ??$_Assign_range@PEAV?$shared_ptr@VNameValue@yloader@@@std@@@?$vector@V?$shared_ptr@VNameValue@yloader@@@std@@V?$allocator@V?$shared_ptr@VNameValue@yloader@@@std@@@2@@std@@AEAAXPEAV?$shared_ptr@VNameValue@yloader@@@1@0Uforward_iterator_tag@1@@Z 00000001800202a0 f i namevalue.obj
 0001:0001f440       ??$_Copy_unchecked@PEAV?$shared_ptr@VNameValue@yloader@@@std@@PEAV12@@std@@YAPEAV?$shared_ptr@VNameValue@yloader@@@0@PEAV10@00@Z 0000000180020440 f i namevalue.obj
 0001:0001f4da       ??1_Lockit@std@@QEAA@XZ    00000001800204da f   msvcprt:MSVCP140.dll
 0001:0001f4e0       ?_Facet_Register@std@@YAXPEAV_Facet_base@1@@Z 00000001800204e0 f   msvcprt:locale0_implib.obj
 0001:0001f518       ??1?$basic_streambuf@DU?$char_traits@D@std@@@std@@UEAA@XZ 0000000180020518 f   msvcprt:MSVCP140.dll
 0001:0001f51e       ?_Lock@?$basic_streambuf@DU?$char_traits@D@std@@@std@@UEAAXXZ 000000018002051e f   msvcprt:MSVCP140.dll
 0001:0001f524       ?_Unlock@?$basic_streambuf@DU?$char_traits@D@std@@@std@@UEAAXXZ 0000000180020524 f   msvcprt:MSVCP140.dll
 0001:0001f52a       ?showmanyc@?$basic_streambuf@DU?$char_traits@D@std@@@std@@MEAA_JXZ 000000018002052a f   msvcprt:MSVCP140.dll
 0001:0001f530       ?uflow@?$basic_streambuf@DU?$char_traits@D@std@@@std@@MEAAHXZ 0000000180020530 f   msvcprt:MSVCP140.dll
 0001:0001f536       ?xsgetn@?$basic_streambuf@DU?$char_traits@D@std@@@std@@MEAA_JPEAD_J@Z 0000000180020536 f   msvcprt:MSVCP140.dll
 0001:0001f53c       ?xsputn@?$basic_streambuf@DU?$char_traits@D@std@@@std@@MEAA_JPEBD_J@Z 000000018002053c f   msvcprt:MSVCP140.dll
 0001:0001f542       ?setbuf@?$basic_streambuf@DU?$char_traits@D@std@@@std@@MEAAPEAV12@PEAD_J@Z 0000000180020542 f   msvcprt:MSVCP140.dll
 0001:0001f548       ?sync@?$basic_streambuf@DU?$char_traits@D@std@@@std@@MEAAHXZ 0000000180020548 f   msvcprt:MSVCP140.dll
 0001:0001f54e       ?imbue@?$basic_streambuf@DU?$char_traits@D@std@@@std@@MEAAXAEBVlocale@2@@Z 000000018002054e f   msvcprt:MSVCP140.dll
 0001:0001f554       ?_Lock@?$basic_streambuf@_WU?$char_traits@_W@std@@@std@@UEAAXXZ 0000000180020554 f   msvcprt:MSVCP140.dll
 0001:0001f55a       ?_Unlock@?$basic_streambuf@_WU?$char_traits@_W@std@@@std@@UEAAXXZ 000000018002055a f   msvcprt:MSVCP140.dll
 0001:0001f560       ?showmanyc@?$basic_streambuf@_WU?$char_traits@_W@std@@@std@@MEAA_JXZ 0000000180020560 f   msvcprt:MSVCP140.dll
 0001:0001f566       ?uflow@?$basic_streambuf@_WU?$char_traits@_W@std@@@std@@MEAAGXZ 0000000180020566 f   msvcprt:MSVCP140.dll
 0001:0001f56c       ?xsgetn@?$basic_streambuf@_WU?$char_traits@_W@std@@@std@@MEAA_JPEA_W_J@Z 000000018002056c f   msvcprt:MSVCP140.dll
 0001:0001f572       ?xsputn@?$basic_streambuf@_WU?$char_traits@_W@std@@@std@@MEAA_JPEB_W_J@Z 0000000180020572 f   msvcprt:MSVCP140.dll
 0001:0001f578       ?setbuf@?$basic_streambuf@_WU?$char_traits@_W@std@@@std@@MEAAPEAV12@PEA_W_J@Z 0000000180020578 f   msvcprt:MSVCP140.dll
 0001:0001f57e       ?sync@?$basic_streambuf@_WU?$char_traits@_W@std@@@std@@MEAAHXZ 000000018002057e f   msvcprt:MSVCP140.dll
 0001:0001f584       ?imbue@?$basic_streambuf@_WU?$char_traits@_W@std@@@std@@MEAAXAEBVlocale@2@@Z 0000000180020584 f   msvcprt:MSVCP140.dll
 0001:0001f58a       ??1facet@locale@std@@MEAA@XZ 000000018002058a f   msvcprt:MSVCP140.dll
 0001:0001f590       ?_Decref@facet@locale@std@@UEAAPEAV_Facet_base@3@XZ 0000000180020590 f   msvcprt:MSVCP140.dll
 0001:0001f596       ?_Incref@facet@locale@std@@UEAAXXZ 0000000180020596 f   msvcprt:MSVCP140.dll
 0001:0001f5b0       __security_check_cookie    00000001800205b0 f   MSVCRT:amdsecgs.obj
 0001:0001f5d0       ??3@YAXPEAX_K@Z            00000001800205d0 f   MSVCRT:delete_scalar_size.obj
 0001:0001f5d0       ??_V@YAXPEAX@Z             00000001800205d0 f   MSVCRT:delete_array.obj
 0001:0001f6d0       _Init_thread_abort         00000001800206d0 f   MSVCRT:thread_safe_statics.obj
 0001:0001f700       _Init_thread_footer        0000000180020700 f   MSVCRT:thread_safe_statics.obj
 0001:0001f760       _Init_thread_header        0000000180020760 f   MSVCRT:thread_safe_statics.obj
 0001:0001f7c8       _Init_thread_notify        00000001800207c8 f   MSVCRT:thread_safe_statics.obj
 0001:0001f80c       _Init_thread_wait          000000018002080c f   MSVCRT:thread_safe_statics.obj
 0001:0001f870       ??2@YAPEAX_K@Z             0000000180020870 f   MSVCRT:new_scalar.obj
 0001:0001f8ac       ??_M@YAXPEAX_K1P6AX0@Z@Z   00000001800208ac f   MSVCRT:ehvecdtr.obj
 0001:0001f918       ?__ArrayUnwind@@YAXPEAX_K1P6AX0@Z@Z 0000000180020918 f   MSVCRT:ehvecdtr.obj
 0001:0001f97c       __scrt_acquire_startup_lock 000000018002097c f   MSVCRT:utility.obj
 0001:0001f9b8       __scrt_dllmain_after_initialize_c 00000001800209b8 f   MSVCRT:utility.obj
 0001:0001f9ec       __scrt_dllmain_before_initialize_c 00000001800209ec f   MSVCRT:utility.obj
 0001:0001fa04       __scrt_dllmain_crt_thread_attach 0000000180020a04 f   MSVCRT:utility.obj
 0001:0001fa2c       __scrt_dllmain_crt_thread_detach 0000000180020a2c f   MSVCRT:utility.obj
 0001:0001fa44       __scrt_dllmain_exception_filter 0000000180020a44 f   MSVCRT:utility.obj
 0001:0001faa4       __scrt_dllmain_uninitialize_c 0000000180020aa4 f   MSVCRT:utility.obj
 0001:0001fad4       __scrt_dllmain_uninitialize_critical 0000000180020ad4 f   MSVCRT:utility.obj
 0001:0001fae8       __scrt_initialize_crt      0000000180020ae8 f   MSVCRT:utility.obj
 0001:0001fb34       __scrt_initialize_onexit_tables 0000000180020b34 f   MSVCRT:utility.obj
 0001:0001fbc0       __scrt_is_nonwritable_in_current_image 0000000180020bc0 f   MSVCRT:utility.obj
 0001:0001fc58       __scrt_release_startup_lock 0000000180020c58 f   MSVCRT:utility.obj
 0001:0001fc7c       __scrt_uninitialize_crt    0000000180020c7c f   MSVCRT:utility.obj
 0001:0001fca8       _onexit                    0000000180020ca8 f   MSVCRT:utility.obj
 0001:0001fce4       atexit                     0000000180020ce4 f   MSVCRT:utility.obj
 0001:0001fcfc       ??3@YAXPEAX@Z              0000000180020cfc f   MSVCRT:delete_scalar.obj
 0001:0001fd04       ??_U@YAPEAX_K@Z            0000000180020d04 f   MSVCRT:new_array.obj
 0001:0001fd0c       ??_Gtype_info@@UEAAPEAXI@Z 0000000180020d0c f i MSVCRT:std_type_info_static.obj
 0001:0001fd0c       ??_Etype_info@@UEAAPEAXI@Z 0000000180020d0c f i MSVCRT:std_type_info_static.obj
 0001:00020058       _DllMainCRTStartup         0000000180021058 f   MSVCRT:dll_dllmain.obj
 0001:00020098       __raise_securityfailure    0000000180021098 f   MSVCRT:gs_report.obj
 0001:000200cc       __report_gsfailure         00000001800210cc f   MSVCRT:gs_report.obj
 0001:00020214       __crt_debugger_hook        0000000180021214 f   MSVCRT:utility_desktop.obj
 0001:0002021c       __scrt_fastfail            000000018002121c f   MSVCRT:utility_desktop.obj
 0001:00020368       ?__scrt_throw_std_bad_alloc@@YAXXZ 0000000180021368 f   MSVCRT:throw_bad_alloc.obj
 0001:00020388       __isa_available_init       0000000180021388 f   MSVCRT:cpu_disp.obj
 0001:0002052c       __scrt_is_ucrt_dll_in_use  000000018002152c f   MSVCRT:ucrt_detection.obj
 0001:00020538       __security_init_cookie     0000000180021538 f   MSVCRT:gs_support.obj
 0001:000205e4       ?__scrt_initialize_type_info@@YAXXZ 00000001800215e4 f   MSVCRT:tncleanup.obj
 0001:000205f4       ?__scrt_uninitialize_type_info@@YAXXZ 00000001800215f4 f   MSVCRT:tncleanup.obj
 0001:00020600       __local_stdio_scanf_options 0000000180021600 f i MSVCRT:default_local_stdio_options.obj
 0001:00020608       __scrt_initialize_default_local_stdio_options 0000000180021608 f   MSVCRT:default_local_stdio_options.obj
 0001:00020624       __scrt_get_dyn_tls_init_callback 0000000180021624 f   MSVCRT:dyn_tls_init.obj
 0001:0002062c       _RTC_Initialize            000000018002162c f   MSVCRT:initsect.obj
 0001:00020668       _RTC_Terminate             0000000180021668 f   MSVCRT:initsect.obj
 0001:000206b0       __CxxFrameHandler4         00000001800216b0 f   vcruntime:VCRUNTIME140_1.dll
 0001:000206b6       _purecall                  00000001800216b6 f   vcruntime:VCRUNTIME140.dll
 0001:000206bc       __std_terminate            00000001800216bc f   vcruntime:VCRUNTIME140.dll
 0001:000206c2       __current_exception        00000001800216c2 f   vcruntime:VCRUNTIME140.dll
 0001:000206c8       __current_exception_context 00000001800216c8 f   vcruntime:VCRUNTIME140.dll
 0001:000206ce       __C_specific_handler       00000001800216ce f   vcruntime:VCRUNTIME140.dll
 0001:000206d4       memset                     00000001800216d4 f   vcruntime:VCRUNTIME140.dll
 0001:000206da       _CxxThrowException         00000001800216da f   vcruntime:VCRUNTIME140.dll
 0001:000206e0       __std_type_info_destroy_list 00000001800216e0 f   vcruntime:VCRUNTIME140.dll
 0001:000206e6       free                       00000001800216e6 f   ucrt:api-ms-win-crt-heap-l1-1-0.dll
 0001:000206ec       _callnewh                  00000001800216ec f   ucrt:api-ms-win-crt-heap-l1-1-0.dll
 0001:000206f2       malloc                     00000001800216f2 f   ucrt:api-ms-win-crt-heap-l1-1-0.dll
 0001:000206f8       terminate                  00000001800216f8 f   ucrt:api-ms-win-crt-runtime-l1-1-0.dll
 0001:000206fe       _seh_filter_dll            00000001800216fe f   ucrt:api-ms-win-crt-runtime-l1-1-0.dll
 0001:00020704       _configure_narrow_argv     0000000180021704 f   ucrt:api-ms-win-crt-runtime-l1-1-0.dll
 0001:0002070a       _initialize_narrow_environment 000000018002170a f   ucrt:api-ms-win-crt-runtime-l1-1-0.dll
 0001:00020710       _initialize_onexit_table   0000000180021710 f   ucrt:api-ms-win-crt-runtime-l1-1-0.dll
 0001:00020716       _register_onexit_function  0000000180021716 f   ucrt:api-ms-win-crt-runtime-l1-1-0.dll
 0001:0002071c       _execute_onexit_table      000000018002171c f   ucrt:api-ms-win-crt-runtime-l1-1-0.dll
 0001:00020722       _crt_atexit                0000000180021722 f   ucrt:api-ms-win-crt-runtime-l1-1-0.dll
 0001:00020728       _cexit                     0000000180021728 f   ucrt:api-ms-win-crt-runtime-l1-1-0.dll
 0001:0002072e       _initterm                  000000018002172e f   ucrt:api-ms-win-crt-runtime-l1-1-0.dll
 0001:00020734       _initterm_e                0000000180021734 f   ucrt:api-ms-win-crt-runtime-l1-1-0.dll
 0001:00020800       ?on_process_enter@boost@@YAXXZ 0000000180021800 f   libboost_thread-vc142-mt-x64-1_80:thread.obj
 0001:00020800       ?tss_cleanup_implemented@boost@@YAXXZ 0000000180021800 f   libboost_thread-vc142-mt-x64-1_80:tss_pe.obj
 0001:00020810       ??1?$intrusive_ptr@Uthread_data_base@detail@boost@@@boost@@QEAA@XZ 0000000180021810 f i libboost_thread-vc142-mt-x64-1_80:thread.obj
 0001:00020860       ??1once_context@detail@boost@@QEAA@XZ 0000000180021860 f i libboost_thread-vc142-mt-x64-1_80:thread.obj
 0001:00020880       ?_Erase_unchecked@?$_Tree@V?$_Tmap_traits@PEBXUtss_data_node@detail@boost@@U?$less@PEBX@std@@V?$allocator@U?$pair@QEBXUtss_data_node@detail@boost@@@std@@@5@$0A@@std@@@std@@AEAAPEAU?$_Tree_node@U?$pair@QEBXUtss_data_node@detail@boost@@@std@@PEAX@2@V?$_Tree_unchecked_const_iterator@V?$_Tree_val@U?$_Tree_simple_types@U?$pair@QEBXUtss_data_node@detail@boost@@@std@@@std@@@std@@U_Iterator_base0@2@@2@@Z 0000000180021880 f i libboost_thread-vc142-mt-x64-1_80:thread.obj
 0001:000208f0       ?_Extract@?$_Tree_val@U?$_Tree_simple_types@U?$pair@QEBXUtss_data_node@detail@boost@@@std@@@std@@@std@@QEAAPEAU?$_Tree_node@U?$pair@QEBXUtss_data_node@detail@boost@@@std@@PEAX@2@V?$_Tree_unchecked_const_iterator@V?$_Tree_val@U?$_Tree_simple_types@U?$pair@QEBXUtss_data_node@detail@boost@@@std@@@std@@@std@@U_Iterator_base0@2@@2@@Z 00000001800218f0 f i libboost_thread-vc142-mt-x64-1_80:thread.obj
 0001:00020c90       ?_Lrotate@?$_Tree_val@U?$_Tree_simple_types@U?$pair@QEBXUtss_data_node@detail@boost@@@std@@@std@@@std@@QEAAXPEAU?$_Tree_node@U?$pair@QEBXUtss_data_node@detail@boost@@@std@@PEAX@2@@Z 0000000180021c90 f i libboost_thread-vc142-mt-x64-1_80:thread.obj
 0001:00020cf0       ?_Rrotate@?$_Tree_val@U?$_Tree_simple_types@U?$pair@QEBXUtss_data_node@detail@boost@@@std@@@std@@@std@@QEAAXPEAU?$_Tree_node@U?$pair@QEBXUtss_data_node@detail@boost@@@std@@PEAX@2@@Z 0000000180021cf0 f i libboost_thread-vc142-mt-x64-1_80:thread.obj
 0001:00020d50       ?call_once@boost@@YAXAEAUonce_flag@1@P6AXXZ@Z 0000000180021d50 f i libboost_thread-vc142-mt-x64-1_80:thread.obj
 0001:00020fa0       ?name_once_mutex@detail@boost@@YAXPEADPEAX@Z 0000000180021fa0 f i libboost_thread-vc142-mt-x64-1_80:thread.obj
 0001:00021080       ?on_process_exit@boost@@YAXXZ 0000000180022080 f   libboost_thread-vc142-mt-x64-1_80:thread.obj
 0001:000210b0       ?on_thread_exit@boost@@YAXXZ 00000001800220b0 f   libboost_thread-vc142-mt-x64-1_80:thread.obj
 0001:000210c0       ?rollback_once_region@detail@boost@@YAXAEAUonce_flag@2@AEAUonce_context@12@@Z 00000001800220c0 f i libboost_thread-vc142-mt-x64-1_80:thread.obj
 0001:000212a0       __GSHandlerCheck           00000001800222a0 f   MSVCRT:gshandler.obj
 0001:000212c0       __GSHandlerCheckCommon     00000001800222c0 f   MSVCRT:gshandler.obj
 0001:0002131c       __GSHandlerCheck_EH4       000000018002231c f   MSVCRT:gshandlereh4.obj
 0001:0002139b       memcpy                     000000018002239b f   vcruntime:VCRUNTIME140.dll
 0001:000213a1       memmove                    00000001800223a1 f   vcruntime:VCRUNTIME140.dll
 0001:000213a8       __acrt_uninitialize_critical 00000001800223a8 f   MSVCRT:ucrt_stubs.obj
 0001:000213a8       __vcrt_thread_attach       00000001800223a8 f   MSVCRT:ucrt_stubs.obj
 0001:000213a8       __acrt_initialize          00000001800223a8 f   MSVCRT:ucrt_stubs.obj
 0001:000213a8       __scrt_stub_for_acrt_initialize 00000001800223a8 f   MSVCRT:ucrt_stubs.obj
 0001:000213a8       __acrt_uninitialize        00000001800223a8 f   MSVCRT:ucrt_stubs.obj
 0001:000213a8       __vcrt_thread_detach       00000001800223a8 f   MSVCRT:ucrt_stubs.obj
 0001:000213a8       __vcrt_initialize          00000001800223a8 f   MSVCRT:ucrt_stubs.obj
 0001:000213a8       __scrt_stub_for_acrt_thread_attach 00000001800223a8 f   MSVCRT:ucrt_stubs.obj
 0001:000213a8       __vcrt_uninitialize_critical 00000001800223a8 f   MSVCRT:ucrt_stubs.obj
 0001:000213a8       __acrt_thread_attach       00000001800223a8 f   MSVCRT:ucrt_stubs.obj
 0001:000213a8       __scrt_stub_for_acrt_uninitialize 00000001800223a8 f   MSVCRT:ucrt_stubs.obj
 0001:000213a8       __acrt_thread_detach       00000001800223a8 f   MSVCRT:ucrt_stubs.obj
 0001:000213a8       __scrt_stub_for_acrt_uninitialize_critical 00000001800223a8 f   MSVCRT:ucrt_stubs.obj
 0001:000213a8       __scrt_stub_for_acrt_thread_detach 00000001800223a8 f   MSVCRT:ucrt_stubs.obj
 0001:000213a8       __vcrt_uninitialize        00000001800223a8 f   MSVCRT:ucrt_stubs.obj
 0001:000213ab       __RTDynamicCast            00000001800223ab f   vcruntime:VCRUNTIME140.dll
 0001:000213b1       memchr                     00000001800223b1 f   vcruntime:VCRUNTIME140.dll
 0001:000213b7       memcmp                     00000001800223b7 f   vcruntime:VCRUNTIME140.dll
 0001:000213bd       fmod                       00000001800223bd f   ucrt:api-ms-win-crt-math-l1-1-0.dll
 0001:000213e0       _guard_dispatch_icall_nop  00000001800223e0 f   MSVCRT:guard_dispatch.obj
 0001:00021400       _guard_xfg_dispatch_icall_nop 0000000180022400 f   MSVCRT:guard_xfg_dispatch.obj
 0001:00023000       ??__Fmonth_map@?6???$month_str_to_ushort@Vgreg_month@gregorian@boost@@@date_time@boost@@YAGAEBV?$basic_string@DU?$char_traits@D@std@@V?$allocator@D@2@@std@@@Z@YAXXZ 0000000180024000 f i misc.obj
 0002:00000000       __imp_MultiByteToWideChar  0000000180025000     kernel32:KERNEL32.dll
 0002:00000008       __imp_SetEvent             0000000180025008     kernel32:KERNEL32.dll
 0002:00000010       __imp_CloseHandle          0000000180025010     kernel32:KERNEL32.dll
 0002:00000018       __imp_WideCharToMultiByte  0000000180025018     kernel32:KERNEL32.dll
 0002:00000020       __imp_GetSystemTimeAsFileTime 0000000180025020     kernel32:KERNEL32.dll
 0002:00000028       __imp_CreateEventA         0000000180025028     kernel32:KERNEL32.dll
 0002:00000030       __imp_LeaveCriticalSection 0000000180025030     kernel32:KERNEL32.dll
 0002:00000038       __imp_InitializeCriticalSectionAndSpinCount 0000000180025038     kernel32:KERNEL32.dll
 0002:00000040       __imp_DeleteCriticalSection 0000000180025040     kernel32:KERNEL32.dll
 0002:00000048       __imp_ResetEvent           0000000180025048     kernel32:KERNEL32.dll
 0002:00000050       __imp_WaitForSingleObjectEx 0000000180025050     kernel32:KERNEL32.dll
 0002:00000058       __imp_CreateEventW         0000000180025058     kernel32:KERNEL32.dll
 0002:00000060       __imp_GetModuleHandleW     0000000180025060     kernel32:KERNEL32.dll
 0002:00000068       __imp_GetProcAddress       0000000180025068     kernel32:KERNEL32.dll
 0002:00000070       __imp_RtlCaptureContext    0000000180025070     kernel32:KERNEL32.dll
 0002:00000078       __imp_RtlLookupFunctionEntry 0000000180025078     kernel32:KERNEL32.dll
 0002:00000080       __imp_RtlVirtualUnwind     0000000180025080     kernel32:KERNEL32.dll
 0002:00000088       __imp_UnhandledExceptionFilter 0000000180025088     kernel32:KERNEL32.dll
 0002:00000090       __imp_SetUnhandledExceptionFilter 0000000180025090     kernel32:KERNEL32.dll
 0002:00000098       __imp_GetCurrentProcess    0000000180025098     kernel32:KERNEL32.dll
 0002:000000a0       __imp_TerminateProcess     00000001800250a0     kernel32:KERNEL32.dll
 0002:000000a8       __imp_IsProcessorFeaturePresent 00000001800250a8     kernel32:KERNEL32.dll
 0002:000000b0       __imp_IsDebuggerPresent    00000001800250b0     kernel32:KERNEL32.dll
 0002:000000b8       __imp_QueryPerformanceCounter 00000001800250b8     kernel32:KERNEL32.dll
 0002:000000c0       __imp_GetCurrentProcessId  00000001800250c0     kernel32:KERNEL32.dll
 0002:000000c8       __imp_GetCurrentThreadId   00000001800250c8     kernel32:KERNEL32.dll
 0002:000000d0       __imp_InitializeSListHead  00000001800250d0     kernel32:KERNEL32.dll
 0002:000000d8       __imp_HeapFree             00000001800250d8     kernel32:KERNEL32.dll
 0002:000000e0       __imp_GetProcessHeap       00000001800250e0     kernel32:KERNEL32.dll
 0002:000000e8       __imp_OpenEventA           00000001800250e8     kernel32:KERNEL32.dll
 0002:000000f0       __imp_TlsAlloc             00000001800250f0     kernel32:KERNEL32.dll
 0002:000000f8       __imp_TlsGetValue          00000001800250f8     kernel32:KERNEL32.dll
 0002:00000100       __imp_TlsSetValue          0000000180025100     kernel32:KERNEL32.dll
 0002:00000108       __imp_TlsFree              0000000180025108     kernel32:KERNEL32.dll
 0002:00000110       __imp_EnterCriticalSection 0000000180025110     kernel32:KERNEL32.dll
 0002:00000118       \177KERNEL32_NULL_THUNK_DATA 0000000180025118     kernel32:KERNEL32.dll
 0002:00000120       __imp_?_Pninc@?$basic_streambuf@DU?$char_traits@D@std@@@std@@IEAAPEADXZ 0000000180025120     msvcprt:MSVCP140.dll
 0002:00000128       __imp_?_Pninc@?$basic_streambuf@_WU?$char_traits@_W@std@@@std@@IEAAPEA_WXZ 0000000180025128     msvcprt:MSVCP140.dll
 0002:00000130       __imp_??0?$basic_ios@DU?$char_traits@D@std@@@std@@IEAA@XZ 0000000180025130     msvcprt:MSVCP140.dll
 0002:00000138       __imp_?setstate@?$basic_ios@_WU?$char_traits@_W@std@@@std@@QEAAXH_N@Z 0000000180025138     msvcprt:MSVCP140.dll
 0002:00000140       __imp_??0?$basic_ios@_WU?$char_traits@_W@std@@@std@@IEAA@XZ 0000000180025140     msvcprt:MSVCP140.dll
 0002:00000148       __imp_??0?$basic_ostream@_WU?$char_traits@_W@std@@@std@@QEAA@PEAV?$basic_streambuf@_WU?$char_traits@_W@std@@@1@_N@Z 0000000180025148     msvcprt:MSVCP140.dll
 0002:00000150       __imp_??1?$basic_streambuf@DU?$char_traits@D@std@@@std@@UEAA@XZ 0000000180025150     msvcprt:MSVCP140.dll
 0002:00000158       __imp_?_Lock@?$basic_streambuf@DU?$char_traits@D@std@@@std@@UEAAXXZ 0000000180025158     msvcprt:MSVCP140.dll
 0002:00000160       __imp_?_Unlock@?$basic_streambuf@DU?$char_traits@D@std@@@std@@UEAAXXZ 0000000180025160     msvcprt:MSVCP140.dll
 0002:00000168       __imp_?showmanyc@?$basic_streambuf@DU?$char_traits@D@std@@@std@@MEAA_JXZ 0000000180025168     msvcprt:MSVCP140.dll
 0002:00000170       __imp_?uflow@?$basic_streambuf@DU?$char_traits@D@std@@@std@@MEAAHXZ 0000000180025170     msvcprt:MSVCP140.dll
 0002:00000178       __imp_?xsgetn@?$basic_streambuf@DU?$char_traits@D@std@@@std@@MEAA_JPEAD_J@Z 0000000180025178     msvcprt:MSVCP140.dll
 0002:00000180       __imp_?xsputn@?$basic_streambuf@DU?$char_traits@D@std@@@std@@MEAA_JPEBD_J@Z 0000000180025180     msvcprt:MSVCP140.dll
 0002:00000188       __imp_?setbuf@?$basic_streambuf@DU?$char_traits@D@std@@@std@@MEAAPEAV12@PEAD_J@Z 0000000180025188     msvcprt:MSVCP140.dll
 0002:00000190       __imp_?sync@?$basic_streambuf@DU?$char_traits@D@std@@@std@@MEAAHXZ 0000000180025190     msvcprt:MSVCP140.dll
 0002:00000198       __imp_?imbue@?$basic_streambuf@DU?$char_traits@D@std@@@std@@MEAAXAEBVlocale@2@@Z 0000000180025198     msvcprt:MSVCP140.dll
 0002:000001a0       __imp_?_Lock@?$basic_streambuf@_WU?$char_traits@_W@std@@@std@@UEAAXXZ 00000001800251a0     msvcprt:MSVCP140.dll
 0002:000001a8       __imp_?_Unlock@?$basic_streambuf@_WU?$char_traits@_W@std@@@std@@UEAAXXZ 00000001800251a8     msvcprt:MSVCP140.dll
 0002:000001b0       __imp_?showmanyc@?$basic_streambuf@_WU?$char_traits@_W@std@@@std@@MEAA_JXZ 00000001800251b0     msvcprt:MSVCP140.dll
 0002:000001b8       __imp_?uflow@?$basic_streambuf@_WU?$char_traits@_W@std@@@std@@MEAAGXZ 00000001800251b8     msvcprt:MSVCP140.dll
 0002:000001c0       __imp_?xsgetn@?$basic_streambuf@_WU?$char_traits@_W@std@@@std@@MEAA_JPEA_W_J@Z 00000001800251c0     msvcprt:MSVCP140.dll
 0002:000001c8       __imp_?xsputn@?$basic_streambuf@_WU?$char_traits@_W@std@@@std@@MEAA_JPEB_W_J@Z 00000001800251c8     msvcprt:MSVCP140.dll
 0002:000001d0       __imp_?setbuf@?$basic_streambuf@_WU?$char_traits@_W@std@@@std@@MEAAPEAV12@PEA_W_J@Z 00000001800251d0     msvcprt:MSVCP140.dll
 0002:000001d8       __imp_?sync@?$basic_streambuf@_WU?$char_traits@_W@std@@@std@@MEAAHXZ 00000001800251d8     msvcprt:MSVCP140.dll
 0002:000001e0       __imp_?imbue@?$basic_streambuf@_WU?$char_traits@_W@std@@@std@@MEAAXAEBVlocale@2@@Z 00000001800251e0     msvcprt:MSVCP140.dll
 0002:000001e8       __imp_??1?$basic_ios@DU?$char_traits@D@std@@@std@@UEAA@XZ 00000001800251e8     msvcprt:MSVCP140.dll
 0002:000001f0       __imp_??1?$basic_ios@_WU?$char_traits@_W@std@@@std@@UEAA@XZ 00000001800251f0     msvcprt:MSVCP140.dll
 0002:000001f8       __imp_??1?$basic_ostream@_WU?$char_traits@_W@std@@@std@@UEAA@XZ 00000001800251f8     msvcprt:MSVCP140.dll
 0002:00000200       __imp_??6?$basic_ostream@_WU?$char_traits@_W@std@@@std@@QEAAAEAV01@I@Z 0000000180025200     msvcprt:MSVCP140.dll
 0002:00000208       __imp_??1?$basic_iostream@DU?$char_traits@D@std@@@std@@UEAA@XZ 0000000180025208     msvcprt:MSVCP140.dll
 0002:00000210       __imp_?getloc@ios_base@std@@QEBA?AVlocale@2@XZ 0000000180025210     msvcprt:MSVCP140.dll
 0002:00000218       __imp_?exceptions@ios_base@std@@QEAAXH@Z 0000000180025218     msvcprt:MSVCP140.dll
 0002:00000220       __imp_?_Getcat@?$ctype@_W@std@@SA_KPEAPEBVfacet@locale@2@PEBV42@@Z 0000000180025220     msvcprt:MSVCP140.dll
 0002:00000228       __imp_?narrow@?$ctype@_W@std@@QEBAD_WD@Z 0000000180025228     msvcprt:MSVCP140.dll
 0002:00000230       __imp_?widen@?$ctype@_W@std@@QEBA_WD@Z 0000000180025230     msvcprt:MSVCP140.dll
 0002:00000238       __imp_?is@?$ctype@_W@std@@QEBA_NF_W@Z 0000000180025238     msvcprt:MSVCP140.dll
 0002:00000240       __imp_?_Getcat@?$ctype@D@std@@SA_KPEAPEBVfacet@locale@2@PEBV42@@Z 0000000180025240     msvcprt:MSVCP140.dll
 0002:00000248       __imp_?tolower@?$ctype@D@std@@QEBADD@Z 0000000180025248     msvcprt:MSVCP140.dll
 0002:00000250       __imp_??1facet@locale@std@@MEAA@XZ 0000000180025250     msvcprt:MSVCP140.dll
 0002:00000258       __imp_??0facet@locale@std@@IEAA@_K@Z 0000000180025258     msvcprt:MSVCP140.dll
 0002:00000260       __imp_?_Decref@facet@locale@std@@UEAAPEAV_Facet_base@3@XZ 0000000180025260     msvcprt:MSVCP140.dll
 0002:00000268       __imp_?_Incref@facet@locale@std@@UEAAXXZ 0000000180025268     msvcprt:MSVCP140.dll
 0002:00000270       __imp_??Bid@locale@std@@QEAA_KXZ 0000000180025270     msvcprt:MSVCP140.dll
 0002:00000278       __imp_?_Gettrue@_Locinfo@std@@QEBAPEBDXZ 0000000180025278     msvcprt:MSVCP140.dll
 0002:00000280       __imp_?_Getfalse@_Locinfo@std@@QEBAPEBDXZ 0000000180025280     msvcprt:MSVCP140.dll
 0002:00000288       __imp_?_Getlconv@_Locinfo@std@@QEBAPEBUlconv@@XZ 0000000180025288     msvcprt:MSVCP140.dll
 0002:00000290       __imp_?_Getcvt@_Locinfo@std@@QEBA?AU_Cvtvec@@XZ 0000000180025290     msvcprt:MSVCP140.dll
 0002:00000298       __imp_??1_Locinfo@std@@QEAA@XZ 0000000180025298     msvcprt:MSVCP140.dll
 0002:000002a0       __imp_??0_Locinfo@std@@QEAA@PEBD@Z 00000001800252a0     msvcprt:MSVCP140.dll
 0002:000002a8       __imp_?flush@?$basic_ostream@_WU?$char_traits@_W@std@@@std@@QEAAAEAV12@XZ 00000001800252a8     msvcprt:MSVCP140.dll
 0002:000002b0       __imp_?_Osfx@?$basic_ostream@_WU?$char_traits@_W@std@@@std@@QEAAXXZ 00000001800252b0     msvcprt:MSVCP140.dll
 0002:000002b8       __imp_?clear@?$basic_ios@_WU?$char_traits@_W@std@@@std@@QEAAXH_N@Z 00000001800252b8     msvcprt:MSVCP140.dll
 0002:000002c0       __imp_??0?$basic_streambuf@_WU?$char_traits@_W@std@@@std@@IEAA@XZ 00000001800252c0     msvcprt:MSVCP140.dll
 0002:000002c8       __imp_??0?$basic_streambuf@DU?$char_traits@D@std@@@std@@IEAA@XZ 00000001800252c8     msvcprt:MSVCP140.dll
 0002:000002d0       __imp_?widen@?$basic_ios@_WU?$char_traits@_W@std@@@std@@QEBA_WD@Z 00000001800252d0     msvcprt:MSVCP140.dll
 0002:000002d8       __imp_?sputc@?$basic_streambuf@_WU?$char_traits@_W@std@@@std@@QEAAG_W@Z 00000001800252d8     msvcprt:MSVCP140.dll
 0002:000002e0       __imp_?sgetc@?$basic_streambuf@DU?$char_traits@D@std@@@std@@QEAAHXZ 00000001800252e0     msvcprt:MSVCP140.dll
 0002:000002e8       __imp_?sbumpc@?$basic_streambuf@DU?$char_traits@D@std@@@std@@QEAAHXZ 00000001800252e8     msvcprt:MSVCP140.dll
 0002:000002f0       __imp_??6?$basic_ostream@_WU?$char_traits@_W@std@@@std@@QEAAAEAV01@_J@Z 00000001800252f0     msvcprt:MSVCP140.dll
 0002:000002f8       __imp_??6?$basic_ostream@_WU?$char_traits@_W@std@@@std@@QEAAAEAV01@G@Z 00000001800252f8     msvcprt:MSVCP140.dll
 0002:00000300       __imp_?sputn@?$basic_streambuf@_WU?$char_traits@_W@std@@@std@@QEAA_JPEB_W_J@Z 0000000180025300     msvcprt:MSVCP140.dll
 0002:00000308       __imp_??0?$basic_iostream@DU?$char_traits@D@std@@@std@@QEAA@PEAV?$basic_streambuf@DU?$char_traits@D@std@@@1@@Z 0000000180025308     msvcprt:MSVCP140.dll
 0002:00000310       __imp_?imbue@?$basic_ios@_WU?$char_traits@_W@std@@@std@@QEAA?AVlocale@2@AEBV32@@Z 0000000180025310     msvcprt:MSVCP140.dll
 0002:00000318       __imp__Mtx_unlock          0000000180025318     msvcprt:MSVCP140.dll
 0002:00000320       __imp__Mtx_init_in_situ    0000000180025320     msvcprt:MSVCP140.dll
 0002:00000328       __imp__Mtx_lock            0000000180025328     msvcprt:MSVCP140.dll
 0002:00000330       __imp__Mtx_destroy_in_situ 0000000180025330     msvcprt:MSVCP140.dll
 0002:00000338       __imp_?id@?$numpunct@_W@std@@2V0locale@2@A 0000000180025338     msvcprt:MSVCP140.dll
 0002:00000340       __imp_?_Xlength_error@std@@YAXPEBD@Z 0000000180025340     msvcprt:MSVCP140.dll
 0002:00000348       __imp_?id@?$ctype@D@std@@2V0locale@2@A 0000000180025348     msvcprt:MSVCP140.dll
 0002:00000350       __imp_?setw@std@@YA?AU?$_Smanip@_J@1@_J@Z 0000000180025350     msvcprt:MSVCP140.dll
 0002:00000358       __imp_?_Throw_C_error@std@@YAXH@Z 0000000180025358     msvcprt:MSVCP140.dll
 0002:00000360       __imp_?id@?$numpunct@D@std@@2V0locale@2@A 0000000180025360     msvcprt:MSVCP140.dll
 0002:00000368       __imp_?_Xout_of_range@std@@YAXPEBD@Z 0000000180025368     msvcprt:MSVCP140.dll
 0002:00000370       __imp_?id@?$ctype@_W@std@@2V0locale@2@A 0000000180025370     msvcprt:MSVCP140.dll
 0002:00000378       __imp_?_Xbad_alloc@std@@YAXXZ 0000000180025378     msvcprt:MSVCP140.dll
 0002:00000380       __imp_?classic@locale@std@@SAAEBV12@XZ 0000000180025380     msvcprt:MSVCP140.dll
 0002:00000388       __imp_?_Init@locale@std@@CAPEAV_Locimp@12@_N@Z 0000000180025388     msvcprt:MSVCP140.dll
 0002:00000390       __imp_?_Getgloballocale@locale@std@@CAPEAV_Locimp@12@XZ 0000000180025390     msvcprt:MSVCP140.dll
 0002:00000398       __imp_?uncaught_exceptions@std@@YAHXZ 0000000180025398     msvcprt:MSVCP140.dll
 0002:000003a0       __imp_??0_Lockit@std@@QEAA@H@Z 00000001800253a0     msvcprt:MSVCP140.dll
 0002:000003a8       __imp_??1_Lockit@std@@QEAA@XZ 00000001800253a8     msvcprt:MSVCP140.dll
 0002:000003b0       __imp__Mbrtowc             00000001800253b0     msvcprt:MSVCP140.dll
 0002:000003b8       __imp_??1?$basic_streambuf@_WU?$char_traits@_W@std@@@std@@UEAA@XZ 00000001800253b8     msvcprt:MSVCP140.dll
 0002:000003c0       \177MSVCP140_NULL_THUNK_DATA 00000001800253c0     msvcprt:MSVCP140.dll
 0002:000003c8       __imp___C_specific_handler 00000001800253c8     vcruntime:VCRUNTIME140.dll
 0002:000003d0       __imp_memset               00000001800253d0     vcruntime:VCRUNTIME140.dll
 0002:000003d8       __imp__CxxThrowException   00000001800253d8     vcruntime:VCRUNTIME140.dll
 0002:000003e0       __imp_memcmp               00000001800253e0     vcruntime:VCRUNTIME140.dll
 0002:000003e8       __imp_memchr               00000001800253e8     vcruntime:VCRUNTIME140.dll
 0002:000003f0       __imp___RTDynamicCast      00000001800253f0     vcruntime:VCRUNTIME140.dll
 0002:000003f8       __imp___std_type_info_destroy_list 00000001800253f8     vcruntime:VCRUNTIME140.dll
 0002:00000400       __imp___current_exception  0000000180025400     vcruntime:VCRUNTIME140.dll
 0002:00000408       __imp___std_terminate      0000000180025408     vcruntime:VCRUNTIME140.dll
 0002:00000410       __imp_memmove              0000000180025410     vcruntime:VCRUNTIME140.dll
 0002:00000418       __imp_memcpy               0000000180025418     vcruntime:VCRUNTIME140.dll
 0002:00000420       __imp__purecall            0000000180025420     vcruntime:VCRUNTIME140.dll
 0002:00000428       __imp___std_type_info_compare 0000000180025428     vcruntime:VCRUNTIME140.dll
 0002:00000430       __imp___std_exception_copy 0000000180025430     vcruntime:VCRUNTIME140.dll
 0002:00000438       __imp___std_exception_destroy 0000000180025438     vcruntime:VCRUNTIME140.dll
 0002:00000440       __imp___current_exception_context 0000000180025440     vcruntime:VCRUNTIME140.dll
 0002:00000448       \177VCRUNTIME140_NULL_THUNK_DATA 0000000180025448     vcruntime:VCRUNTIME140.dll
 0002:00000450       __imp___CxxFrameHandler4   0000000180025450     vcruntime:VCRUNTIME140_1.dll
 0002:00000458       \177VCRUNTIME140_1_NULL_THUNK_DATA 0000000180025458     vcruntime:VCRUNTIME140_1.dll
 0002:00000460       __imp__wtoi                0000000180025460     ucrt:api-ms-win-crt-convert-l1-1-0.dll
 0002:00000468       \177api-ms-win-crt-convert-l1-1-0_NULL_THUNK_DATA 0000000180025468     ucrt:api-ms-win-crt-convert-l1-1-0.dll
 0002:00000470       __imp__callnewh            0000000180025470     ucrt:api-ms-win-crt-heap-l1-1-0.dll
 0002:00000478       __imp_free                 0000000180025478     ucrt:api-ms-win-crt-heap-l1-1-0.dll
 0002:00000480       __imp_malloc               0000000180025480     ucrt:api-ms-win-crt-heap-l1-1-0.dll
 0002:00000488       __imp_calloc               0000000180025488     ucrt:api-ms-win-crt-heap-l1-1-0.dll
 0002:00000490       \177api-ms-win-crt-heap-l1-1-0_NULL_THUNK_DATA 0000000180025490     ucrt:api-ms-win-crt-heap-l1-1-0.dll
 0002:00000498       __imp_fmod                 0000000180025498     ucrt:api-ms-win-crt-math-l1-1-0.dll
 0002:000004a0       \177api-ms-win-crt-math-l1-1-0_NULL_THUNK_DATA 00000001800254a0     ucrt:api-ms-win-crt-math-l1-1-0.dll
 0002:000004a8       __imp__register_onexit_function 00000001800254a8     ucrt:api-ms-win-crt-runtime-l1-1-0.dll
 0002:000004b0       __imp__initterm_e          00000001800254b0     ucrt:api-ms-win-crt-runtime-l1-1-0.dll
 0002:000004b8       __imp__crt_atexit          00000001800254b8     ucrt:api-ms-win-crt-runtime-l1-1-0.dll
 0002:000004c0       __imp__initialize_onexit_table 00000001800254c0     ucrt:api-ms-win-crt-runtime-l1-1-0.dll
 0002:000004c8       __imp__cexit               00000001800254c8     ucrt:api-ms-win-crt-runtime-l1-1-0.dll
 0002:000004d0       __imp__initialize_narrow_environment 00000001800254d0     ucrt:api-ms-win-crt-runtime-l1-1-0.dll
 0002:000004d8       __imp__configure_narrow_argv 00000001800254d8     ucrt:api-ms-win-crt-runtime-l1-1-0.dll
 0002:000004e0       __imp__seh_filter_dll      00000001800254e0     ucrt:api-ms-win-crt-runtime-l1-1-0.dll
 0002:000004e8       __imp__initterm            00000001800254e8     ucrt:api-ms-win-crt-runtime-l1-1-0.dll
 0002:000004f0       __imp__invalid_parameter_noinfo_noreturn 00000001800254f0     ucrt:api-ms-win-crt-runtime-l1-1-0.dll
 0002:000004f8       __imp__execute_onexit_table 00000001800254f8     ucrt:api-ms-win-crt-runtime-l1-1-0.dll
 0002:00000500       __imp_terminate            0000000180025500     ucrt:api-ms-win-crt-runtime-l1-1-0.dll
 0002:00000508       \177api-ms-win-crt-runtime-l1-1-0_NULL_THUNK_DATA 0000000180025508     ucrt:api-ms-win-crt-runtime-l1-1-0.dll
 0002:00000510       __imp_tolower              0000000180025510     ucrt:api-ms-win-crt-string-l1-1-0.dll
 0002:00000518       __imp_isspace              0000000180025518     ucrt:api-ms-win-crt-string-l1-1-0.dll
 0002:00000520       __imp_ispunct              0000000180025520     ucrt:api-ms-win-crt-string-l1-1-0.dll
 0002:00000528       \177api-ms-win-crt-string-l1-1-0_NULL_THUNK_DATA 0000000180025528     ucrt:api-ms-win-crt-string-l1-1-0.dll
 0002:00000530       __imp__gmtime64            0000000180025530     ucrt:api-ms-win-crt-time-l1-1-0.dll
 0002:00000538       __imp__time64              0000000180025538     ucrt:api-ms-win-crt-time-l1-1-0.dll
 0002:00000540       __imp_clock                0000000180025540     ucrt:api-ms-win-crt-time-l1-1-0.dll
 0002:00000548       __imp__localtime64         0000000180025548     ucrt:api-ms-win-crt-time-l1-1-0.dll
 0002:00000550       \177api-ms-win-crt-time-l1-1-0_NULL_THUNK_DATA 0000000180025550     ucrt:api-ms-win-crt-time-l1-1-0.dll
 0002:00000558       __guard_check_icall_fptr   0000000180025558     MSVCRT:guard_support.obj
 0002:00000560       __guard_xfg_check_icall_fptr 0000000180025560     MSVCRT:guard_support.obj
 0002:00000568       __guard_dispatch_icall_fptr 0000000180025568     MSVCRT:guard_support.obj
 0002:00000570       __guard_xfg_dispatch_icall_fptr 0000000180025570     MSVCRT:guard_support.obj
 0002:00000578       __guard_xfg_table_dispatch_icall_fptr 0000000180025578     MSVCRT:guard_support.obj
 0002:00000580       __xc_a                     0000000180025580     MSVCRT:initializers.obj
 0002:00000590       ?p_process_init@boost@@3Q6AXXZEA 0000000180025590     libboost_thread-vc142-mt-x64-1_80:tss_pe.obj
 0002:000005c0       __xc_z                     00000001800255c0     MSVCRT:initializers.obj
 0002:000005c8       __xi_a                     00000001800255c8     MSVCRT:initializers.obj
 0002:000005d8       ?p_tls_prepare@boost@@3Q6AHXZEA 00000001800255d8     libboost_thread-vc142-mt-x64-1_80:tss_pe.obj
 0002:000005e0       __xi_z                     00000001800255e0     MSVCRT:initializers.obj
 0002:000005e8       __xl_a                     00000001800255e8     MSVCRT:tlssup.obj
 0002:000005f0       ?p_tls_callback@boost@@3Q6AXPEAUHINSTANCE__@@KPEAX@ZEA 00000001800255f0     libboost_thread-vc142-mt-x64-1_80:tss_pe.obj
 0002:000005f8       __xl_z                     00000001800255f8     MSVCRT:tlssup.obj
 0002:00000600       __xp_a                     0000000180025600     MSVCRT:initializers.obj
 0002:00000608       __xp_z                     0000000180025608     MSVCRT:initializers.obj
 0002:00000610       __xt_a                     0000000180025610     MSVCRT:initializers.obj
 0002:00000618       ?p_process_term@boost@@3Q6AXXZEA 0000000180025618     libboost_thread-vc142-mt-x64-1_80:tss_pe.obj
 0002:00000620       __xt_z                     0000000180025620     MSVCRT:initializers.obj
 0002:00000630       ??_C@_1EC@JIJBPKFM@?$AAa?$AAp?$AAi?$AA?9?$AAm?$AAs?$AA?9?$AAw?$AAi?$AAn?$AA?9?$AAc?$AAo?$AAr?$AAe@ 0000000180025630     MSVCRT:thread_safe_statics.obj
 0002:00000678       ??_C@_1BK@MGMFAEKH@?$AAk?$AAe?$AAr?$AAn?$AAe?$AAl?$AA3?$AA2?$AA?4?$AAd?$AAl?$AAl@ 0000000180025678     MSVCRT:thread_safe_statics.obj
 0002:00000698       ??_C@_0BJ@JEBJOJFJ@SleepConditionVariableCS@ 0000000180025698     MSVCRT:thread_safe_statics.obj
 0002:000006b8       ??_C@_0BJ@PGPPEPCC@WakeAllConditionVariable@ 00000001800256b8     MSVCRT:thread_safe_statics.obj
 0002:000006e0       __xmm@ffffffffffffffffffffffffffffffff 00000001800256e0     MSVCRT:utility.obj
 0002:000006f8       ??_7type_info@@6B@         00000001800256f8     MSVCRT:std_type_info_static.obj
 0002:00000700       _pDefaultRawDllMain        0000000180025700     MSVCRT:dll_dllmain.obj
 0002:00000720       ??_7exception@std@@6B@     0000000180025720     MSVCRT:throw_bad_alloc.obj
 0002:00000738       ??_7bad_alloc@std@@6B@     0000000180025738     MSVCRT:throw_bad_alloc.obj
 0002:00000750       ??_7bad_array_new_length@std@@6B@ 0000000180025750     MSVCRT:throw_bad_alloc.obj
 0002:00000760       _pRawDllMainOrig           0000000180025760     libboost_thread-vc142-mt-x64-1_80:tss_pe.obj
 0002:00000760       _pDefaultRawDllMainOrig    0000000180025760     libboost_thread-vc142-mt-x64-1_80:tss_pe.obj
 0002:00000768       _pRawDllMain               0000000180025768     libboost_thread-vc142-mt-x64-1_80:tss_pe.obj
 0002:00000778       ??_7?$clone_impl@Ubad_alloc_@exception_detail@boost@@@exception_detail@boost@@6Bexception@2@@ 0000000180025778     libboost_thread-vc142-mt-x64-1_80:thread.obj
 0002:00000788       ??_7?$clone_impl@Ubad_alloc_@exception_detail@boost@@@exception_detail@boost@@6Bbad_alloc@std@@@ 0000000180025788     libboost_thread-vc142-mt-x64-1_80:thread.obj
 0002:000007a0       ??_7?$clone_impl@Ubad_alloc_@exception_detail@boost@@@exception_detail@boost@@6B@ 00000001800257a0     libboost_thread-vc142-mt-x64-1_80:thread.obj
 0002:000007c0       ??_7?$clone_impl@Ubad_exception_@exception_detail@boost@@@exception_detail@boost@@6Bexception@2@@ 00000001800257c0     libboost_thread-vc142-mt-x64-1_80:thread.obj
 0002:000007d0       ??_7?$clone_impl@Ubad_exception_@exception_detail@boost@@@exception_detail@boost@@6Bbad_exception@std@@@ 00000001800257d0     libboost_thread-vc142-mt-x64-1_80:thread.obj
 0002:000007e8       ??_7?$clone_impl@Ubad_exception_@exception_detail@boost@@@exception_detail@boost@@6B@ 00000001800257e8     libboost_thread-vc142-mt-x64-1_80:thread.obj
 0002:00000808       ??_7sp_counted_base@detail@boost@@6B@ 0000000180025808     libboost_thread-vc142-mt-x64-1_80:thread.obj
 0002:00000840       ??_7bad_exception@std@@6B@ 0000000180025840     libboost_thread-vc142-mt-x64-1_80:thread.obj
 0002:00000858       ??_7bad_alloc_@exception_detail@boost@@6Bexception@2@@ 0000000180025858     libboost_thread-vc142-mt-x64-1_80:thread.obj
 0002:00000868       ??_7bad_alloc_@exception_detail@boost@@6Bbad_alloc@std@@@ 0000000180025868     libboost_thread-vc142-mt-x64-1_80:thread.obj
 0002:00000880       ??_7bad_exception_@exception_detail@boost@@6Bexception@2@@ 0000000180025880     libboost_thread-vc142-mt-x64-1_80:thread.obj
 0002:00000890       ??_7bad_exception_@exception_detail@boost@@6Bbad_exception@std@@@ 0000000180025890     libboost_thread-vc142-mt-x64-1_80:thread.obj
 0002:000008a8       ??_7exception@boost@@6B@   00000001800258a8     libboost_thread-vc142-mt-x64-1_80:thread.obj
 0002:000008b8       ??_7?$sp_counted_impl_p@V?$clone_impl@Ubad_alloc_@exception_detail@boost@@@exception_detail@boost@@@detail@boost@@6B@ 00000001800258b8     libboost_thread-vc142-mt-x64-1_80:thread.obj
 0002:000008f0       ??_7?$sp_counted_impl_p@V?$clone_impl@Ubad_exception_@exception_detail@boost@@@exception_detail@boost@@@detail@boost@@6B@ 00000001800258f0     libboost_thread-vc142-mt-x64-1_80:thread.obj
 0002:00000928       ??_7clone_base@exception_detail@boost@@6B@ 0000000180025928     libboost_thread-vc142-mt-x64-1_80:thread.obj
 0002:00000948       ??_7runtime_error@std@@6B@ 0000000180025948     libboost_thread-vc142-mt-x64-1_80:thread.obj
 0002:00000958       ?fixed_mutex_name@?1??name_once_mutex@detail@boost@@YAXPEADPEAX@Z@4QBDB 0000000180025958     libboost_thread-vc142-mt-x64-1_80:thread.obj
 0002:00000990       ??_C@_0BC@EOODALEL@Unknown?5exception@ 0000000180025990     misc.obj
 0002:000009a8       ??_C@_0O@DPKOEFFH@bad?5exception@ 00000001800259a8     misc.obj
 0002:000009b8       ??_C@_0P@GHFPNOJB@bad?5allocation@ 00000001800259b8     misc.obj
 0002:000009c8       ??_C@_0BF@KINCDENJ@bad?5array?5new?5length@ 00000001800259c8     misc.obj
 0002:000009e0       ??_C@_0BA@JFNIOLAK@string?5too?5long@ 00000001800259e0     misc.obj
 0002:000009f0       ??_C@_00CNPNBAHC@@         00000001800259f0     misc.obj
 0002:000009f8       ??_C@_08EPJLHIJG@bad?5cast@ 00000001800259f8     misc.obj
 0002:00000a04       ??_C@_01NBENCBCI@?$CK@     0000000180025a04     misc.obj
 0002:00000a10       ??_7?$basic_stringbuf@_WU?$char_traits@_W@std@@V?$allocator@_W@2@@std@@6B@ 0000000180025a10     misc.obj
 0002:00000a88       ??_C@_0CJ@PIMMHAJE@Day?5of?5month?5value?5is?5out?5of?5ra@ 0000000180025a88     misc.obj
 0002:00000ac0       ??_7?$wrapexcept@Ubad_day_of_month@gregorian@boost@@@boost@@6Bexception@1@@ 0000000180025ac0     misc.obj
 0002:00000ac8       ??_C@_0CH@MBPBLNCG@Year?5is?5out?5of?5valid?5range?3?5140@ 0000000180025ac8     misc.obj
 0002:00000af0       ??_C@_0CD@FBNLMBFL@Month?5number?5is?5out?5of?5range?51?4@ 0000000180025af0     misc.obj
 0002:00000b14       ??_C@_03JIHJHPIE@Jan@      0000000180025b14     misc.obj
 0002:00000b18       ??_C@_03HJBDCHOM@Feb@      0000000180025b18     misc.obj
 0002:00000b1c       ??_C@_03ODNJBKGA@Mar@      0000000180025b1c     misc.obj
 0002:00000b20       ??_C@_03LEOLGMJP@Apr@      0000000180025b20     misc.obj
 0002:00000b24       ??_C@_03CNMDKL@May@        0000000180025b24     misc.obj
 0002:00000b28       ??_C@_03IDFGHECI@Jun@      0000000180025b28     misc.obj
 0002:00000b2c       ??_C@_03LBGABGKK@Jul@      0000000180025b2c     misc.obj
 0002:00000b30       ??_C@_03IFJFEIGA@Aug@      0000000180025b30     misc.obj
 0002:00000b34       ??_C@_03GGCAPAJC@Sep@      0000000180025b34     misc.obj
 0002:00000b38       ??_C@_03BMAOKBAD@Oct@      0000000180025b38     misc.obj
 0002:00000b3c       ??_C@_03JPJOFNIA@Nov@      0000000180025b3c     misc.obj
 0002:00000b40       ??_C@_03MKABNOCG@Dec@      0000000180025b40     misc.obj
 0002:00000b44       ??_C@_03JBPPNJFC@NAM@      0000000180025b44     misc.obj
 0002:00000b50       ??_7?$wrapexcept@Ubad_month@gregorian@boost@@@boost@@6Bclone_base@exception_detail@1@@ 0000000180025b50     misc.obj
 0002:00000b68       ??_C@_17DKNBKCHM@?$AAJ?$AAa?$AAn@ 0000000180025b68     misc.obj
 0002:00000b70       ??_C@_17LMDJEKJN@?$AAF?$AAe?$AAb@ 0000000180025b70     misc.obj
 0002:00000b78       ??_C@_17CKNLEDEC@?$AAM?$AAa?$AAr@ 0000000180025b78     misc.obj
 0002:00000b80       ??_C@_17LFPOIHDD@?$AAA?$AAp?$AAr@ 0000000180025b80     misc.obj
 0002:00000b88       ??_C@_17PNNKMEED@?$AAM?$AAa?$AAy@ 0000000180025b88     misc.obj
 0002:00000b90       ??_C@_17KCJGOCPB@?$AAJ?$AAu?$AAn@ 0000000180025b90     misc.obj
 0002:00000b98       ??_C@_17IJPCKHK@?$AAJ?$AAu?$AAl@ 0000000180025b98     misc.obj
 0002:00000ba0       ??_C@_17ICPELBCN@?$AAA?$AAu?$AAg@ 0000000180025ba0     misc.obj
 0002:00000ba8       ??_C@_17HCHCOKMG@?$AAS?$AAe?$AAp@ 0000000180025ba8     misc.obj
 0002:00000bb0       ??_C@_17FNLKOI@?$AAO?$AAc?$AAt@ 0000000180025bb0     misc.obj
 0002:00000bb8       ??_C@_17BBDMLCIG@?$AAN?$AAo?$AAv@ 0000000180025bb8     misc.obj
 0002:00000bc0       ??_C@_17EGKACKIF@?$AAD?$AAe?$AAc@ 0000000180025bc0     misc.obj
 0002:00000bd0       ??_7DateImpl@@6B@          0000000180025bd0     misc.obj
 0002:00000c90       ??_C@_0CD@EKHKOMOM@Day?5of?5month?5is?5not?5valid?5for?5y@ 0000000180025c90     misc.obj
 0002:00000cc0       ??_7?$wrapexcept@Ubad_year@gregorian@boost@@@boost@@6Bexception@1@@ 0000000180025cc0     misc.obj
 0002:00000cc8       ??_C@_0CO@MNNADGJG@could?5not?5convert?5calendar?5time@ 0000000180025cc8     misc.obj
 0002:00000cf8       ??_C@_0CM@DGIADEHE@could?5not?5convert?5calendar?5time@ 0000000180025cf8     misc.obj
 0002:00000d28       ??_C@_1CA@GBCALMCO@?$AAn?$AAo?$AAt?$AA?9?$AAa?$AA?9?$AAd?$AAa?$AAt?$AAe?$AA?9?$AAt?$AAi?$AAm?$AAe@ 0000000180025d28     misc.obj
 0002:00000d48       ??_C@_1BE@JJEFLJAE@?$AA?$CL?$AAi?$AAn?$AAf?$AAi?$AAn?$AAi?$AAt?$AAy@ 0000000180025d48     misc.obj
 0002:00000d60       ??_C@_1BE@BNGGCENB@?$AA?9?$AAi?$AAn?$AAf?$AAi?$AAn?$AAi?$AAt?$AAy@ 0000000180025d60     misc.obj
 0002:00000d78       ??_C@_0BB@GCADKGJO@map?1set?5too?5long@ 0000000180025d78     misc.obj
 0002:00000d90       ??_C@_0EH@FFMEKAOB@bad?5lexical?5cast?3?5source?5type?5v@ 0000000180025d90     misc.obj
 0002:00000dd8       ??_C@_0BA@COBEFOKA@not?9a?9date?9time@ 0000000180025dd8     misc.obj
 0002:00000de8       ??_C@_09JJMDMOEE@?9infinity@ 0000000180025de8     misc.obj
 0002:00000df8       ??_C@_09JENNLOAD@?$CLinfinity@ 0000000180025df8     misc.obj
 0002:00000e10       ??_7?$_Ref_count@VDateImpl@@@std@@6B@ 0000000180025e10     misc.obj
 0002:00000e38       ??_7?$wrapexcept@Vbad_lexical_cast@boost@@@boost@@6Bexception@1@@ 0000000180025e38     misc.obj
 0002:00000e48       ??_7?$sp_counted_impl_pd@PEAV?$basic_altstringbuf@_WU?$char_traits@_W@std@@V?$allocator@_W@2@@io@boost@@VNo_Op@?$basic_oaltstringstream@_WU?$char_traits@_W@std@@V?$allocator@_W@2@@23@@detail@boost@@6B@ 0000000180025e48     misc.obj
 0002:00000e80       ??_7bad_year@gregorian@boost@@6B@ 0000000180025e80     misc.obj
 0002:00000e90       ??_C@_19BPJGHEMJ@?$AA?5?$AA?7?$AA?6?$AA?$AN@ 0000000180025e90     misc.obj
 0002:00000e9c       ??_C@_11LOCGONAA@@         0000000180025e9c     misc.obj
 0002:00000ea0       ??_C@_13JOFGPIOO@?$AA?4@   0000000180025ea0     misc.obj
 0002:00000ea4       ??_C@_15JOGBDECP@?$AA?0?$AA?5@ 0000000180025ea4     misc.obj
 0002:00000eb0       ??_C@_0CM@KNACEDFN@boost?3?3format_error?3?5format?5gen@ 0000000180025eb0     misc.obj
 0002:00000ee0       ??_C@_0DG@NIKLBDNH@boost?3?3bad_format_string?3?5forma@ 0000000180025ee0     misc.obj
 0002:00000f20       ??_C@_0EP@LKAAJEIC@boost?3?3too_few_args?3?5format?9str@ 0000000180025f20     misc.obj
 0002:00000f70       ??_C@_0FB@PMMNHDAI@boost?3?3too_many_args?3?5format?9st@ 0000000180025f70     misc.obj
 0002:00000fc8       ??_C@_1CI@GPOHLOLD@?$AAI?$AAn?$AAv?$AAa?$AAl?$AAi?$AAd?$AA?5?$AAd?$AAa?$AAt?$AAe?$AA?3?$AA?5?$AA?$CC@ 0000000180025fc8     misc.obj
 0002:00000ff0       ??_C@_1CI@DMBHBNEI@?$AAU?$AAn?$AAk?$AAn?$AAo?$AAw?$AAn?$AA?5?$AAf?$AAo?$AAr?$AAm?$AAa?$AAt?$AA?5@ 0000000180025ff0     misc.obj
 0002:00001020       ??_C@_1GI@FOAJCPEO@?$AAY?$AAe?$AAa?$AAr?$AA?5?$AAm?$AAu?$AAs?$AAt?$AA?5?$AAb?$AAe?$AA?5?$AAa?$AAn@ 0000000180026020     misc.obj
 0002:00001090       ??_C@_1GA@LPFCGLNF@?$AAM?$AAo?$AAn?$AAt?$AAh?$AA?5?$AAm?$AAu?$AAs?$AAt?$AA?5?$AAb?$AAe?$AA?5?$AAa@ 0000000180026090     misc.obj
 0002:000010f0       ??_C@_1FM@COGAADDJ@?$AAD?$AAa?$AAy?$AA?5?$AAm?$AAu?$AAs?$AAt?$AA?5?$AAb?$AAe?$AA?5?$AAa?$AAn?$AA?5@ 00000001800260f0     misc.obj
 0002:00001150       ??_C@_1CE@OHJEELMD@?$AAW?$AAr?$AAo?$AAn?$AAg?$AA?5?$AAd?$AAa?$AAt?$AAe?$AA?5?$AAf?$AAo?$AAr?$AAm@ 0000000180026150     misc.obj
 0002:00001178       ??_C@_1BO@KENFONEO@?$AA2?$AA0?$AA0?$AA9?$AA1?$AA0?$AA0?$AA7?$AA2?$AA3?$AA3?$AA0?$AA0?$AA0@ 0000000180026178     misc.obj
 0002:00001198       ??_C@_13JKNELIBG@?$AAT@    0000000180026198     misc.obj
 0002:000011a0       ??_C@_1BA@NHCIOCHM@?$AA6?$AA?0?$AA0?$AA?0?$AA0?$AA?0?$AA8@ 00000001800261a0     misc.obj
 0002:000011b0       ??_C@_15JJHPCKJM@?$AA?4?$AA?0@ 00000001800261b0     misc.obj
 0002:000011b8       ??_C@_1DK@OILGBIMJ@?$AA?5?$AA?9?$AA?5?$AAt?$AAo?$AAo?$AA?5?$AAm?$AAa?$AAn?$AAy?$AA?5?$AAv?$AAe?$AAr@ 00000001800261b8     misc.obj
 0002:000011f4       ??_C@_15DEJJBEOA@?$AA?5?$AA?7@ 00000001800261f4     misc.obj
 0002:00001200       ??_C@_1EM@PHFKAKAP@?$AAF?$AAo?$AAr?$AAm?$AAa?$AAt?$AA?5?$AAx?$AAy?$AAz?$AA?5?$AAn?$AAo?$AAt?$AA?5@ 0000000180026200     misc.obj
 0002:00001250       ??_C@_1CA@NAEGKDJH@?$AA?$CF?$AA1?$AA?$CF?$AA?$CF?$AA4?$AA?$CF?$AA?$CF?$AA2?$AA?$CF?$AA?$CF?$AA4?$AA?$CF?$AA?$CF?$AA3?$AA?$CF@ 0000000180026250     misc.obj
 0002:00001278       ??_7bad_day_of_month@gregorian@boost@@6B@ 0000000180026278     misc.obj
 0002:00001290       ??_7?$wrapexcept@Vtoo_few_args@io@boost@@@boost@@6Btoo_few_args@io@1@@ 0000000180026290     misc.obj
 0002:000012a0       ??_C@_01LFCBOECM@?4@       00000001800262a0     misc.obj
 0002:000012a8       ??_C@_0BI@CFPLBAOH@invalid?5string?5position@ 00000001800262a8     misc.obj
 0002:000012c0       ??_C@_03IJBCDJCF@ymd@      00000001800262c0     misc.obj
 0002:000012c4       ??_C@_01JLIPDDHJ@?3@       00000001800262c4     misc.obj
 0002:000012c8       ??_C@_0BA@FOIKENOD@vector?5too?5long@ 00000001800262c8     misc.obj
 0002:000012d8       ??_C@_03DIELNALK@jan@      00000001800262d8     misc.obj
 0002:000012e0       ??_C@_07NPOJDEMG@january@  00000001800262e0     misc.obj
 0002:000012e8       ??_C@_03NJCBIINC@feb@      00000001800262e8     misc.obj
 0002:000012f0       ??_C@_08OPGHMNPO@february@ 00000001800262f0     misc.obj
 0002:000012fc       ??_C@_03EDOLLFFO@mar@      00000001800262fc     misc.obj
 0002:00001300       ??_C@_05HIIGOAOE@march@    0000000180026300     misc.obj
 0002:00001308       ??_C@_03BENJMDKB@apr@      0000000180026308     misc.obj
 0002:0000130c       ??_C@_05DLDPNOHP@april@    000000018002630c     misc.obj
 0002:00001314       ??_C@_03KABPGMJF@may@      0000000180026314     misc.obj
 0002:00001318       ??_C@_03CDGENLBG@jun@      0000000180026318     misc.obj
 0002:0000131c       ??_C@_04OMHNEOGI@june@     000000018002631c     misc.obj
 0002:00001324       ??_C@_03BBFCLJJE@jul@      0000000180026324     misc.obj
 0002:00001328       ??_C@_04JIOMHFL@july@      0000000180026328     misc.obj
 0002:00001330       ??_C@_03CFKHOHFO@aug@      0000000180026330     misc.obj
 0002:00001334       ??_C@_06HOKKGKKK@august@   0000000180026334     misc.obj
 0002:0000133c       ??_C@_03MGBCFPKM@sep@      000000018002633c     misc.obj
 0002:00001340       ??_C@_09FICJAIHD@september@ 0000000180026340     misc.obj
 0002:0000134c       ??_C@_03LMDMAODN@oct@      000000018002634c     misc.obj
 0002:00001350       ??_C@_07GAKDEGIF@october@  0000000180026350     misc.obj
 0002:00001358       ??_C@_03DPKMPCLO@nov@      0000000180026358     misc.obj
 0002:00001360       ??_C@_08PAIFOGED@november@ 0000000180026360     misc.obj
 0002:0000136c       ??_C@_03GKDDHBBI@dec@      000000018002636c     misc.obj
 0002:00001370       ??_C@_08MBINMDHM@december@ 0000000180026370     misc.obj
 0002:00001380       ??_C@_0II@FKIFLBFA@C?3?2Users?2Bould?2Documents?2yloade@ 0000000180026380     misc.obj
 0002:00001410       ??_C@_0IK@LHEHAGMH@class?5boost?3?3exception_ptr?5__cd@ 0000000180026410     misc.obj
 0002:000014a0       ??_C@_0IO@BHMGIOEK@class?5boost?3?3exception_ptr?5__cd@ 00000001800264a0     misc.obj
 0002:00001530       ??_8?$basic_stringstream@DU?$char_traits@D@std@@V?$allocator@D@2@@std@@7B?$basic_istream@DU?$char_traits@D@std@@@1@@ 0000000180026530     misc.obj
 0002:00001538       ??_C@_0BG@EOMJEIFA@vector?$DMbool?$DO?5too?5long@ 0000000180026538     misc.obj
 0002:00001558       ??_7bad_month@gregorian@boost@@6B@ 0000000180026558     misc.obj
 0002:00001570       ??_7too_many_args@io@boost@@6B@ 0000000180026570     misc.obj
 0002:00001588       ??_7DateTimeImpl@@6B@      0000000180026588     misc.obj
 0002:00001658       ?neg_inf_string@?$special_values_parser@Vdate@gregorian@boost@@D@date_time@boost@@2QBDB 0000000180026658     misc.obj
 0002:00001668       ?nadt_string@?$special_values_parser@Vdate@gregorian@boost@@D@date_time@boost@@2QBDB 0000000180026668     misc.obj
 0002:00001678       ?pos_inf_string@?$special_values_parser@Vdate@gregorian@boost@@D@date_time@boost@@2QBDB 0000000180026678     misc.obj
 0002:00001688       ?min_date_time_string@?$special_values_parser@Vdate@gregorian@boost@@D@date_time@boost@@2QBDB 0000000180026688     misc.obj
 0002:000016a0       ?max_date_time_string@?$special_values_parser@Vdate@gregorian@boost@@D@date_time@boost@@2QBDB 00000001800266a0     misc.obj
 0002:000016b8       ??_8?$basic_ostringstream@_WU?$char_traits@_W@std@@V?$allocator@_W@2@@std@@7B@ 00000001800266b8     misc.obj
 0002:000016b8       ??_8?$basic_stringstream@DU?$char_traits@D@std@@V?$allocator@D@2@@std@@7B?$basic_ostream@DU?$char_traits@D@std@@@1@@ 00000001800266b8     misc.obj
 0002:000016c8       ??_7?$wrapexcept@Vruntime_error@std@@@boost@@6Bexception@1@@ 00000001800266c8     misc.obj
 0002:000016d8       ??_7DateDurationAbstr@yloader@@6B@ 00000001800266d8     misc.obj
 0002:00001758       ??_7DateDurationImpl@@6B@  0000000180026758     misc.obj
 0002:000017d8       ??_7?$numpunct@_W@std@@6B@ 00000001800267d8     misc.obj
 0002:00001828       ??_7?$wrapexcept@Ubad_month@gregorian@boost@@@boost@@6Bexception@1@@ 0000000180026828     misc.obj
 0002:00001838       ??_7TimeDurationAbstr@yloader@@6B@ 0000000180026838     misc.obj
 0002:000018e8       ??_7?$basic_oaltstringstream@_WU?$char_traits@_W@std@@V?$allocator@_W@2@@io@boost@@6B@ 00000001800268e8     misc.obj
 0002:000018f8       ??_7?$basic_altstringbuf@_WU?$char_traits@_W@std@@V?$allocator@_W@2@@io@boost@@6B@ 00000001800268f8     misc.obj
 0002:00001978       ??_7TimerAbstr@yloader@@6B@ 0000000180026978     misc.obj
 0002:000019a0       ??_8?$clone_impl@Ubad_alloc_@exception_detail@boost@@@exception_detail@boost@@7B@ 00000001800269a0     misc.obj
 0002:000019a0       ??_8?$clone_impl@Ubad_exception_@exception_detail@boost@@@exception_detail@boost@@7B@ 00000001800269a0     misc.obj
 0002:000019b0       ??_7?$_Ref_count_obj2@VDateDurationImpl@@@std@@6B@ 00000001800269b0     misc.obj
 0002:000019d8       ??_7?$numpunct@D@std@@6B@  00000001800269d8     misc.obj
 0002:00001a20       ?short_month_names@?1??as_short_string@greg_month@gregorian@boost@@QEBAPEBDXZ@4QBQEBDB 0000000180026a20     misc.obj
 0002:00001a98       ??_7?$wrapexcept@Vbad_lexical_cast@boost@@@boost@@6Bclone_base@exception_detail@1@@ 0000000180026a98     misc.obj
 0002:00001ab8       ??_7?$_Ref_count_resource@PEA_WU?$default_delete@$$BY0A@_W@std@@@std@@6B@ 0000000180026ab8     misc.obj
 0002:00001ae0       ??_7?$wrapexcept@Vtoo_few_args@io@boost@@@boost@@6Bexception@1@@ 0000000180026ae0     misc.obj
 0002:00001af0       ??_7?$wrapexcept@Vbad_format_string@io@boost@@@boost@@6Bbad_format_string@io@1@@ 0000000180026af0     misc.obj
 0002:00001b08       ??_7?$wrapexcept@Vbad_lexical_cast@boost@@@boost@@6Bbad_lexical_cast@1@@ 0000000180026b08     misc.obj
 0002:00001b20       ??_7?$wrapexcept@Vtoo_many_args@io@boost@@@boost@@6Btoo_many_args@io@1@@ 0000000180026b20     misc.obj
 0002:00001b38       ??_7?$wrapexcept@Vruntime_error@std@@@boost@@6Bruntime_error@std@@@ 0000000180026b38     misc.obj
 0002:00001b50       ??_7?$_Ref_count_obj2@VDateTimeImpl@@@std@@6B@ 0000000180026b50     misc.obj
 0002:00001b78       ??_7TimerImpl@@6B@         0000000180026b78     misc.obj
 0002:00001ba8       ??_7?$_Ref_count@VTimeDurationImpl@@@std@@6B@ 0000000180026ba8     misc.obj
 0002:00001bd0       ??_7out_of_range@std@@6B@  0000000180026bd0     misc.obj
 0002:00001be8       ??_7?$wrapexcept@Vbad_format_string@io@boost@@@boost@@6Bclone_base@exception_detail@1@@ 0000000180026be8     misc.obj
 0002:00001c08       ??_7?$_Ref_count@VDateTimeImpl@@@std@@6B@ 0000000180026c08     misc.obj
 0002:00001c30       ??_7?$wrapexcept@Ubad_day_of_month@gregorian@boost@@@boost@@6Bbad_day_of_month@gregorian@1@@ 0000000180026c30     misc.obj
 0002:00001c40       ??_8?$basic_oaltstringstream@_WU?$char_traits@_W@std@@V?$allocator@_W@2@@io@boost@@7B@ 0000000180026c40     misc.obj
 0002:00001c50       ??_7?$wrapexcept@Ubad_year@gregorian@boost@@@boost@@6Bclone_base@exception_detail@1@@ 0000000180026c50     misc.obj
 0002:00001c70       ??_7?$wrapexcept@Ubad_day_of_month@gregorian@boost@@@boost@@6Bclone_base@exception_detail@1@@ 0000000180026c70     misc.obj
 0002:00001c90       ??_7?$wrapexcept@Ubad_month@gregorian@boost@@@boost@@6Bbad_month@gregorian@1@@ 0000000180026c90     misc.obj
 0002:00001ca8       ??_7bad_cast@std@@6B@      0000000180026ca8     misc.obj
 0002:00001cc0       ??_7?$_Ref_count_obj2@VDateImpl@@@std@@6B@ 0000000180026cc0     misc.obj
 0002:00001ce8       ??_7logic_error@std@@6B@   0000000180026ce8     misc.obj
 0002:00001d00       ??_7format_error@io@boost@@6B@ 0000000180026d00     misc.obj
 0002:00001d18       ??_7?$wrapexcept@Ubad_year@gregorian@boost@@@boost@@6Bbad_year@gregorian@1@@ 0000000180026d18     misc.obj
 0002:00001d30       ??_7?$basic_stringbuf@DU?$char_traits@D@std@@V?$allocator@D@2@@std@@6B@ 0000000180026d30     misc.obj
 0002:00001db0       ??_7?$basic_ostringstream@_WU?$char_traits@_W@std@@V?$allocator@_W@2@@std@@6B@ 0000000180026db0     misc.obj
 0002:00001dc0       ??_7?$wrapexcept@Vtoo_few_args@io@boost@@@boost@@6Bclone_base@exception_detail@1@@ 0000000180026dc0     misc.obj
 0002:00001de0       ??_7DateAbstr@yloader@@6B@ 0000000180026de0     misc.obj
 0002:00001ea8       ??_7?$_Ref_count_resource@PEADU?$default_delete@$$BY0A@D@std@@@std@@6B@ 0000000180026ea8     misc.obj
 0002:00001ed0       ??_7DateTimeAbstr@yloader@@6B@ 0000000180026ed0     misc.obj
 0002:00001fa8       ??_7?$wrapexcept@Vruntime_error@std@@@boost@@6Bclone_base@exception_detail@1@@ 0000000180026fa8     misc.obj
 0002:00001fc8       ??_7?$_Ref_count_obj2@VTimeDurationImpl@@@std@@6B@ 0000000180026fc8     misc.obj
 0002:00001ff0       ??_7bad_lexical_cast@boost@@6B@ 0000000180026ff0     misc.obj
 0002:00002008       ??_7?$basic_stringstream@DU?$char_traits@D@std@@V?$allocator@D@2@@std@@6B@ 0000000180027008     misc.obj
 0002:00002018       ??_7bad_format_string@io@boost@@6B@ 0000000180027018     misc.obj
 0002:00002030       ??_7?$wrapexcept@Vtoo_many_args@io@boost@@@boost@@6Bclone_base@exception_detail@1@@ 0000000180027030     misc.obj
 0002:00002050       ??_7TimeDurationImpl@@6B@  0000000180027050     misc.obj
 0002:00002100       ??_7?$wrapexcept@Vbad_format_string@io@boost@@@boost@@6Bexception@1@@ 0000000180027100     misc.obj
 0002:00002110       ??_7too_few_args@io@boost@@6B@ 0000000180027110     misc.obj
 0002:00002128       ??_7?$wrapexcept@Vtoo_many_args@io@boost@@@boost@@6Bexception@1@@ 0000000180027128     misc.obj
 0002:00002130       ??_C@_13NMPKAAJP@?$AA?$DN@ 0000000180027130     namevalue.obj
 0002:00002134       ??_C@_15BBBDHBBH@?$AA?$FL?$AA?$FN@ 0000000180027134     namevalue.obj
 0002:0000213c       ??_C@_13FLOCNAAB@?$AA?$CG@ 000000018002713c     namevalue.obj
 0002:00002140       ??_C@_17CAMAPEFD@?$AA?$FL?$AA?$FN?$AA?$DN@ 0000000180027140     namevalue.obj
 0002:00002150       ??_7?$_Ref_count@VNameValue@yloader@@@std@@6B@ 0000000180027150     namevalue.obj
 0002:00002178       ??_7?$_Ref_count@V?$basic_string@_WU?$char_traits@_W@std@@V?$allocator@_W@2@@std@@@std@@6B@ 0000000180027178     namevalue.obj
 0002:00002198       __real@3ff0000000000000    0000000180027198     misc.obj
 0002:000021a0       __real@408f400000000000    00000001800271a0     misc.obj
 0002:000021a8       __real@412e848000000000    00000001800271a8     misc.obj
 0002:000021b0       __xmm@00000000000000070000000000000000 00000001800271b0     misc.obj
 0002:000021c0       __xmm@000000000000000f0000000000000000 00000001800271c0     misc.obj
 0002:000021d0       __xmm@00000007000000020000000200000002 00000001800271d0     misc.obj
 0002:00002250       _load_config_used          0000000180027250     MSVCRT:loadcfg.obj
 0002:00002400       _tls_used                  0000000180027400     MSVCRT:tlssup.obj
 0002:00002430       ??_R4type_info@@6B@        0000000180027430     MSVCRT:std_type_info_static.obj
 0002:00002458       ??_R3type_info@@8          0000000180027458     MSVCRT:std_type_info_static.obj
 0002:00002470       ??_R2type_info@@8          0000000180027470     MSVCRT:std_type_info_static.obj
 0002:00002480       ??_R1A@?0A@EA@type_info@@8 0000000180027480     MSVCRT:std_type_info_static.obj
 0002:000024a8       ??_R1A@?0A@EA@?$wrapexcept@Vbad_lexical_cast@boost@@@boost@@8 00000001800274a8     misc.obj
 0002:000024d0       ??_R4?$wrapexcept@Vbad_lexical_cast@boost@@@boost@@6Bbad_lexical_cast@1@@ 00000001800274d0     misc.obj
 0002:000024f8       ??_R3out_of_range@std@@8   00000001800274f8     misc.obj
 0002:00002510       ??_R4bad_cast@std@@6B@     0000000180027510     misc.obj
 0002:00002538       ??_R2?$basic_ostringstream@_WU?$char_traits@_W@std@@V?$allocator@_W@2@@std@@8 0000000180027538     misc.obj
 0002:00002568       ??_R1A@?0A@EA@_Crt_new_delete@std@@8 0000000180027568     misc.obj
 0002:00002590       ??_R2?$clone_impl@Ubad_alloc_@exception_detail@boost@@@exception_detail@boost@@8 0000000180027590     misc.obj
 0002:000025c8       ??_R4bad_exception_@exception_detail@boost@@6Bexception@2@@ 00000001800275c8     misc.obj
 0002:000025f0       ??_R4?$basic_altstringbuf@_WU?$char_traits@_W@std@@V?$allocator@_W@2@@io@boost@@6B@ 00000001800275f0     misc.obj
 0002:00002618       ??_R3exception@boost@@8    0000000180027618     misc.obj
 0002:00002630       ??_R3bad_array_new_length@std@@8 0000000180027630     misc.obj
 0002:00002648       ??_R4TimeDurationAbstr@yloader@@6B@ 0000000180027648     misc.obj
 0002:00002670       ??_R4?$basic_stringbuf@DU?$char_traits@D@std@@V?$allocator@D@2@@std@@6B@ 0000000180027670     misc.obj
 0002:00002698       ??_R1A@?0A@EN@?$base_from_member@V?$shared_ptr@V?$basic_altstringbuf@_WU?$char_traits@_W@std@@V?$allocator@_W@2@@io@boost@@@boost@@$0A@@boost@@8 0000000180027698     misc.obj
 0002:000026c0       ??_R1A@?0A@EA@TimeDurationAbstr@yloader@@8 00000001800276c0     misc.obj
 0002:000026e8       ??_R17?0A@EA@bad_year@gregorian@boost@@8 00000001800276e8     misc.obj
 0002:00002710       ??_R4?$_Ref_count_obj2@VDateDurationImpl@@@std@@6B@ 0000000180027710     misc.obj
 0002:00002738       ??_R4?$basic_stringstream@DU?$char_traits@D@std@@V?$allocator@D@2@@std@@6B@ 0000000180027738     misc.obj
 0002:00002760       ??_R4exception@boost@@6B@  0000000180027760     misc.obj
 0002:00002788       ??_R3bad_alloc@std@@8      0000000180027788     misc.obj
 0002:000027a0       ??_R2format_error@io@boost@@8 00000001800277a0     misc.obj
 0002:000027b8       ??_R2?$clone_impl@Ubad_exception_@exception_detail@boost@@@exception_detail@boost@@8 00000001800277b8     misc.obj
 0002:000027f0       ??_R3DateImpl@@8           00000001800277f0     misc.obj
 0002:00002808       ??_R3_Ref_count_base@std@@8 0000000180027808     misc.obj
 0002:00002820       ??_R17?0A@EA@runtime_error@std@@8 0000000180027820     misc.obj
 0002:00002848       ??_R4?$_Ref_count@VDateImpl@@@std@@6B@ 0000000180027848     misc.obj
 0002:00002870       ??_R1A@?0A@EA@?$basic_ostream@_WU?$char_traits@_W@std@@@std@@8 0000000180027870     misc.obj
 0002:00002898       ??_R3?$numpunct@D@std@@8   0000000180027898     misc.obj
 0002:000028b0       ??_R4?$numpunct@D@std@@6B@ 00000001800278b0     misc.obj
 0002:000028d8       ??_R1A@?0A@EA@?$wrapexcept@Ubad_year@gregorian@boost@@@boost@@8 00000001800278d8     misc.obj
 0002:00002900       ??_R2runtime_error@std@@8  0000000180027900     misc.obj
 0002:00002918       ??_R1A@A@3FA@?$basic_ios@DU?$char_traits@D@std@@@std@@8 0000000180027918     misc.obj
 0002:00002940       ??_R4?$numpunct@_W@std@@6B@ 0000000180027940     misc.obj
 0002:00002968       ??_R4bad_array_new_length@std@@6B@ 0000000180027968     misc.obj
 0002:00002990       ??_R4?$clone_impl@Ubad_exception_@exception_detail@boost@@@exception_detail@boost@@6Bexception@2@@ 0000000180027990     misc.obj
 0002:000029b8       ??_R4?$wrapexcept@Vtoo_many_args@io@boost@@@boost@@6Bexception@1@@ 00000001800279b8     misc.obj
 0002:000029e0       ??_R3?$_Ref_count_obj2@VDateDurationImpl@@@std@@8 00000001800279e0     misc.obj
 0002:000029f8       ??_R2ios_base@std@@8       00000001800279f8     misc.obj
 0002:00002a10       ??_R1CI@?0A@EA@exception@std@@8 0000000180027a10     misc.obj
 0002:00002a38       ??_R4TimeDurationImpl@@6B@ 0000000180027a38     misc.obj
 0002:00002a60       ??_R2_Ref_count_base@std@@8 0000000180027a60     misc.obj
 0002:00002a70       ??_R3?$basic_ostream@DU?$char_traits@D@std@@@std@@8 0000000180027a70     misc.obj
 0002:00002a88       ??_R3?$basic_streambuf@_WU?$char_traits@_W@std@@@std@@8 0000000180027a88     misc.obj
 0002:00002aa0       ??_R4?$wrapexcept@Vtoo_few_args@io@boost@@@boost@@6Bclone_base@exception_detail@1@@ 0000000180027aa0     misc.obj
 0002:00002ac8       ??_R1A@A@3FA@?$basic_ios@_WU?$char_traits@_W@std@@@std@@8 0000000180027ac8     misc.obj
 0002:00002af0       ??_R4?$sp_counted_impl_pd@PEAV?$basic_altstringbuf@_WU?$char_traits@_W@std@@V?$allocator@_W@2@@io@boost@@VNo_Op@?$basic_oaltstringstream@_WU?$char_traits@_W@std@@V?$allocator@_W@2@@23@@detail@boost@@6B@ 0000000180027af0     misc.obj
 0002:00002b18       ??_R1A@?0A@EA@?$basic_iostream@DU?$char_traits@D@std@@@std@@8 0000000180027b18     misc.obj
 0002:00002b40       ??_R1A@?0A@EA@?$numpunct@D@std@@8 0000000180027b40     misc.obj
 0002:00002b68       ??_R4?$wrapexcept@Ubad_month@gregorian@boost@@@boost@@6Bclone_base@exception_detail@1@@ 0000000180027b68     misc.obj
 0002:00002b90       ??_R2_Crt_new_delete@std@@8 0000000180027b90     misc.obj
 0002:00002ba0       ??_R4bad_year@gregorian@boost@@6B@ 0000000180027ba0     misc.obj
 0002:00002bc8       ??_R4?$_Ref_count_resource@PEA_WU?$default_delete@$$BY0A@_W@std@@@std@@6B@ 0000000180027bc8     misc.obj
 0002:00002bf0       ??_R3TimerAbstr@yloader@@8 0000000180027bf0     misc.obj
 0002:00002c08       ??_R4?$wrapexcept@Ubad_month@gregorian@boost@@@boost@@6Bexception@1@@ 0000000180027c08     misc.obj
 0002:00002c30       ??_R3ios_base@std@@8       0000000180027c30     misc.obj
 0002:00002c48       ??_R3bad_exception@std@@8  0000000180027c48     misc.obj
 0002:00002c60       ??_R2?$wrapexcept@Ubad_month@gregorian@boost@@@boost@@8 0000000180027c60     misc.obj
 0002:00002ca0       ??_R4bad_lexical_cast@boost@@6B@ 0000000180027ca0     misc.obj
 0002:00002cc8       ??_R3?$basic_streambuf@DU?$char_traits@D@std@@@std@@8 0000000180027cc8     misc.obj
 0002:00002ce0       ??_R1A@?0A@EA@bad_array_new_length@std@@8 0000000180027ce0     misc.obj
 0002:00002d08       ??_R1A@?0A@EA@?$basic_ios@_WU?$char_traits@_W@std@@@std@@8 0000000180027d08     misc.obj
 0002:00002d30       ??_R4?$wrapexcept@Vbad_lexical_cast@boost@@@boost@@6Bclone_base@exception_detail@1@@ 0000000180027d30     misc.obj
 0002:00002d58       ??_R4DateDurationImpl@@6B@ 0000000180027d58     misc.obj
 0002:00002d80       ??_R1A@?0A@EA@?$wrapexcept@Vbad_format_string@io@boost@@@boost@@8 0000000180027d80     misc.obj
 0002:00002da8       ??_R4?$_Ref_count@VTimeDurationImpl@@@std@@6B@ 0000000180027da8     misc.obj
 0002:00002dd0       ??_R3?$basic_stringstream@DU?$char_traits@D@std@@V?$allocator@D@2@@std@@8 0000000180027dd0     misc.obj
 0002:00002de8       ??_R2bad_month@gregorian@boost@@8 0000000180027de8     misc.obj
 0002:00002e10       ??_R2?$_Iosb@H@std@@8      0000000180027e10     misc.obj
 0002:00002e20       ??_R1CA@?0A@EA@exception@boost@@8 0000000180027e20     misc.obj
 0002:00002e48       ??_R3?$sp_counted_impl_p@V?$clone_impl@Ubad_exception_@exception_detail@boost@@@exception_detail@boost@@@detail@boost@@8 0000000180027e48     misc.obj
 0002:00002e60       ??_R4?$clone_impl@Ubad_alloc_@exception_detail@boost@@@exception_detail@boost@@6Bbad_alloc@std@@@ 0000000180027e60     misc.obj
 0002:00002e88       ??_R4?$_Ref_count_resource@PEADU?$default_delete@$$BY0A@D@std@@@std@@6B@ 0000000180027e88     misc.obj
 0002:00002eb0       ??_R1A@A@3EA@ios_base@std@@8 0000000180027eb0     misc.obj
 0002:00002ed8       ??_R4too_many_args@io@boost@@6B@ 0000000180027ed8     misc.obj
 0002:00002f00       ??_R1A@?0A@EA@?$basic_ios@DU?$char_traits@D@std@@@std@@8 0000000180027f00     misc.obj
 0002:00002f28       ??_R2?$wrapexcept@Vbad_format_string@io@boost@@@boost@@8 0000000180027f28     misc.obj
 0002:00002f60       ??_R2bad_exception_@exception_detail@boost@@8 0000000180027f60     misc.obj
 0002:00002f88       ??_R4?$wrapexcept@Ubad_month@gregorian@boost@@@boost@@6Bbad_month@gregorian@1@@ 0000000180027f88     misc.obj
 0002:00002fb0       ??_R4?$wrapexcept@Ubad_year@gregorian@boost@@@boost@@6Bexception@1@@ 0000000180027fb0     misc.obj
 0002:00002fd8       ??_R1A@?0A@EA@DateDurationAbstr@yloader@@8 0000000180027fd8     misc.obj
 0002:00003000       ??_R3?$_Iosb@H@std@@8      0000000180028000     misc.obj
 0002:00003018       ??_R2_Facet_base@std@@8    0000000180028018     misc.obj
 0002:00003028       ??_R2facet@locale@std@@8   0000000180028028     misc.obj
 0002:00003048       ??_R17?0A@EA@?$_Iosb@H@std@@8 0000000180028048     misc.obj
 0002:00003070       ??_R3?$basic_ostream@_WU?$char_traits@_W@std@@@std@@8 0000000180028070     misc.obj
 0002:00003088       ??_R4?$clone_impl@Ubad_exception_@exception_detail@boost@@@exception_detail@boost@@6B@ 0000000180028088     misc.obj
 0002:000030b0       ??_R2TimeDurationImpl@@8   00000001800280b0     misc.obj
 0002:000030c8       ??_R3sp_counted_base@detail@boost@@8 00000001800280c8     misc.obj
 0002:000030e0       ??_R3runtime_error@std@@8  00000001800280e0     misc.obj
 0002:000030f8       ??_R4?$sp_counted_impl_p@V?$clone_impl@Ubad_exception_@exception_detail@boost@@@exception_detail@boost@@@detail@boost@@6B@ 00000001800280f8     misc.obj
 0002:00003120       ??_R3TimeDurationImpl@@8   0000000180028120     misc.obj
 0002:00003138       ??_R2?$basic_ios@DU?$char_traits@D@std@@@std@@8 0000000180028138     misc.obj
 0002:00003158       ??_R4?$basic_ostringstream@_WU?$char_traits@_W@std@@V?$allocator@_W@2@@std@@6B@ 0000000180028158     misc.obj
 0002:00003180       ??_R4bad_alloc_@exception_detail@boost@@6Bexception@2@@ 0000000180028180     misc.obj
 0002:000031a8       ??_R4?$wrapexcept@Vruntime_error@std@@@boost@@6Bexception@1@@ 00000001800281a8     misc.obj
 0002:000031d0       ??_R2TimeDurationAbstr@yloader@@8 00000001800281d0     misc.obj
 0002:000031e0       ??_R2bad_exception@std@@8  00000001800281e0     misc.obj
 0002:000031f8       ??_R4?$wrapexcept@Vtoo_many_args@io@boost@@@boost@@6Btoo_many_args@io@1@@ 00000001800281f8     misc.obj
 0002:00003220       ??_R3?$_Ref_count_obj2@VDateImpl@@@std@@8 0000000180028220     misc.obj
 0002:00003238       ??_R17?0A@EA@bad_month@gregorian@boost@@8 0000000180028238     misc.obj
 0002:00003260       ??_R1A@?0A@EA@format_error@io@boost@@8 0000000180028260     misc.obj
 0002:00003288       ??_R1A@?0A@EA@TimerAbstr@yloader@@8 0000000180028288     misc.obj
 0002:000032b0       ??_R2?$wrapexcept@Vbad_lexical_cast@boost@@@boost@@8 00000001800282b0     misc.obj
 0002:000032e8       ??_R4DateDurationAbstr@yloader@@6B@ 00000001800282e8     misc.obj
 0002:00003310       ??_R3?$basic_istream@DU?$char_traits@D@std@@@std@@8 0000000180028310     misc.obj
 0002:00003328       ??_R3?$basic_iostream@DU?$char_traits@D@std@@@std@@8 0000000180028328     misc.obj
 0002:00003340       ??_R2?$_Ref_count_obj2@VDateDurationImpl@@@std@@8 0000000180028340     misc.obj
 0002:00003358       ??_R1A@?0A@EA@logic_error@std@@8 0000000180028358     misc.obj
 0002:00003380       ??_R17?0A@EA@too_many_args@io@boost@@8 0000000180028380     misc.obj
 0002:000033a8       ??_R1A@?0A@EA@?$clone_impl@Ubad_alloc_@exception_detail@boost@@@exception_detail@boost@@8 00000001800283a8     misc.obj
 0002:000033d0       ??_R1A@BA@3FA@?$basic_ios@_WU?$char_traits@_W@std@@@std@@8 00000001800283d0     misc.obj
 0002:000033f8       ??_R2?$wrapexcept@Vruntime_error@std@@@boost@@8 00000001800283f8     misc.obj
 0002:00003428       ??_R3bad_month@gregorian@boost@@8 0000000180028428     misc.obj
 0002:00003440       ??_R2DateDurationAbstr@yloader@@8 0000000180028440     misc.obj
 0002:00003450       ??_R4?$_Ref_count_obj2@VDateTimeImpl@@@std@@6B@ 0000000180028450     misc.obj
 0002:00003478       ??_R2?$basic_altstringbuf@_WU?$char_traits@_W@std@@V?$allocator@_W@2@@io@boost@@8 0000000180028478     misc.obj
 0002:00003490       ??_R3?$clone_impl@Ubad_alloc_@exception_detail@boost@@@exception_detail@boost@@8 0000000180028490     misc.obj
 0002:000034a8       ??_R1A@?0A@EA@exception@boost@@8 00000001800284a8     misc.obj
 0002:000034d0       ??_R1A@?0A@EA@bad_exception@std@@8 00000001800284d0     misc.obj
 0002:000034f8       ??_R4bad_exception@std@@6B@ 00000001800284f8     misc.obj
 0002:00003520       ??_R2?$basic_streambuf@_WU?$char_traits@_W@std@@@std@@8 0000000180028520     misc.obj
 0002:00003530       ??_R4?$basic_stringbuf@_WU?$char_traits@_W@std@@V?$allocator@_W@2@@std@@6B@ 0000000180028530     misc.obj
 0002:00003558       ??_R4exception@std@@6B@    0000000180028558     misc.obj
 0002:00003580       ??_R4?$wrapexcept@Vruntime_error@std@@@boost@@6Bruntime_error@std@@@ 0000000180028580     misc.obj
 0002:000035a8       ??_R4?$wrapexcept@Ubad_day_of_month@gregorian@boost@@@boost@@6Bclone_base@exception_detail@1@@ 00000001800285a8     misc.obj
 0002:000035d0       ??_R2bad_array_new_length@std@@8 00000001800285d0     misc.obj
 0002:000035f0       ??_R1A@?0A@EA@?$wrapexcept@Vtoo_many_args@io@boost@@@boost@@8 00000001800285f0     misc.obj
 0002:00003618       ??_R2TimerAbstr@yloader@@8 0000000180028618     misc.obj
 0002:00003628       ??_R17?0A@EA@bad_day_of_month@gregorian@boost@@8 0000000180028628     misc.obj
 0002:00003650       ??_R1A@?0A@EA@?$basic_istream@DU?$char_traits@D@std@@@std@@8 0000000180028650     misc.obj
 0002:00003678       ??_R3?$_Ref_count@VDateTimeImpl@@@std@@8 0000000180028678     misc.obj
 0002:00003690       ??_R4?$wrapexcept@Vtoo_few_args@io@boost@@@boost@@6Bexception@1@@ 0000000180028690     misc.obj
 0002:000036b8       ??_R4?$clone_impl@Ubad_exception_@exception_detail@boost@@@exception_detail@boost@@6Bbad_exception@std@@@ 00000001800286b8     misc.obj
 0002:000036e0       ??_R1A@?0A@EA@?$wrapexcept@Ubad_month@gregorian@boost@@@boost@@8 00000001800286e0     misc.obj
 0002:00003708       ??_R3?$wrapexcept@Vbad_format_string@io@boost@@@boost@@8 0000000180028708     misc.obj
 0002:00003720       ??_R3DateTimeAbstr@yloader@@8 0000000180028720     misc.obj
 0002:00003738       ??_R1A@?0A@EA@?$wrapexcept@Vtoo_few_args@io@boost@@@boost@@8 0000000180028738     misc.obj
 0002:00003760       ??_R3?$_Ref_count_resource@PEADU?$default_delete@$$BY0A@D@std@@@std@@8 0000000180028760     misc.obj
 0002:00003778       ??_R4DateTimeImpl@@6B@     0000000180028778     misc.obj
 0002:000037a0       ??_R4clone_base@exception_detail@boost@@6B@ 00000001800287a0     misc.obj
 0002:000037c8       ??_R3?$wrapexcept@Vbad_lexical_cast@boost@@@boost@@8 00000001800287c8     misc.obj
 0002:000037e0       ??_R1A@?0A@EA@sp_counted_base@detail@boost@@8 00000001800287e0     misc.obj
 0002:00003808       ??_R1A@?0A@EA@?$_Ref_count_resource@PEA_WU?$default_delete@$$BY0A@_W@std@@@std@@8 0000000180028808     misc.obj
 0002:00003830       ??_R4TimerImpl@@6B@        0000000180028830     misc.obj
 0002:00003858       ??_R4?$wrapexcept@Ubad_year@gregorian@boost@@@boost@@6Bbad_year@gregorian@1@@ 0000000180028858     misc.obj
 0002:00003880       ??_R17?0A@EA@exception@std@@8 0000000180028880     misc.obj
 0002:000038a8       ??_R3DateDurationImpl@@8   00000001800288a8     misc.obj
 0002:000038c0       ??_R4runtime_error@std@@6B@ 00000001800288c0     misc.obj
 0002:000038e8       ??_R4?$wrapexcept@Ubad_year@gregorian@boost@@@boost@@6Bclone_base@exception_detail@1@@ 00000001800288e8     misc.obj
 0002:00003910       ??_R3?$_Ref_count_obj2@VDateTimeImpl@@@std@@8 0000000180028910     misc.obj
 0002:00003928       ??_R3bad_alloc_@exception_detail@boost@@8 0000000180028928     misc.obj
 0002:00003940       ??_R2?$base_from_member@V?$shared_ptr@V?$basic_altstringbuf@_WU?$char_traits@_W@std@@V?$allocator@_W@2@@io@boost@@@boost@@$0A@@boost@@8 0000000180028940     misc.obj
 0002:00003950       ??_R3_Facet_base@std@@8    0000000180028950     misc.obj
 0002:00003968       ??_R1A@?0A@EA@?$wrapexcept@Ubad_day_of_month@gregorian@boost@@@boost@@8 0000000180028968     misc.obj
 0002:00003990       ??_R1A@?0A@EA@_Ref_count_base@std@@8 0000000180028990     misc.obj
 0002:000039b8       ??_R1A@?0A@EA@TimerImpl@@8 00000001800289b8     misc.obj
 0002:000039e0       ??_R1A@?0A@EA@bad_cast@std@@8 00000001800289e0     misc.obj
 0002:00003a08       ??_R3bad_format_string@io@boost@@8 0000000180028a08     misc.obj
 0002:00003a20       ??_R2?$wrapexcept@Vtoo_few_args@io@boost@@@boost@@8 0000000180028a20     misc.obj
 0002:00003a58       ??_R3TimerImpl@@8          0000000180028a58     misc.obj
 0002:00003a70       ??_R2bad_alloc@std@@8      0000000180028a70     misc.obj
 0002:00003a88       ??_R2?$_Ref_count@VTimeDurationImpl@@@std@@8 0000000180028a88     misc.obj
 0002:00003aa0       ??_R17?0A@EA@out_of_range@std@@8 0000000180028aa0     misc.obj
 0002:00003ac8       ??_R4bad_alloc_@exception_detail@boost@@6Bbad_alloc@std@@@ 0000000180028ac8     misc.obj
 0002:00003af0       ??_R2?$basic_ostream@_WU?$char_traits@_W@std@@@std@@8 0000000180028af0     misc.obj
 0002:00003b18       ??_R1A@?0A@EA@DateTimeImpl@@8 0000000180028b18     misc.obj
 0002:00003b40       ??_R3clone_base@exception_detail@boost@@8 0000000180028b40     misc.obj
 0002:00003b58       ??_R2?$basic_stringbuf@DU?$char_traits@D@std@@V?$allocator@D@2@@std@@8 0000000180028b58     misc.obj
 0002:00003b70       ??_R3_Crt_new_delete@std@@8 0000000180028b70     misc.obj
 0002:00003b88       ??_R2DateDurationImpl@@8   0000000180028b88     misc.obj
 0002:00003ba0       ??_R1A@?0A@EA@runtime_error@std@@8 0000000180028ba0     misc.obj
 0002:00003bc8       ??_R3?$_Ref_count_obj2@VTimeDurationImpl@@@std@@8 0000000180028bc8     misc.obj
 0002:00003be0       ??_R4?$wrapexcept@Vbad_format_string@io@boost@@@boost@@6Bbad_format_string@io@1@@ 0000000180028be0     misc.obj
 0002:00003c08       ??_R1A@?0A@EA@?$basic_ostringstream@_WU?$char_traits@_W@std@@V?$allocator@_W@2@@std@@8 0000000180028c08     misc.obj
 0002:00003c30       ??_R2too_many_args@io@boost@@8 0000000180028c30     misc.obj
 0002:00003c50       ??_R3?$basic_altstringbuf@_WU?$char_traits@_W@std@@V?$allocator@_W@2@@io@boost@@8 0000000180028c50     misc.obj
 0002:00003c68       ??_R3?$wrapexcept@Vtoo_many_args@io@boost@@@boost@@8 0000000180028c68     misc.obj
 0002:00003c80       ??_R1A@?0A@EA@bad_day_of_month@gregorian@boost@@8 0000000180028c80     misc.obj
 0002:00003ca8       ??_R2bad_lexical_cast@boost@@8 0000000180028ca8     misc.obj
 0002:00003cc8       ??_R3bad_exception_@exception_detail@boost@@8 0000000180028cc8     misc.obj
 0002:00003ce0       ??_R17A@3EA@?$_Iosb@H@std@@8 0000000180028ce0     misc.obj
 0002:00003d08       ??_R3?$clone_impl@Ubad_exception_@exception_detail@boost@@@exception_detail@boost@@8 0000000180028d08     misc.obj
 0002:00003d20       ??_R1A@?0A@EA@?$basic_stringstream@DU?$char_traits@D@std@@V?$allocator@D@2@@std@@8 0000000180028d20     misc.obj
 0002:00003d48       ??_R2exception@boost@@8    0000000180028d48     misc.obj
 0002:00003d58       ??_R1A@?0A@EA@exception@std@@8 0000000180028d58     misc.obj
 0002:00003d80       ??_R2?$_Ref_count@VDateTimeImpl@@@std@@8 0000000180028d80     misc.obj
 0002:00003d98       ??_R1A@?0A@EA@?$basic_stringbuf@_WU?$char_traits@_W@std@@V?$allocator@_W@2@@std@@8 0000000180028d98     misc.obj
 0002:00003dc0       ??_R3bad_year@gregorian@boost@@8 0000000180028dc0     misc.obj
 0002:00003dd8       ??_R1A@?0A@EA@bad_format_string@io@boost@@8 0000000180028dd8     misc.obj
 0002:00003e00       ??_R3bad_lexical_cast@boost@@8 0000000180028e00     misc.obj
 0002:00003e18       ??_R1A@?0A@EA@?$basic_streambuf@DU?$char_traits@D@std@@@std@@8 0000000180028e18     misc.obj
 0002:00003e40       ??_R2?$numpunct@_W@std@@8  0000000180028e40     misc.obj
 0002:00003e68       ??_R1A@?0A@EA@_Facet_base@std@@8 0000000180028e68     misc.obj
 0002:00003e90       ??_R1A@?0A@EA@bad_alloc@std@@8 0000000180028e90     misc.obj
 0002:00003eb8       ??_R1A@?0A@EA@bad_exception_@exception_detail@boost@@8 0000000180028eb8     misc.obj
 0002:00003ee0       ??_R3DateDurationAbstr@yloader@@8 0000000180028ee0     misc.obj
 0002:00003ef8       ??_R1A@?0A@EA@clone_base@exception_detail@boost@@8 0000000180028ef8     misc.obj
 0002:00003f20       ??_R4?$wrapexcept@Vbad_format_string@io@boost@@@boost@@6Bexception@1@@ 0000000180028f20     misc.obj
 0002:00003f48       ??_R2DateTimeAbstr@yloader@@8 0000000180028f48     misc.obj
 0002:00003f58       ??_R3format_error@io@boost@@8 0000000180028f58     misc.obj
 0002:00003f70       ??_R17?0A@EA@bad_lexical_cast@boost@@8 0000000180028f70     misc.obj
 0002:00003f98       ??_R1A@?0A@EA@bad_year@gregorian@boost@@8 0000000180028f98     misc.obj
 0002:00003fc0       ??_R3?$_Ref_count@VDateImpl@@@std@@8 0000000180028fc0     misc.obj
 0002:00003fd8       ??_R2sp_counted_base@detail@boost@@8 0000000180028fd8     misc.obj
 0002:00003fe8       ??_R2?$basic_istream@DU?$char_traits@D@std@@@std@@8 0000000180028fe8     misc.obj
 0002:00004010       ??_R3bad_day_of_month@gregorian@boost@@8 0000000180029010     misc.obj
 0002:00004028       ??_R4bad_day_of_month@gregorian@boost@@6B@ 0000000180029028     misc.obj
 0002:00004050       ??_R2?$_Ref_count_obj2@VTimeDurationImpl@@@std@@8 0000000180029050     misc.obj
 0002:00004068       ??_R2logic_error@std@@8    0000000180029068     misc.obj
 0002:00004080       ??_R1A@?0A@EA@?$sp_counted_impl_p@V?$clone_impl@Ubad_alloc_@exception_detail@boost@@@exception_detail@boost@@@detail@boost@@8 0000000180029080     misc.obj
 0002:000040a8       ??_R17?0A@EA@logic_error@std@@8 00000001800290a8     misc.obj
 0002:000040d0       ??_R1A@?0A@EA@?$_Ref_count_obj2@VTimeDurationImpl@@@std@@8 00000001800290d0     misc.obj
 0002:000040f8       ??_R17?0A@EA@bad_format_string@io@boost@@8 00000001800290f8     misc.obj
 0002:00004120       ??_R1A@?0A@EA@DateTimeAbstr@yloader@@8 0000000180029120     misc.obj
 0002:00004148       ??_R17?0A@EA@_Crt_new_delete@std@@8 0000000180029148     misc.obj
 0002:00004170       ??_R2?$_Ref_count_obj2@VDateImpl@@@std@@8 0000000180029170     misc.obj
 0002:00004188       ??_R3?$sp_counted_impl_p@V?$clone_impl@Ubad_alloc_@exception_detail@boost@@@exception_detail@boost@@@detail@boost@@8 0000000180029188     misc.obj
 0002:000041a0       ??_R4?$wrapexcept@Ubad_day_of_month@gregorian@boost@@@boost@@6Bbad_day_of_month@gregorian@1@@ 00000001800291a0     misc.obj
 0002:000041c8       ??_R4?$_Ref_count@VDateTimeImpl@@@std@@6B@ 00000001800291c8     misc.obj
 0002:000041f0       ??_R4?$sp_counted_impl_p@V?$clone_impl@Ubad_alloc_@exception_detail@boost@@@exception_detail@boost@@@detail@boost@@6B@ 00000001800291f0     misc.obj
 0002:00004218       ??_R2?$_Ref_count_resource@PEA_WU?$default_delete@$$BY0A@_W@std@@@std@@8 0000000180029218     misc.obj
 0002:00004230       ??_R1A@?0A@EA@DateAbstr@yloader@@8 0000000180029230     misc.obj
 0002:00004258       ??_R4DateTimeAbstr@yloader@@6B@ 0000000180029258     misc.obj
 0002:00004280       ??_R3?$basic_ostringstream@_WU?$char_traits@_W@std@@V?$allocator@_W@2@@std@@8 0000000180029280     misc.obj
 0002:00004298       ??_R3?$_Ref_count@VTimeDurationImpl@@@std@@8 0000000180029298     misc.obj
 0002:000042b0       ??_R2bad_format_string@io@boost@@8 00000001800292b0     misc.obj
 0002:000042d0       ??_R4?$wrapexcept@Vbad_format_string@io@boost@@@boost@@6Bclone_base@exception_detail@1@@ 00000001800292d0     misc.obj
 0002:000042f8       ??_R3?$basic_stringbuf@DU?$char_traits@D@std@@V?$allocator@D@2@@std@@8 00000001800292f8     misc.obj
 0002:00004310       ??_R3?$wrapexcept@Vruntime_error@std@@@boost@@8 0000000180029310     misc.obj
 0002:00004328       ??_R2bad_cast@std@@8       0000000180029328     misc.obj
 0002:00004340       ??_R2exception@std@@8      0000000180029340     misc.obj
 0002:00004350       ??_R4bad_exception_@exception_detail@boost@@6Bbad_exception@std@@@ 0000000180029350     misc.obj
 0002:00004378       ??_R2?$basic_ostream@DU?$char_traits@D@std@@@std@@8 0000000180029378     misc.obj
 0002:000043a0       ??_R3?$basic_oaltstringstream@_WU?$char_traits@_W@std@@V?$allocator@_W@2@@io@boost@@8 00000001800293a0     misc.obj
 0002:000043b8       ??_R3?$basic_ios@DU?$char_traits@D@std@@@std@@8 00000001800293b8     misc.obj
 0002:000043d0       ??_R2DateTimeImpl@@8       00000001800293d0     misc.obj
 0002:000043e8       ??_R4bad_format_string@io@boost@@6B@ 00000001800293e8     misc.obj
 0002:00004410       ??_R1A@?0A@EA@DateImpl@@8  0000000180029410     misc.obj
 0002:00004438       ??_R2?$sp_counted_impl_p@V?$clone_impl@Ubad_alloc_@exception_detail@boost@@@exception_detail@boost@@@detail@boost@@8 0000000180029438     misc.obj
 0002:00004450       ??_R1A@?0A@EA@?$basic_oaltstringstream@_WU?$char_traits@_W@std@@V?$allocator@_W@2@@io@boost@@8 0000000180029450     misc.obj
 0002:00004478       ??_R2DateImpl@@8           0000000180029478     misc.obj
 0002:00004490       ??_R1CI@?0A@EA@bad_exception@std@@8 0000000180029490     misc.obj
 0002:000044b8       ??_R2?$_Ref_count_obj2@VDateTimeImpl@@@std@@8 00000001800294b8     misc.obj
 0002:000044d0       ??_R3?$sp_counted_impl_pd@PEAV?$basic_altstringbuf@_WU?$char_traits@_W@std@@V?$allocator@_W@2@@io@boost@@VNo_Op@?$basic_oaltstringstream@_WU?$char_traits@_W@std@@V?$allocator@_W@2@@23@@detail@boost@@8 00000001800294d0     misc.obj
 0002:000044e8       ??_R3DateAbstr@yloader@@8  00000001800294e8     misc.obj
 0002:00004500       ??_R1A@?0A@EA@out_of_range@std@@8 0000000180029500     misc.obj
 0002:00004528       ??_R4DateAbstr@yloader@@6B@ 0000000180029528     misc.obj
 0002:00004550       ??_R1A@?0A@EA@?$_Ref_count_resource@PEADU?$default_delete@$$BY0A@D@std@@@std@@8 0000000180029550     misc.obj
 0002:00004578       ??_R3?$wrapexcept@Ubad_year@gregorian@boost@@@boost@@8 0000000180029578     misc.obj
 0002:00004590       ??_R4?$wrapexcept@Vtoo_many_args@io@boost@@@boost@@6Bclone_base@exception_detail@1@@ 0000000180029590     misc.obj
 0002:000045b8       ??_R1A@?0A@EA@facet@locale@std@@8 00000001800295b8     misc.obj
 0002:000045e0       ??_R2?$basic_ios@_WU?$char_traits@_W@std@@@std@@8 00000001800295e0     misc.obj
 0002:00004600       ??_R3?$wrapexcept@Vtoo_few_args@io@boost@@@boost@@8 0000000180029600     misc.obj
 0002:00004618       ??_R1A@?0A@EA@?$_Ref_count_obj2@VDateImpl@@@std@@8 0000000180029618     misc.obj
 0002:00004640       ??_R2?$_Ref_count_resource@PEADU?$default_delete@$$BY0A@D@std@@@std@@8 0000000180029640     misc.obj
 0002:00004658       ??_R1A@?0A@EA@?$_Ref_count_obj2@VDateDurationImpl@@@std@@8 0000000180029658     misc.obj
 0002:00004680       ??_R1A@?0A@EA@bad_lexical_cast@boost@@8 0000000180029680     misc.obj
 0002:000046a8       ??_R1A@?0A@EA@?$_Ref_count@VDateTimeImpl@@@std@@8 00000001800296a8     misc.obj
 0002:000046d0       ??_R3too_many_args@io@boost@@8 00000001800296d0     misc.obj
 0002:000046e8       ??_R17?0A@EA@format_error@io@boost@@8 00000001800296e8     misc.obj
 0002:00004710       ??_R4?$wrapexcept@Vbad_lexical_cast@boost@@@boost@@6Bexception@1@@ 0000000180029710     misc.obj
 0002:00004738       ??_R1A@?0A@EA@bad_month@gregorian@boost@@8 0000000180029738     misc.obj
 0002:00004760       ??_R4sp_counted_base@detail@boost@@6B@ 0000000180029760     misc.obj
 0002:00004788       ??_R3?$basic_stringbuf@_WU?$char_traits@_W@std@@V?$allocator@_W@2@@std@@8 0000000180029788     misc.obj
 0002:000047a0       ??_R4?$wrapexcept@Vruntime_error@std@@@boost@@6Bclone_base@exception_detail@1@@ 00000001800297a0     misc.obj
 0002:000047c8       ??_R1A@?0A@EA@DateDurationImpl@@8 00000001800297c8     misc.obj
 0002:000047f0       ??_R2too_few_args@io@boost@@8 00000001800297f0     misc.obj
 0002:00004810       ??_R4?$basic_oaltstringstream@_WU?$char_traits@_W@std@@V?$allocator@_W@2@@io@boost@@6B@ 0000000180029810     misc.obj
 0002:00004838       ??_R3?$numpunct@_W@std@@8  0000000180029838     misc.obj
 0002:00004850       ??_R4format_error@io@boost@@6B@ 0000000180029850     misc.obj
 0002:00004878       ??_R1A@?0A@EA@?$wrapexcept@Vruntime_error@std@@@boost@@8 0000000180029878     misc.obj
 0002:000048a0       ??_R1A@?0A@EA@?$basic_altstringbuf@_WU?$char_traits@_W@std@@V?$allocator@_W@2@@io@boost@@8 00000001800298a0     misc.obj
 0002:000048c8       ??_R3too_few_args@io@boost@@8 00000001800298c8     misc.obj
 0002:000048e0       ??_R4?$clone_impl@Ubad_alloc_@exception_detail@boost@@@exception_detail@boost@@6B@ 00000001800298e0     misc.obj
 0002:00004908       ??_R4out_of_range@std@@6B@ 0000000180029908     misc.obj
 0002:00004930       ??_R1A@?0A@EA@?$_Ref_count_obj2@VDateTimeImpl@@@std@@8 0000000180029930     misc.obj
 0002:00004958       ??_R4?$wrapexcept@Ubad_day_of_month@gregorian@boost@@@boost@@6Bexception@1@@ 0000000180029958     misc.obj
 0002:00004980       ??_R1A@?0A@EA@?$numpunct@_W@std@@8 0000000180029980     misc.obj
 0002:000049a8       ??_R1A@BA@3EA@ios_base@std@@8 00000001800299a8     misc.obj
 0002:000049d0       ??_R2?$wrapexcept@Ubad_day_of_month@gregorian@boost@@@boost@@8 00000001800299d0     misc.obj
 0002:00004a10       ??_R3DateTimeImpl@@8       0000000180029a10     misc.obj
 0002:00004a28       ??_R1A@?0A@EA@TimeDurationImpl@@8 0000000180029a28     misc.obj
 0002:00004a50       ??_R4DateImpl@@6B@         0000000180029a50     misc.obj
 0002:00004a78       ??_R1A@?0A@EA@?$sp_counted_impl_p@V?$clone_impl@Ubad_exception_@exception_detail@boost@@@exception_detail@boost@@@detail@boost@@8 0000000180029a78     misc.obj
 0002:00004aa0       ??_R2?$sp_counted_impl_p@V?$clone_impl@Ubad_exception_@exception_detail@boost@@@exception_detail@boost@@@detail@boost@@8 0000000180029aa0     misc.obj
 0002:00004ab8       ??_R1DA@?0A@EA@exception@boost@@8 0000000180029ab8     misc.obj
 0002:00004ae0       ??_R2bad_year@gregorian@boost@@8 0000000180029ae0     misc.obj
 0002:00004b08       ??_R1A@EA@3FA@clone_base@exception_detail@boost@@8 0000000180029b08     misc.obj
 0002:00004b30       ??_R3?$basic_ios@_WU?$char_traits@_W@std@@@std@@8 0000000180029b30     misc.obj
 0002:00004b48       ??_R4?$clone_impl@Ubad_alloc_@exception_detail@boost@@@exception_detail@boost@@6Bexception@2@@ 0000000180029b48     misc.obj
 0002:00004b70       ??_R3logic_error@std@@8    0000000180029b70     misc.obj
 0002:00004b88       ??_R1BA@?0A@EA@?$basic_ostream@DU?$char_traits@D@std@@@std@@8 0000000180029b88     misc.obj
 0002:00004bb0       ??_R1A@?0A@EA@?$_Ref_count@VTimeDurationImpl@@@std@@8 0000000180029bb0     misc.obj
 0002:00004bd8       ??_R1A@?0A@EA@?$clone_impl@Ubad_exception_@exception_detail@boost@@@exception_detail@boost@@8 0000000180029bd8     misc.obj
 0002:00004c00       ??_R3?$base_from_member@V?$shared_ptr@V?$basic_altstringbuf@_WU?$char_traits@_W@std@@V?$allocator@_W@2@@io@boost@@@boost@@$0A@@boost@@8 0000000180029c00     misc.obj
 0002:00004c18       ??_R1A@?0A@EA@ios_base@std@@8 0000000180029c18     misc.obj
 0002:00004c40       ??_R2?$basic_oaltstringstream@_WU?$char_traits@_W@std@@V?$allocator@_W@2@@io@boost@@8 0000000180029c40     misc.obj
 0002:00004c78       ??_R1A@?0A@EA@too_few_args@io@boost@@8 0000000180029c78     misc.obj
 0002:00004ca0       ??_R3exception@std@@8      0000000180029ca0     misc.obj
 0002:00004cb8       ??_R4bad_month@gregorian@boost@@6B@ 0000000180029cb8     misc.obj
 0002:00004ce0       ??_R2bad_day_of_month@gregorian@boost@@8 0000000180029ce0     misc.obj
 0002:00004d08       ??_R2?$basic_stringbuf@_WU?$char_traits@_W@std@@V?$allocator@_W@2@@std@@8 0000000180029d08     misc.obj
 0002:00004d20       ??_R17?0A@EA@too_few_args@io@boost@@8 0000000180029d20     misc.obj
 0002:00004d48       ??_R1A@?0A@EA@?$basic_ostream@DU?$char_traits@D@std@@@std@@8 0000000180029d48     misc.obj
 0002:00004d70       ??_R2?$sp_counted_impl_pd@PEAV?$basic_altstringbuf@_WU?$char_traits@_W@std@@V?$allocator@_W@2@@io@boost@@VNo_Op@?$basic_oaltstringstream@_WU?$char_traits@_W@std@@V?$allocator@_W@2@@23@@detail@boost@@8 0000000180029d70     misc.obj
 0002:00004d88       ??_R2bad_alloc_@exception_detail@boost@@8 0000000180029d88     misc.obj
 0002:00004db0       ??_R4logic_error@std@@6B@  0000000180029db0     misc.obj
 0002:00004dd8       ??_R2?$_Ref_count@VDateImpl@@@std@@8 0000000180029dd8     misc.obj
 0002:00004df0       ??_R4?$wrapexcept@Vtoo_few_args@io@boost@@@boost@@6Btoo_few_args@io@1@@ 0000000180029df0     misc.obj
 0002:00004e18       ??_R1CI@?0A@EA@bad_alloc@std@@8 0000000180029e18     misc.obj
 0002:00004e40       ??_R2TimerImpl@@8          0000000180029e40     misc.obj
 0002:00004e58       ??_R2DateAbstr@yloader@@8  0000000180029e58     misc.obj
 0002:00004e68       ??_R2?$numpunct@D@std@@8   0000000180029e68     misc.obj
 0002:00004e90       ??_R2clone_base@exception_detail@boost@@8 0000000180029e90     misc.obj
 0002:00004ea0       ??_R1A@?0A@EA@?$sp_counted_impl_pd@PEAV?$basic_altstringbuf@_WU?$char_traits@_W@std@@V?$allocator@_W@2@@io@boost@@VNo_Op@?$basic_oaltstringstream@_WU?$char_traits@_W@std@@V?$allocator@_W@2@@23@@detail@boost@@8 0000000180029ea0     misc.obj
 0002:00004ec8       ??_R17BA@3EA@?$_Iosb@H@std@@8 0000000180029ec8     misc.obj
 0002:00004ef0       ??_R3?$wrapexcept@Ubad_day_of_month@gregorian@boost@@@boost@@8 0000000180029ef0     misc.obj
 0002:00004f08       ??_R2out_of_range@std@@8   0000000180029f08     misc.obj
 0002:00004f28       ??_R4?$_Ref_count_obj2@VDateImpl@@@std@@6B@ 0000000180029f28     misc.obj
 0002:00004f50       ??_R3TimeDurationAbstr@yloader@@8 0000000180029f50     misc.obj
 0002:00004f68       ??_R2?$basic_streambuf@DU?$char_traits@D@std@@@std@@8 0000000180029f68     misc.obj
 0002:00004f78       ??_R2?$wrapexcept@Vtoo_many_args@io@boost@@@boost@@8 0000000180029f78     misc.obj
 0002:00004fb0       ??_R1A@?0A@EA@?$_Iosb@H@std@@8 0000000180029fb0     misc.obj
 0002:00004fd8       ??_R1A@?0A@EA@?$basic_streambuf@_WU?$char_traits@_W@std@@@std@@8 0000000180029fd8     misc.obj
 0002:00005000       ??_R4too_few_args@io@boost@@6B@ 000000018002a000     misc.obj
 0002:00005028       ??_R2?$wrapexcept@Ubad_year@gregorian@boost@@@boost@@8 000000018002a028     misc.obj
 0002:00005068       ??_R1BA@?0A@EA@?$basic_ostream@_WU?$char_traits@_W@std@@@std@@8 000000018002a068     misc.obj
 0002:00005090       ??_R4TimerAbstr@yloader@@6B@ 000000018002a090     misc.obj
 0002:000050b8       ??_R3facet@locale@std@@8   000000018002a0b8     misc.obj
 0002:000050d0       ??_R1A@?0A@EA@?$basic_stringbuf@DU?$char_traits@D@std@@V?$allocator@D@2@@std@@8 000000018002a0d0     misc.obj
 0002:000050f8       ??_R3?$wrapexcept@Ubad_month@gregorian@boost@@@boost@@8 000000018002a0f8     misc.obj
 0002:00005110       ??_R3?$_Ref_count_resource@PEA_WU?$default_delete@$$BY0A@_W@std@@@std@@8 000000018002a110     misc.obj
 0002:00005128       ??_R1A@?0A@EA@?$_Ref_count@VDateImpl@@@std@@8 000000018002a128     misc.obj
 0002:00005150       ??_R17?0A@EA@bad_cast@std@@8 000000018002a150     misc.obj
 0002:00005178       ??_R1A@?0A@EA@too_many_args@io@boost@@8 000000018002a178     misc.obj
 0002:000051a0       ??_R4?$_Ref_count_obj2@VTimeDurationImpl@@@std@@6B@ 000000018002a1a0     misc.obj
 0002:000051d0       ??_R2?$basic_iostream@DU?$char_traits@D@std@@@std@@8 000000018002a1d0     misc.obj
 0002:00005220       ??_R3bad_cast@std@@8       000000018002a220     misc.obj
 0002:00005238       ??_R1A@?0A@EA@bad_alloc_@exception_detail@boost@@8 000000018002a238     misc.obj
 0002:00005260       ??_R4bad_alloc@std@@6B@    000000018002a260     misc.obj
 0002:00005288       ??_R1A@?0A@EA@?$base_from_member@V?$shared_ptr@V?$basic_altstringbuf@_WU?$char_traits@_W@std@@V?$allocator@_W@2@@io@boost@@@boost@@$0A@@boost@@8 000000018002a288     misc.obj
 0002:000052b0       ??_R2?$basic_stringstream@DU?$char_traits@D@std@@V?$allocator@D@2@@std@@8 000000018002a2b0     misc.obj
 0002:00005308       ??_R2?$_Ref_count@VNameValue@yloader@@@std@@8 000000018002a308     namevalue.obj
 0002:00005320       ??_R4?$_Ref_count@VNameValue@yloader@@@std@@6B@ 000000018002a320     namevalue.obj
 0002:00005348       ??_R2?$_Ref_count@V?$basic_string@_WU?$char_traits@_W@std@@V?$allocator@_W@2@@std@@@std@@8 000000018002a348     namevalue.obj
 0002:00005360       ??_R1A@?0A@EA@?$_Ref_count@VNameValue@yloader@@@std@@8 000000018002a360     namevalue.obj
 0002:00005388       ??_R3?$_Ref_count@V?$basic_string@_WU?$char_traits@_W@std@@V?$allocator@_W@2@@std@@@std@@8 000000018002a388     namevalue.obj
 0002:000053a0       ??_R4?$_Ref_count@V?$basic_string@_WU?$char_traits@_W@std@@V?$allocator@_W@2@@std@@@std@@6B@ 000000018002a3a0     namevalue.obj
 0002:000053c8       ??_R1A@?0A@EA@?$_Ref_count@V?$basic_string@_WU?$char_traits@_W@std@@V?$allocator@_W@2@@std@@@std@@8 000000018002a3c8     namevalue.obj
 0002:000053f0       ??_R3?$_Ref_count@VNameValue@yloader@@@std@@8 000000018002a3f0     namevalue.obj
 0002:00005404       __volatile_metadata        000000018002a404     <linker-defined>
 0002:00005890       __rtc_iaa                  000000018002a890     MSVCRT:initsect.obj
 0002:00005898       __rtc_izz                  000000018002a898     MSVCRT:initsect.obj
 0002:000058a0       __rtc_taa                  000000018002a8a0     MSVCRT:initsect.obj
 0002:000058a8       __rtc_tzz                  000000018002a8a8     MSVCRT:initsect.obj
 0002:000058b0       _tls_start                 000000018002a8b0     MSVCRT:tlssup.obj
 0002:000058b4       _Init_thread_epoch         000000018002a8b4     MSVCRT:thread_safe_statics.obj
 0002:000058b8       _tls_end                   000000018002a8b8     MSVCRT:tlssup.obj
 0002:00009140       _TI2?AVbad_alloc@std@@     000000018002e140     MSVCRT:throw_bad_alloc.obj
 0002:00009160       _CTA2?AVbad_alloc@std@@    000000018002e160     MSVCRT:throw_bad_alloc.obj
 0002:00009178       _TI6?AV?$clone_impl@Ubad_exception_@exception_detail@boost@@@exception_detail@boost@@ 000000018002e178     misc.obj
 0002:00009198       _CT??_R0?AVbad_alloc@std@@@8??0bad_alloc@std@@QEAA@AEBV01@@Z2440 000000018002e198     misc.obj
 0002:000091c0       _CT??_R0?AVbad_cast@std@@@8??0bad_cast@std@@QEAA@AEBV01@@Z24 000000018002e1c0     misc.obj
 0002:000091e8       _CT??_R0?AVbad_alloc@std@@@8??0bad_alloc@std@@QEAA@AEBV01@@Z24 000000018002e1e8     misc.obj
 0002:00009210       _CTA5?AU?$wrapexcept@Vruntime_error@std@@@boost@@ 000000018002e210     misc.obj
 0002:00009240       _CT??_R0?AU?$wrapexcept@Vbad_lexical_cast@boost@@@boost@@@8??0?$wrapexcept@Vbad_lexical_cast@boost@@@boost@@QEAA@AEBU01@@Z88 000000018002e240     misc.obj
 0002:00009268       _CTA6?AU?$wrapexcept@Vtoo_few_args@io@boost@@@boost@@ 000000018002e268     misc.obj
 0002:000092a0       _CT??_R0?AUbad_month@gregorian@boost@@@8??0bad_month@gregorian@boost@@QEAA@AEBU012@@Z248 000000018002e2a0     misc.obj
 0002:000092c8       _TI6?AU?$wrapexcept@Vtoo_few_args@io@boost@@@boost@@ 000000018002e2c8     misc.obj
 0002:000092e8       _CT??_R0?AUbad_day_of_month@gregorian@boost@@@8??0bad_day_of_month@gregorian@boost@@QEAA@AEBU012@@Z248 000000018002e2e8     misc.obj
 0002:00009310       _TI7?AU?$wrapexcept@Ubad_day_of_month@gregorian@boost@@@boost@@ 000000018002e310     misc.obj
 0002:00009330       _TI1?AVDateException@yloader@@ 000000018002e330     misc.obj
 0002:00009350       _CT??_R0?AVexception@boost@@@8??0exception@boost@@QEAA@AEBV01@@Z4048 000000018002e350     misc.obj
 0002:00009378       _CT??_R0?AU?$wrapexcept@Vtoo_many_args@io@boost@@@boost@@@8??0?$wrapexcept@Vtoo_many_args@io@boost@@@boost@@QEAA@AEBU01@@Z88 000000018002e378     misc.obj
 0002:000093a0       _CT??_R0?AV?$clone_impl@Ubad_alloc_@exception_detail@boost@@@exception_detail@boost@@@8??0?$clone_impl@Ubad_alloc_@exception_detail@boost@@@exception_detail@boost@@QEAA@AEBV012@@Z88 000000018002e3a0     misc.obj
 0002:000093c8       _CT??_R0?AVexception@std@@@8??0exception@std@@QEAA@AEBV01@@Z24 000000018002e3c8     misc.obj
 0002:000093f0       _CT??_R0?AU?$wrapexcept@Vruntime_error@std@@@boost@@@8??0?$wrapexcept@Vruntime_error@std@@@boost@@QEAA@AEBU01@@Z72 000000018002e3f0     misc.obj
 0002:00009418       _TI3?AVbad_array_new_length@std@@ 000000018002e418     misc.obj
 0002:00009438       _CT??_R0?AVruntime_error@std@@@8??0runtime_error@std@@QEAA@AEBV01@@Z248 000000018002e438     misc.obj
 0002:00009460       _CT??_R0?AUbad_alloc_@exception_detail@boost@@@8??0bad_alloc_@exception_detail@boost@@QEAA@AEBU012@@Z64 000000018002e460     misc.obj
 0002:00009488       _CT??_R0?AVexception@std@@@8??0exception@std@@QEAA@AEBV01@@Z2440 000000018002e488     misc.obj
 0002:000094b0       _CT??_R0?AVout_of_range@std@@@8??0out_of_range@std@@QEAA@AEBV01@@Z248 000000018002e4b0     misc.obj
 0002:000094d8       _CT??_R0?AU?$wrapexcept@Ubad_year@gregorian@boost@@@boost@@@8??0?$wrapexcept@Ubad_year@gregorian@boost@@@boost@@QEAA@AEBU01@@Z72 000000018002e4d8     misc.obj
 0002:00009500       _CT??_R0?AVbad_cast@std@@@8??0bad_cast@std@@QEAA@AEBV01@@Z248 000000018002e500     misc.obj
 0002:00009528       _CT??_R0?AVformat_error@io@boost@@@8??0format_error@io@boost@@QEAA@AEBV012@@Z248 000000018002e528     misc.obj
 0002:00009550       _CT??_R0?AVexception@boost@@@8??0exception@boost@@QEAA@AEBV01@@Z40 000000018002e550     misc.obj
 0002:00009578       _CTA7?AU?$wrapexcept@Ubad_year@gregorian@boost@@@boost@@ 000000018002e578     misc.obj
 0002:000095b8       _TI6?AU?$wrapexcept@Vtoo_many_args@io@boost@@@boost@@ 000000018002e5b8     misc.obj
 0002:000095d8       _CT??_R0?AUbad_year@gregorian@boost@@@8??0bad_year@gregorian@boost@@QEAA@AEBU012@@Z248 000000018002e5d8     misc.obj
 0002:00009600       _TI5?AU?$wrapexcept@Vruntime_error@std@@@boost@@ 000000018002e600     misc.obj
 0002:00009620       _CT??_R0?AVlogic_error@std@@@8??0logic_error@std@@QEAA@AEBV01@@Z248 000000018002e620     misc.obj
 0002:00009648       _CTA3?AVbad_array_new_length@std@@ 000000018002e648     misc.obj
 0002:00009668       _CT??_R0?AUbad_exception_@exception_detail@boost@@@8??0bad_exception_@exception_detail@boost@@QEAA@AEBU012@@Z64 000000018002e668     misc.obj
 0002:00009690       _CTA6?AU?$wrapexcept@Vtoo_many_args@io@boost@@@boost@@ 000000018002e690     misc.obj
 0002:000096c8       _TI1?AVVersionException@yloader@@ 000000018002e6c8     misc.obj
 0002:000096e8       _TI7?AU?$wrapexcept@Ubad_month@gregorian@boost@@@boost@@ 000000018002e6e8     misc.obj
 0002:00009708       _CTA1?AVVersionException@yloader@@ 000000018002e708     misc.obj
 0002:00009718       _CTA1?AVDateException@yloader@@ 000000018002e718     misc.obj
 0002:00009728       _CT??_R0?AV?$clone_impl@Ubad_exception_@exception_detail@boost@@@exception_detail@boost@@@8??0?$clone_impl@Ubad_exception_@exception_detail@boost@@@exception_detail@boost@@QEAA@AEBV012@@Z88 000000018002e728     misc.obj
 0002:00009750       _CTA2?AVbad_cast@std@@     000000018002e750     misc.obj
 0002:00009768       _CT??_R0?AVbad_lexical_cast@boost@@@8??0bad_lexical_cast@boost@@QEAA@AEBV01@@Z408 000000018002e768     misc.obj
 0002:00009790       _TI6?AU?$wrapexcept@Vbad_format_string@io@boost@@@boost@@ 000000018002e790     misc.obj
 0002:000097b0       _CT??_R0?AVbad_exception@std@@@8??0bad_exception@std@@QEAA@AEBV01@@Z2440 000000018002e7b0     misc.obj
 0002:000097d8       _TI7?AU?$wrapexcept@Ubad_year@gregorian@boost@@@boost@@ 000000018002e7d8     misc.obj
 0002:000097f8       _CT??_R0?AU?$wrapexcept@Ubad_day_of_month@gregorian@boost@@@boost@@@8??0?$wrapexcept@Ubad_day_of_month@gregorian@boost@@@boost@@QEAA@AEBU01@@Z72 000000018002e7f8     misc.obj
 0002:00009820       _CT??_R0?AVclone_base@exception_detail@boost@@@8??0clone_base@exception_detail@boost@@QEAA@AEBV012@@Z8 000000018002e820     misc.obj
 0002:00009848       _TI6?AV?$clone_impl@Ubad_alloc_@exception_detail@boost@@@exception_detail@boost@@ 000000018002e848     misc.obj
 0002:00009868       _CTA6?AU?$wrapexcept@Vbad_lexical_cast@boost@@@boost@@ 000000018002e868     misc.obj
 0002:000098a0       _CT??_R0?AVDateException@yloader@@@8??0DateException@yloader@@QEAA@AEBV01@@Z64 000000018002e8a0     misc.obj
 0002:000098c8       _TI2?AVbad_cast@std@@      000000018002e8c8     misc.obj
 0002:000098e8       _CT??_R0?AVVersionException@yloader@@@8??0VersionException@yloader@@QEAA@AEBV01@@Z32 000000018002e8e8     misc.obj
 0002:00009910       _CT??_R0?AU?$wrapexcept@Vtoo_few_args@io@boost@@@boost@@@8??0?$wrapexcept@Vtoo_few_args@io@boost@@@boost@@QEAA@AEBU01@@Z88 000000018002e910     misc.obj
 0002:00009938       _CTA6?AU?$wrapexcept@Vbad_format_string@io@boost@@@boost@@ 000000018002e938     misc.obj
 0002:00009970       _CTA6?AV?$clone_impl@Ubad_exception_@exception_detail@boost@@@exception_detail@boost@@ 000000018002e970     misc.obj
 0002:000099a8       _CT??_R0?AVbad_format_string@io@boost@@@8??0bad_format_string@io@boost@@QEAA@AEBV012@@Z408 000000018002e9a8     misc.obj
 0002:000099d0       _CTA7?AU?$wrapexcept@Ubad_month@gregorian@boost@@@boost@@ 000000018002e9d0     misc.obj
 0002:00009a10       _CT??_R0?AVexception@std@@@8??0exception@std@@QEAA@AEBV01@@Z248 000000018002ea10     misc.obj
 0002:00009a38       _CTA6?AV?$clone_impl@Ubad_alloc_@exception_detail@boost@@@exception_detail@boost@@ 000000018002ea38     misc.obj
 0002:00009a70       _CT??_R0?AVtoo_many_args@io@boost@@@8??0too_many_args@io@boost@@QEAA@AEBV012@@Z408 000000018002ea70     misc.obj
 0002:00009a98       _CT??_R0?AVbad_array_new_length@std@@@8??0bad_array_new_length@std@@QEAA@AEBV01@@Z24 000000018002ea98     misc.obj
 0002:00009ac0       _CTA7?AU?$wrapexcept@Ubad_day_of_month@gregorian@boost@@@boost@@ 000000018002eac0     misc.obj
 0002:00009b00       _TI6?AU?$wrapexcept@Vbad_lexical_cast@boost@@@boost@@ 000000018002eb00     misc.obj
 0002:00009b20       _CT??_R0?AU?$wrapexcept@Ubad_month@gregorian@boost@@@boost@@@8??0?$wrapexcept@Ubad_month@gregorian@boost@@@boost@@QEAA@AEBU01@@Z72 000000018002eb20     misc.obj
 0002:00009b48       _CT??_R0?AVclone_base@exception_detail@boost@@@8??0clone_base@exception_detail@boost@@QEAA@AEBV012@@Z80644 000000018002eb48     misc.obj
 0002:00009b70       _CT??_R0?AVtoo_few_args@io@boost@@@8??0too_few_args@io@boost@@QEAA@AEBV012@@Z408 000000018002eb70     misc.obj
 0002:00009b98       _CT??_R0?AVexception@boost@@@8??0exception@boost@@QEAA@AEBV01@@Z4032 000000018002eb98     misc.obj
 0002:00009bc0       _CT??_R0?AU?$wrapexcept@Vbad_format_string@io@boost@@@boost@@@8??0?$wrapexcept@Vbad_format_string@io@boost@@@boost@@QEAA@AEBU01@@Z88 000000018002ebc0     misc.obj
 0002:00016b28       __IMPORT_DESCRIPTOR_KERNEL32 000000018003bb28     kernel32:KERNEL32.dll
 0002:00016b3c       __IMPORT_DESCRIPTOR_MSVCP140 000000018003bb3c     msvcprt:MSVCP140.dll
 0002:00016b50       __IMPORT_DESCRIPTOR_VCRUNTIME140_1 000000018003bb50     vcruntime:VCRUNTIME140_1.dll
 0002:00016b64       __IMPORT_DESCRIPTOR_VCRUNTIME140 000000018003bb64     vcruntime:VCRUNTIME140.dll
 0002:00016b78       __IMPORT_DESCRIPTOR_api-ms-win-crt-heap-l1-1-0 000000018003bb78     ucrt:api-ms-win-crt-heap-l1-1-0.dll
 0002:00016b8c       __IMPORT_DESCRIPTOR_api-ms-win-crt-time-l1-1-0 000000018003bb8c     ucrt:api-ms-win-crt-time-l1-1-0.dll
 0002:00016ba0       __IMPORT_DESCRIPTOR_api-ms-win-crt-convert-l1-1-0 000000018003bba0     ucrt:api-ms-win-crt-convert-l1-1-0.dll
 0002:00016bb4       __IMPORT_DESCRIPTOR_api-ms-win-crt-string-l1-1-0 000000018003bbb4     ucrt:api-ms-win-crt-string-l1-1-0.dll
 0002:00016bc8       __IMPORT_DESCRIPTOR_api-ms-win-crt-runtime-l1-1-0 000000018003bbc8     ucrt:api-ms-win-crt-runtime-l1-1-0.dll
 0002:00016bdc       __IMPORT_DESCRIPTOR_api-ms-win-crt-math-l1-1-0 000000018003bbdc     ucrt:api-ms-win-crt-math-l1-1-0.dll
 0002:00016bf0       __NULL_IMPORT_DESCRIPTOR   000000018003bbf0     kernel32:KERNEL32.dll
 0003:00000000       _Init_global_epoch         000000018003e000     MSVCRT:thread_safe_statics.obj
 0003:00000004       __scrt_native_dllmain_reason 000000018003e004     MSVCRT:utility.obj
 0003:00000008       __security_cookie_complement 000000018003e008     MSVCRT:gs_cookie.obj
 0003:00000010       __security_cookie          000000018003e010     MSVCRT:gs_cookie.obj
 0003:00000018       __isa_available            000000018003e018     MSVCRT:cpu_disp.obj
 0003:0000001c       __isa_enabled              000000018003e01c     MSVCRT:cpu_disp.obj
 0003:00000020       __memcpy_nt_iters          000000018003e020     MSVCRT:cpu_disp.obj
 0003:00000028       __memset_nt_iters          000000018003e028     MSVCRT:cpu_disp.obj
 0003:00000034       _fltused                   000000018003e034     MSVCRT:fltused.obj
 0003:00000038       __scrt_ucrt_dll_is_in_use  000000018003e038     MSVCRT:ucrt_stubs.obj
 0003:00000040       ??_R0?AVTimeDurationImpl@@@8 000000018003e040     misc.obj
 0003:00000070       ??_R0?AV?$clone_impl@Ubad_exception_@exception_detail@boost@@@exception_detail@boost@@@8 000000018003e070     misc.obj
 0003:000000e0       ??_R0?AVNo_Op@?$basic_oaltstringstream@_WU?$char_traits@_W@std@@V?$allocator@_W@2@@io@boost@@@8 000000018003e0e0     misc.obj
 0003:00000150       ??_R0?AV?$basic_string@DU?$char_traits@D@std@@V?$allocator@D@2@@std@@@8 000000018003e150     misc.obj
 0003:000001a8       ??_R0G@8                   000000018003e1a8     misc.obj
 0003:000001c0       ??_R0?AV?$basic_string@_WU?$char_traits@_W@std@@V?$allocator@_W@2@@std@@@8 000000018003e1c0     misc.obj
 0003:00000220       ??_R0?AU?$wrapexcept@Ubad_day_of_month@gregorian@boost@@@boost@@@8 000000018003e220     misc.obj
 0003:00000270       ??_R0?AVbad_lexical_cast@boost@@@8 000000018003e270     misc.obj
 0003:000002a0       ??_R0?AVbad_format_string@io@boost@@@8 000000018003e2a0     misc.obj
 0003:000002d8       ??_R0?AUbad_year@gregorian@boost@@@8 000000018003e2d8     misc.obj
 0003:00000308       ??_R0?AVexception@std@@@8  000000018003e308     misc.obj
 0003:00000330       ??_R0?AVDateAbstr@yloader@@@8 000000018003e330     misc.obj
 0003:00000358       ??_R0?AVbad_array_new_length@std@@@8 000000018003e358     misc.obj
 0003:00000390       ??_R0?AU?$wrapexcept@Vbad_lexical_cast@boost@@@boost@@@8 000000018003e390     misc.obj
 0003:000003d8       ??_R0?AVDateDurationAbstr@yloader@@@8 000000018003e3d8     misc.obj
 0003:00000408       ??_R0?AVTimeDurationAbstr@yloader@@@8 000000018003e408     misc.obj
 0003:00000438       ??_R0?AVruntime_error@std@@@8 000000018003e438     misc.obj
 0003:00000460       ??_R0?AU?$wrapexcept@Vtoo_few_args@io@boost@@@boost@@@8 000000018003e460     misc.obj
 0003:000004a8       ??_R0?AVDateException@yloader@@@8 000000018003e4a8     misc.obj
 0003:000004d8       ??_R0?AVbad_alloc@std@@@8  000000018003e4d8     misc.obj
 0003:00000500       ??_R0?AUbad_month@gregorian@boost@@@8 000000018003e500     misc.obj
 0003:00000530       ??_R0?AVtoo_few_args@io@boost@@@8 000000018003e530     misc.obj
 0003:00000560       ??_R0?AVexception@boost@@@8 000000018003e560     misc.obj
 0003:00000590       ??_R0?AU?$wrapexcept@Ubad_month@gregorian@boost@@@boost@@@8 000000018003e590     misc.obj
 0003:000005d8       ??_R0?AVtoo_many_args@io@boost@@@8 000000018003e5d8     misc.obj
 0003:00000608       ??_R0?AUbad_day_of_month@gregorian@boost@@@8 000000018003e608     misc.obj
 0003:00000640       ??_R0?AVclone_base@exception_detail@boost@@@8 000000018003e640     misc.obj
 0003:00000678       ??_R0H@8                   000000018003e678     misc.obj
 0003:00000690       ??_R0?AVbad_exception@std@@@8 000000018003e690     misc.obj
 0003:000006b8       ??_R0?AVformat_error@io@boost@@@8 000000018003e6b8     misc.obj
 0003:000006e8       ??_R0I@8                   000000018003e6e8     misc.obj
 0003:00000700       ??_R0?AUbad_alloc_@exception_detail@boost@@@8 000000018003e700     misc.obj
 0003:00000740       ??_R0?AU?$wrapexcept@Vtoo_many_args@io@boost@@@boost@@@8 000000018003e740     misc.obj
 0003:00000788       ??_R0?AU?$default_delete@$$BY0A@_W@std@@@8 000000018003e788     misc.obj
 0003:000007c0       ??_R0?AVDateTimeImpl@@@8   000000018003e7c0     misc.obj
 0003:000007e8       ??_R0?AVDateImpl@@@8       000000018003e7e8     misc.obj
 0003:00000808       ??_R0?AUbad_exception_@exception_detail@boost@@@8 000000018003e808     misc.obj
 0003:00000848       ??_R0?AU?$wrapexcept@Vruntime_error@std@@@boost@@@8 000000018003e848     misc.obj
 0003:00000890       ??_R0?AV?$clone_impl@Ubad_alloc_@exception_detail@boost@@@exception_detail@boost@@@8 000000018003e890     misc.obj
 0003:000008f0       ??_R0?AVlogic_error@std@@@8 000000018003e8f0     misc.obj
 0003:00000918       ??_R0?AU?$default_delete@$$BY0A@D@std@@@8 000000018003e918     misc.obj
 0003:00000950       ??_R0?AU?$wrapexcept@Vbad_format_string@io@boost@@@boost@@@8 000000018003e950     misc.obj
 0003:00000998       ??_R0?AVbad_cast@std@@@8   000000018003e998     misc.obj
 0003:000009c0       ??_R0F@8                   000000018003e9c0     misc.obj
 0003:000009d8       ??_R0?AVVersionException@yloader@@@8 000000018003e9d8     misc.obj
 0003:00000a08       ??_R0?AVDateTimeAbstr@yloader@@@8 000000018003ea08     misc.obj
 0003:00000a38       ??_R0?AVDateDurationImpl@@@8 000000018003ea38     misc.obj
 0003:00000a60       ??_R0_J@8                  000000018003ea60     misc.obj
 0003:00000a80       ??_R0?AU?$wrapexcept@Ubad_year@gregorian@boost@@@boost@@@8 000000018003ea80     misc.obj
 0003:00000ac8       ??_R0?AVout_of_range@std@@@8 000000018003eac8     misc.obj
 0003:00000af0       ??_R0?AVtype_info@@@8      000000018003eaf0     MSVCRT:std_type_info_static.obj
 0003:00000b10       ??_R0?AV_Ref_count_base@std@@@8 000000018003eb10     misc.obj
 0003:00000b40       ??_R0?AV?$basic_oaltstringstream@_WU?$char_traits@_W@std@@V?$allocator@_W@2@@io@boost@@@8 000000018003eb40     misc.obj
 0003:00000bb0       ??_R0?AV?$basic_ostream@DU?$char_traits@D@std@@@std@@@8 000000018003ebb0     misc.obj
 0003:00000c00       ??_R0?AV?$basic_streambuf@_WU?$char_traits@_W@std@@@std@@@8 000000018003ec00     misc.obj
 0003:00000c50       ??_R0?AV?$sp_counted_impl_pd@PEAV?$basic_altstringbuf@_WU?$char_traits@_W@std@@V?$allocator@_W@2@@io@boost@@VNo_Op@?$basic_oaltstringstream@_WU?$char_traits@_W@std@@V?$allocator@_W@2@@23@@detail@boost@@@8 000000018003ec50     misc.obj
 0003:00000d28       ??_R0?AV?$_Ref_count_obj2@VDateTimeImpl@@@std@@@8 000000018003ed28     misc.obj
 0003:00000d70       ??_R0?AV?$basic_ostringstream@_WU?$char_traits@_W@std@@V?$allocator@_W@2@@std@@@8 000000018003ed70     misc.obj
 0003:00000dd0       ??_R0?AV?$basic_stringstream@DU?$char_traits@D@std@@V?$allocator@D@2@@std@@@8 000000018003edd0     misc.obj
 0003:00000e28       ??_R0?AVsp_counted_base@detail@boost@@@8 000000018003ee28     misc.obj
 0003:00000e60       ??_R0?AV?$basic_stringbuf@_WU?$char_traits@_W@std@@V?$allocator@_W@2@@std@@@8 000000018003ee60     misc.obj
 0003:00000ec0       ??_R0?AV?$basic_stringbuf@DU?$char_traits@D@std@@V?$allocator@D@2@@std@@@8 000000018003eec0     misc.obj
 0003:00000f20       ??_R0?AV?$_Ref_count_obj2@VDateDurationImpl@@@std@@@8 000000018003ef20     misc.obj
 0003:00000f60       ??_R0?AVios_base@std@@@8   000000018003ef60     misc.obj
 0003:00000f88       ??_R0?AV?$_Ref_count_obj2@VDateImpl@@@std@@@8 000000018003ef88     misc.obj
 0003:00000fc0       ??_R0?AV?$basic_iostream@DU?$char_traits@D@std@@@std@@@8 000000018003efc0     misc.obj
 0003:00001010       ??_R0?AV?$_Ref_count_resource@PEADU?$default_delete@$$BY0A@D@std@@@std@@@8 000000018003f010     misc.obj
 0003:00001068       ??_R0?AV_Facet_base@std@@@8 000000018003f068     misc.obj
 0003:00001090       ??_R0?AV?$_Ref_count@VDateImpl@@@std@@@8 000000018003f090     misc.obj
 0003:000010c8       ??_R0?AU_Crt_new_delete@std@@@8 000000018003f0c8     misc.obj
 0003:000010f8       ??_R0?AV?$_Iosb@H@std@@@8  000000018003f0f8     misc.obj
 0003:00001120       ??_R0?AV?$numpunct@D@std@@@8 000000018003f120     misc.obj
 0003:00001150       ??_R0?AV?$sp_counted_impl_p@V?$clone_impl@Ubad_exception_@exception_detail@boost@@@exception_detail@boost@@@detail@boost@@@8 000000018003f150     misc.obj
 0003:000011e0       ??_R0?AV?$basic_streambuf@DU?$char_traits@D@std@@@std@@@8 000000018003f1e0     misc.obj
 0003:00001228       ??_R0?AV?$_Ref_count@VTimeDurationImpl@@@std@@@8 000000018003f228     misc.obj
 0003:00001270       ??_R0?AV?$_Ref_count_resource@PEA_WU?$default_delete@$$BY0A@_W@std@@@std@@@8 000000018003f270     misc.obj
 0003:000012c8       ??_R0?AV?$_Ref_count@VDateTimeImpl@@@std@@@8 000000018003f2c8     misc.obj
 0003:00001300       ??_R0?AV?$numpunct@_W@std@@@8 000000018003f300     misc.obj
 0003:00001330       ??_R0?AV?$_Ref_count_obj2@VTimeDurationImpl@@@std@@@8 000000018003f330     misc.obj
 0003:00001370       ??_R0?AVTimerAbstr@yloader@@@8 000000018003f370     misc.obj
 0003:000013a0       ??_R0?AV?$basic_istream@DU?$char_traits@D@std@@@std@@@8 000000018003f3a0     misc.obj
 0003:000013e8       ??_R0?AVTimerImpl@@@8      000000018003f3e8     misc.obj
 0003:00001410       ??_R0?AV?$basic_ostream@_WU?$char_traits@_W@std@@@std@@@8 000000018003f410     misc.obj
 0003:00001460       ??_R0?AV?$basic_altstringbuf@_WU?$char_traits@_W@std@@V?$allocator@_W@2@@io@boost@@@8 000000018003f460     misc.obj
 0003:000014c0       ??_R0?AV?$basic_ios@DU?$char_traits@D@std@@@std@@@8 000000018003f4c0     misc.obj
 0003:00001500       ??_R0?AVfacet@locale@std@@@8 000000018003f500     misc.obj
 0003:00001530       ??_R0?AV?$basic_ios@_WU?$char_traits@_W@std@@@std@@@8 000000018003f530     misc.obj
 0003:00001570       ??_R0?AV?$base_from_member@V?$shared_ptr@V?$basic_altstringbuf@_WU?$char_traits@_W@std@@V?$allocator@_W@2@@io@boost@@@boost@@$0A@@boost@@@8 000000018003f570     misc.obj
 0003:00001610       ??_R0?AV?$sp_counted_impl_p@V?$clone_impl@Ubad_alloc_@exception_detail@boost@@@exception_detail@boost@@@detail@boost@@@8 000000018003f610     misc.obj
 0003:000016a0       ??_R0?AV?$_Ref_count@V?$basic_string@_WU?$char_traits@_W@std@@V?$allocator@_W@2@@std@@@std@@@8 000000018003f6a0     namevalue.obj
 0003:00001710       ??_R0?AV?$_Ref_count@VNameValue@yloader@@@std@@@8 000000018003f710     namevalue.obj
 0003:000017a8       __scrt_current_native_startup_state 000000018003f7a8     MSVCRT:utility.obj
 0003:000017b0       __scrt_native_startup_lock 000000018003f7b0     MSVCRT:utility.obj
 0003:000017f8       __castguard_check_failure_os_handled_fptr 000000018003f7f8     MSVCRT:guard_support.obj
 0003:00001d70       __scrt_debugger_hook_flag  000000018003fd70     MSVCRT:utility_desktop.obj
 0003:00001d74       _tls_index                 000000018003fd74     MSVCRT:tlssup.obj
 0003:00001d78       __favor                    000000018003fd78     MSVCRT:cpu_disp.obj
 0003:00001d80       ?__type_info_root_node@@3U__type_info_node@@A 000000018003fd80     MSVCRT:tncleanup.obj
 0003:00001d90       ?_OptionsStorage@?1??__local_stdio_scanf_options@@9@4_KA 000000018003fd90     MSVCRT:default_local_stdio_options.obj
 0003:00001da8       ?month_map@?6???$month_str_to_ushort@Vgreg_month@gregorian@boost@@@date_time@boost@@YAGAEBV?$basic_string@DU?$char_traits@D@std@@V?$allocator@D@2@@std@@@Z@4V?$map@V?$basic_string@DU?$char_traits@D@std@@V?$allocator@D@2@@std@@GU?$less@V?$basic_string@DU?$char_traits@D@std@@V?$allocator@D@2@@std@@@2@V?$allocator@U?$pair@$$CBV?$basic_string@DU?$char_traits@D@std@@V?$allocator@D@2@@std@@G@std@@@2@@4@A 000000018003fda8     misc.obj
 0003:00001dc0       ?idcount@@3HA              000000018003fdc0     misc.obj
 0003:00001dc8       ?CURRENT@Version@yloader@@2V12@B 000000018003fdc8     misc.obj
 0003:00001de0       ?m@yloader@@3Vmutex@std@@A 000000018003fde0     misc.obj
 0003:00001e30       ?$TSS0@?1???$get_static_exception_object@Ubad_alloc_@exception_detail@boost@@@exception_detail@boost@@YA?AVexception_ptr@2@XZ@4HA 000000018003fe30     misc.obj
 0003:00001e38       ?ep@?1???$get_static_exception_object@Ubad_exception_@exception_detail@boost@@@exception_detail@boost@@YA?AVexception_ptr@2@XZ@4V32@A 000000018003fe38     misc.obj
 0003:00001e48       ?$TSS0@?6???$month_str_to_ushort@Vgreg_month@gregorian@boost@@@date_time@boost@@YAGAEBV?$basic_string@DU?$char_traits@D@std@@V?$allocator@D@2@@std@@@Z@4HA 000000018003fe48     misc.obj
 0003:00001e50       ?_OptionsStorage@?1??__local_stdio_printf_options@@9@4_KA 000000018003fe50     misc.obj
 0003:00001e58       ?ep@?1???$get_static_exception_object@Ubad_alloc_@exception_detail@boost@@@exception_detail@boost@@YA?AVexception_ptr@2@XZ@4V32@A 000000018003fe58     misc.obj
 0003:00001e68       ?$TSS0@?1???$get_static_exception_object@Ubad_exception_@exception_detail@boost@@@exception_detail@boost@@YA?AVexception_ptr@2@XZ@4HA 000000018003fe68     misc.obj
 0003:00001e70       ?_Psave@?$_Facetptr@V?$numpunct@D@std@@@std@@2PEBVfacet@locale@2@EB 000000018003fe70     misc.obj
 0003:00001e78       ?_Psave@?$_Facetptr@V?$numpunct@_W@std@@@std@@2PEBVfacet@locale@2@EB 000000018003fe78     misc.obj
 0003:00001e80       ?_Psave@?$_Facetptr@V?$ctype@_W@std@@@std@@2PEBVfacet@locale@2@EB 000000018003fe80     misc.obj
 0003:00001e88       ?_Psave@?$_Facetptr@V?$ctype@D@std@@@std@@2PEBVfacet@locale@2@EB 000000018003fe88     misc.obj
 0003:00002030       ?mx_@?$stdcat_mx_holder@X@detail@system@boost@@2Vmutex@std@@A 0000000180040030     misc.obj
 0003:00002080       ?e@?$exception_ptr_static_exception_object@Ubad_alloc_@exception_detail@boost@@@exception_detail@boost@@2Vexception_ptr@3@B 0000000180040080     misc.obj
 0003:00002090       ?e@?$exception_ptr_static_exception_object@Ubad_exception_@exception_detail@boost@@@exception_detail@boost@@2Vexception_ptr@3@B 0000000180040090     misc.obj
 0003:000020a8       __dyn_tls_init_callback    00000001800400a8     <common>

 entry point at        0001:00020058

 Static symbols

 0000:fffba000       .debug$S                   0000000180000000     misc.exp
 0000:fffba000       .debug$S                   0000000180000000     msvcprt:MSVCP140.dll
 0000:fffba000       .debug$S                   0000000180000000     msvcprt:MSVCP140.dll
 0000:fffba000       .debug$S                   0000000180000000     msvcprt:MSVCP140.dll
 0000:fffba000       .debug$S                   0000000180000000     msvcprt:MSVCP140.dll
 0000:fffba000       .debug$S                   0000000180000000     msvcprt:MSVCP140.dll
 0000:fffba000       .debug$S                   0000000180000000     msvcprt:MSVCP140.dll
 0000:fffba000       .debug$S                   0000000180000000     msvcprt:MSVCP140.dll
 0000:fffba000       .debug$S                   0000000180000000     msvcprt:MSVCP140.dll
 0000:fffba000       .debug$S                   0000000180000000     msvcprt:MSVCP140.dll
 0000:fffba000       .debug$S                   0000000180000000     msvcprt:MSVCP140.dll
 0000:fffba000       .debug$S                   0000000180000000     msvcprt:MSVCP140.dll
 0000:fffba000       .debug$S                   0000000180000000     msvcprt:MSVCP140.dll
 0000:fffba000       .debug$S                   0000000180000000     msvcprt:MSVCP140.dll
 0000:fffba000       .debug$S                   0000000180000000     msvcprt:MSVCP140.dll
 0000:fffba000       .debug$S                   0000000180000000     msvcprt:MSVCP140.dll
 0000:fffba000       .debug$S                   0000000180000000     msvcprt:MSVCP140.dll
 0000:fffba000       .debug$S                   0000000180000000     msvcprt:MSVCP140.dll
 0000:fffba000       .debug$S                   0000000180000000     msvcprt:MSVCP140.dll
 0000:fffba000       .debug$S                   0000000180000000     msvcprt:MSVCP140.dll
 0000:fffba000       .debug$S                   0000000180000000     msvcprt:MSVCP140.dll
 0000:fffba000       .debug$S                   0000000180000000     msvcprt:MSVCP140.dll
 0000:fffba000       .debug$S                   0000000180000000     msvcprt:MSVCP140.dll
 0000:fffba000       .debug$S                   0000000180000000     msvcprt:MSVCP140.dll
 0000:fffba000       .debug$S                   0000000180000000     msvcprt:MSVCP140.dll
 0000:fffba000       .debug$S                   0000000180000000     msvcprt:MSVCP140.dll
 0000:fffba000       .debug$S                   0000000180000000     msvcprt:MSVCP140.dll
 0000:fffba000       .debug$S                   0000000180000000     msvcprt:MSVCP140.dll
 0000:fffba000       .debug$S                   0000000180000000     msvcprt:MSVCP140.dll
 0000:fffba000       .debug$S                   0000000180000000     msvcprt:MSVCP140.dll
 0000:fffba000       .debug$S                   0000000180000000     msvcprt:MSVCP140.dll
 0000:fffba000       .debug$S                   0000000180000000     msvcprt:MSVCP140.dll
 0000:fffba000       .debug$S                   0000000180000000     msvcprt:MSVCP140.dll
 0000:fffba000       .debug$S                   0000000180000000     msvcprt:MSVCP140.dll
 0000:fffba000       .debug$S                   0000000180000000     msvcprt:MSVCP140.dll
 0000:fffba000       .debug$S                   0000000180000000     msvcprt:MSVCP140.dll
 0000:fffba000       .debug$S                   0000000180000000     msvcprt:MSVCP140.dll
 0000:fffba000       .debug$S                   0000000180000000     msvcprt:MSVCP140.dll
 0000:fffba000       .debug$S                   0000000180000000     msvcprt:MSVCP140.dll
 0000:fffba000       .debug$S                   0000000180000000     msvcprt:MSVCP140.dll
 0000:fffba000       .debug$S                   0000000180000000     msvcprt:MSVCP140.dll
 0000:fffba000       .debug$S                   0000000180000000     msvcprt:MSVCP140.dll
 0000:fffba000       .debug$S                   0000000180000000     msvcprt:MSVCP140.dll
 0000:fffba000       .debug$S                   0000000180000000     msvcprt:MSVCP140.dll
 0000:fffba000       .debug$S                   0000000180000000     msvcprt:MSVCP140.dll
 0000:fffba000       .debug$S                   0000000180000000     msvcprt:MSVCP140.dll
 0000:fffba000       .debug$S                   0000000180000000     msvcprt:MSVCP140.dll
 0000:fffba000       .debug$S                   0000000180000000     msvcprt:MSVCP140.dll
 0000:fffba000       .debug$S                   0000000180000000     msvcprt:MSVCP140.dll
 0000:fffba000       .debug$S                   0000000180000000     msvcprt:MSVCP140.dll
 0000:fffba000       .debug$S                   0000000180000000     msvcprt:MSVCP140.dll
 0000:fffba000       .debug$S                   0000000180000000     msvcprt:MSVCP140.dll
 0000:fffba000       .debug$S                   0000000180000000     msvcprt:MSVCP140.dll
 0000:fffba000       .debug$S                   0000000180000000     msvcprt:MSVCP140.dll
 0000:fffba000       .debug$S                   0000000180000000     msvcprt:MSVCP140.dll
 0000:fffba000       .debug$S                   0000000180000000     msvcprt:MSVCP140.dll
 0000:fffba000       .debug$S                   0000000180000000     msvcprt:MSVCP140.dll
 0000:fffba000       .debug$S                   0000000180000000     msvcprt:MSVCP140.dll
 0000:fffba000       .debug$S                   0000000180000000     msvcprt:MSVCP140.dll
 0000:fffba000       .debug$S                   0000000180000000     msvcprt:MSVCP140.dll
 0000:fffba000       .debug$S                   0000000180000000     msvcprt:MSVCP140.dll
 0000:fffba000       .debug$S                   0000000180000000     msvcprt:MSVCP140.dll
 0000:fffba000       .debug$S                   0000000180000000     msvcprt:MSVCP140.dll
 0000:fffba000       .debug$S                   0000000180000000     msvcprt:MSVCP140.dll
 0000:fffba000       .debug$S                   0000000180000000     msvcprt:MSVCP140.dll
 0000:fffba000       .debug$S                   0000000180000000     msvcprt:MSVCP140.dll
 0000:fffba000       .debug$S                   0000000180000000     msvcprt:MSVCP140.dll
 0000:fffba000       .debug$S                   0000000180000000     msvcprt:MSVCP140.dll
 0000:fffba000       .debug$S                   0000000180000000     msvcprt:MSVCP140.dll
 0000:fffba000       .debug$S                   0000000180000000     msvcprt:MSVCP140.dll
 0000:fffba000       .debug$S                   0000000180000000     msvcprt:MSVCP140.dll
 0000:fffba000       .debug$S                   0000000180000000     msvcprt:MSVCP140.dll
 0000:fffba000       .debug$S                   0000000180000000     msvcprt:MSVCP140.dll
 0000:fffba000       .debug$S                   0000000180000000     msvcprt:MSVCP140.dll
 0000:fffba000       .debug$S                   0000000180000000     msvcprt:MSVCP140.dll
 0000:fffba000       .debug$S                   0000000180000000     msvcprt:MSVCP140.dll
 0000:fffba000       .debug$S                   0000000180000000     msvcprt:MSVCP140.dll
 0000:fffba000       .debug$S                   0000000180000000     msvcprt:MSVCP140.dll
 0000:fffba000       .debug$S                   0000000180000000     msvcprt:MSVCP140.dll
 0000:fffba000       .debug$S                   0000000180000000     msvcprt:MSVCP140.dll
 0000:fffba000       .debug$S                   0000000180000000     msvcprt:MSVCP140.dll
 0000:fffba000       .debug$S                   0000000180000000     msvcprt:MSVCP140.dll
 0000:fffba000       .debug$S                   0000000180000000     msvcprt:MSVCP140.dll
 0000:fffba000       .debug$S                   0000000180000000     msvcprt:MSVCP140.dll
 0000:fffba000       .debug$S                   0000000180000000     msvcprt:MSVCP140.dll
 0000:fffba000       .debug$S                   0000000180000000     msvcprt:MSVCP140.dll
 0000:fffba000       .debug$S                   0000000180000000     msvcprt:MSVCP140.dll
 0000:fffba000       .debug$S                   0000000180000000     msvcprt:MSVCP140.dll
 0000:fffba000       .debug$S                   0000000180000000     msvcprt:MSVCP140.dll
 0000:fffba000       .debug$S                   0000000180000000     msvcprt:MSVCP140.dll
 0000:fffba000       .debug$S                   0000000180000000     msvcprt:MSVCP140.dll
 0000:fffba000       .debug$S                   0000000180000000     msvcprt:MSVCP140.dll
 0000:fffba000       .debug$S                   0000000180000000     msvcprt:MSVCP140.dll
 0000:fffba000       .debug$S                   0000000180000000     msvcprt:MSVCP140.dll
 0000:fffba000       .debug$S                   0000000180000000     msvcprt:MSVCP140.dll
 0000:fffba000       .debug$S                   0000000180000000     msvcprt:MSVCP140.dll
 0000:fffba000       .debug$S                   0000000180000000     msvcprt:MSVCP140.dll
 0000:fffba000       .debug$S                   0000000180000000     msvcprt:MSVCP140.dll
 0000:fffba000       .debug$S                   0000000180000000     msvcprt:MSVCP140.dll
 0000:fffba000       .debug$S                   0000000180000000     msvcprt:MSVCP140.dll
 0000:fffba000       .debug$S                   0000000180000000     msvcprt:MSVCP140.dll
 0000:fffba000       .debug$S                   0000000180000000     msvcprt:MSVCP140.dll
 0000:fffba000       .debug$S                   0000000180000000     msvcprt:MSVCP140.dll
 0000:fffba000       .debug$S                   0000000180000000     msvcprt:MSVCP140.dll
 0000:fffba000       .debug$S                   0000000180000000     msvcprt:MSVCP140.dll
 0000:fffba000       .debug$S                   0000000180000000     msvcprt:MSVCP140.dll
 0000:fffba000       .debug$S                   0000000180000000     msvcprt:MSVCP140.dll
 0000:fffba000       .debug$S                   0000000180000000     msvcprt:MSVCP140.dll
 0000:fffba000       .debug$S                   0000000180000000     msvcprt:MSVCP140.dll
 0000:fffba000       .debug$S                   0000000180000000     msvcprt:MSVCP140.dll
 0000:fffba000       .debug$S                   0000000180000000     msvcprt:MSVCP140.dll
 0000:fffba000       .debug$S                   0000000180000000     msvcprt:MSVCP140.dll
 0000:fffba000       .debug$S                   0000000180000000     msvcprt:MSVCP140.dll
 0000:fffba000       .debug$S                   0000000180000000     msvcprt:MSVCP140.dll
 0000:fffba000       .debug$S                   0000000180000000     msvcprt:MSVCP140.dll
 0000:fffba000       .debug$S                   0000000180000000     msvcprt:MSVCP140.dll
 0000:fffba000       .debug$S                   0000000180000000     msvcprt:MSVCP140.dll
 0000:fffba000       .debug$S                   0000000180000000     msvcprt:MSVCP140.dll
 0000:fffba000       .debug$S                   0000000180000000     msvcprt:MSVCP140.dll
 0000:fffba000       .debug$S                   0000000180000000     msvcprt:MSVCP140.dll
 0000:fffba000       .debug$S                   0000000180000000     msvcprt:MSVCP140.dll
 0000:fffba000       .debug$S                   0000000180000000     msvcprt:MSVCP140.dll
 0000:fffba000       .debug$S                   0000000180000000     vcruntime:VCRUNTIME140.dll
 0000:fffba000       .debug$S                   0000000180000000     vcruntime:VCRUNTIME140.dll
 0000:fffba000       .debug$S                   0000000180000000     vcruntime:VCRUNTIME140.dll
 0000:fffba000       .debug$S                   0000000180000000     vcruntime:VCRUNTIME140.dll
 0000:fffba000       .debug$S                   0000000180000000     vcruntime:VCRUNTIME140.dll
 0000:fffba000       .debug$S                   0000000180000000     vcruntime:VCRUNTIME140.dll
 0000:fffba000       .debug$S                   0000000180000000     vcruntime:VCRUNTIME140.dll
 0000:fffba000       .debug$S                   0000000180000000     vcruntime:VCRUNTIME140.dll
 0000:fffba000       .debug$S                   0000000180000000     vcruntime:VCRUNTIME140.dll
 0000:fffba000       .debug$S                   0000000180000000     vcruntime:VCRUNTIME140.dll
 0000:fffba000       .debug$S                   0000000180000000     vcruntime:VCRUNTIME140.dll
 0000:fffba000       .debug$S                   0000000180000000     vcruntime:VCRUNTIME140.dll
 0000:fffba000       .debug$S                   0000000180000000     vcruntime:VCRUNTIME140.dll
 0000:fffba000       .debug$S                   0000000180000000     vcruntime:VCRUNTIME140.dll
 0000:fffba000       .debug$S                   0000000180000000     vcruntime:VCRUNTIME140.dll
 0000:fffba000       .debug$S                   0000000180000000     vcruntime:VCRUNTIME140.dll
 0000:fffba000       .debug$S                   0000000180000000     vcruntime:VCRUNTIME140_1.dll
 0000:fffba000       .debug$S                   0000000180000000     ucrt:api-ms-win-crt-convert-l1-1-0.dll
 0000:fffba000       .debug$S                   0000000180000000     ucrt:api-ms-win-crt-heap-l1-1-0.dll
 0000:fffba000       .debug$S                   0000000180000000     ucrt:api-ms-win-crt-heap-l1-1-0.dll
 0000:fffba000       .debug$S                   0000000180000000     ucrt:api-ms-win-crt-heap-l1-1-0.dll
 0000:fffba000       .debug$S                   0000000180000000     ucrt:api-ms-win-crt-heap-l1-1-0.dll
 0000:fffba000       .debug$S                   0000000180000000     ucrt:api-ms-win-crt-math-l1-1-0.dll
 0000:fffba000       .debug$S                   0000000180000000     ucrt:api-ms-win-crt-runtime-l1-1-0.dll
 0000:fffba000       .debug$S                   0000000180000000     ucrt:api-ms-win-crt-runtime-l1-1-0.dll
 0000:fffba000       .debug$S                   0000000180000000     ucrt:api-ms-win-crt-runtime-l1-1-0.dll
 0000:fffba000       .debug$S                   0000000180000000     ucrt:api-ms-win-crt-runtime-l1-1-0.dll
 0000:fffba000       .debug$S                   0000000180000000     ucrt:api-ms-win-crt-runtime-l1-1-0.dll
 0000:fffba000       .debug$S                   0000000180000000     ucrt:api-ms-win-crt-runtime-l1-1-0.dll
 0000:fffba000       .debug$S                   0000000180000000     ucrt:api-ms-win-crt-runtime-l1-1-0.dll
 0000:fffba000       .debug$S                   0000000180000000     ucrt:api-ms-win-crt-runtime-l1-1-0.dll
 0000:fffba000       .debug$S                   0000000180000000     ucrt:api-ms-win-crt-runtime-l1-1-0.dll
 0000:fffba000       .debug$S                   0000000180000000     ucrt:api-ms-win-crt-runtime-l1-1-0.dll
 0000:fffba000       .debug$S                   0000000180000000     ucrt:api-ms-win-crt-runtime-l1-1-0.dll
 0000:fffba000       .debug$S                   0000000180000000     ucrt:api-ms-win-crt-runtime-l1-1-0.dll
 0000:fffba000       .debug$S                   0000000180000000     ucrt:api-ms-win-crt-runtime-l1-1-0.dll
 0000:fffba000       .debug$S                   0000000180000000     ucrt:api-ms-win-crt-runtime-l1-1-0.dll
 0000:fffba000       .debug$S                   0000000180000000     ucrt:api-ms-win-crt-runtime-l1-1-0.dll
 0000:fffba000       .debug$S                   0000000180000000     ucrt:api-ms-win-crt-stdio-l1-1-0.dll
 0002:fffdb000       .idata$6                   0000000180000000     ucrt:api-ms-win-crt-stdio-l1-1-0.dll
 0000:fffba000       .debug$S                   0000000180000000     ucrt:api-ms-win-crt-string-l1-1-0.dll
 0000:fffba000       .debug$S                   0000000180000000     ucrt:api-ms-win-crt-string-l1-1-0.dll
 0000:fffba000       .debug$S                   0000000180000000     ucrt:api-ms-win-crt-string-l1-1-0.dll
 0000:fffba000       .debug$S                   0000000180000000     ucrt:api-ms-win-crt-string-l1-1-0.dll
 0000:fffba000       .debug$S                   0000000180000000     ucrt:api-ms-win-crt-time-l1-1-0.dll
 0000:fffba000       .debug$S                   0000000180000000     ucrt:api-ms-win-crt-time-l1-1-0.dll
 0000:fffba000       .debug$S                   0000000180000000     ucrt:api-ms-win-crt-time-l1-1-0.dll
 0000:fffba000       .debug$S                   0000000180000000     ucrt:api-ms-win-crt-time-l1-1-0.dll
 0000:fffba000       .debug$S                   0000000180000000     kernel32:KERNEL32.dll
 0000:fffba000       .debug$S                   0000000180000000     kernel32:KERNEL32.dll
 0000:fffba000       .debug$S                   0000000180000000     kernel32:KERNEL32.dll
 0000:fffba000       .debug$S                   0000000180000000     kernel32:KERNEL32.dll
 0000:fffba000       .debug$S                   0000000180000000     kernel32:KERNEL32.dll
 0000:fffba000       .debug$S                   0000000180000000     kernel32:KERNEL32.dll
 0000:fffba000       .debug$S                   0000000180000000     kernel32:KERNEL32.dll
 0000:fffba000       .debug$S                   0000000180000000     kernel32:KERNEL32.dll
 0000:fffba000       .debug$S                   0000000180000000     kernel32:KERNEL32.dll
 0000:fffba000       .debug$S                   0000000180000000     kernel32:KERNEL32.dll
 0000:fffba000       .debug$S                   0000000180000000     kernel32:KERNEL32.dll
 0000:fffba000       .debug$S                   0000000180000000     kernel32:KERNEL32.dll
 0000:fffba000       .debug$S                   0000000180000000     kernel32:KERNEL32.dll
 0000:fffba000       .debug$S                   0000000180000000     kernel32:KERNEL32.dll
 0000:fffba000       .debug$S                   0000000180000000     kernel32:KERNEL32.dll
 0000:fffba000       .debug$S                   0000000180000000     kernel32:KERNEL32.dll
 0000:fffba000       .debug$S                   0000000180000000     kernel32:KERNEL32.dll
 0000:fffba000       .debug$S                   0000000180000000     kernel32:KERNEL32.dll
 0000:fffba000       .debug$S                   0000000180000000     kernel32:KERNEL32.dll
 0000:fffba000       .debug$S                   0000000180000000     kernel32:KERNEL32.dll
 0000:fffba000       .debug$S                   0000000180000000     kernel32:KERNEL32.dll
 0000:fffba000       .debug$S                   0000000180000000     kernel32:KERNEL32.dll
 0000:fffba000       .debug$S                   0000000180000000     kernel32:KERNEL32.dll
 0000:fffba000       .debug$S                   0000000180000000     kernel32:KERNEL32.dll
 0000:fffba000       .debug$S                   0000000180000000     kernel32:KERNEL32.dll
 0000:fffba000       .debug$S                   0000000180000000     kernel32:KERNEL32.dll
 0000:fffba000       .debug$S                   0000000180000000     kernel32:KERNEL32.dll
 0000:fffba000       .debug$S                   0000000180000000     kernel32:KERNEL32.dll
 0000:fffba000       .debug$S                   0000000180000000     kernel32:KERNEL32.dll
 0000:fffba000       .debug$S                   0000000180000000     kernel32:KERNEL32.dll
 0000:fffba000       .debug$S                   0000000180000000     kernel32:KERNEL32.dll
 0000:fffba000       .debug$S                   0000000180000000     kernel32:KERNEL32.dll
 0000:fffba000       .debug$S                   0000000180000000     kernel32:KERNEL32.dll
 0000:fffba000       .debug$S                   0000000180000000     kernel32:KERNEL32.dll
 0000:fffba000       .debug$S                   0000000180000000     kernel32:KERNEL32.dll
 0000:fffba000       .debug$S                   0000000180000000     kernel32:KERNEL32.dll
 0000:fffba000       .debug$S                   0000000180000000     kernel32:KERNEL32.dll
 0000:fffba000       .debug$S                   0000000180000000     kernel32:KERNEL32.dll
 0000:fffba000       .debug$S                   0000000180000000     kernel32:KERNEL32.dll
 0000:fffba000       .debug$S                   0000000180000000     kernel32:KERNEL32.dll
 0000:fffba000       .debug$S                   0000000180000000     kernel32:KERNEL32.dll
 0000:fffba000       .debug$S                   0000000180000000     kernel32:KERNEL32.dll
 0000:fffba000       .debug$S                   0000000180000000     kernel32:KERNEL32.dll
 0000:fffba000       .debug$S                   0000000180000000     kernel32:KERNEL32.dll
 0000:fffba000       .debug$S                   0000000180000000     kernel32:KERNEL32.dll
 0000:fffba000       .debug$S                   0000000180000000     kernel32:KERNEL32.dll
 0000:fffba000       .debug$S                   0000000180000000     kernel32:KERNEL32.dll
 0000:fffba000       .debug$S                   0000000180000000     kernel32:KERNEL32.dll
 0000:fffba000       .debug$S                   0000000180000000     kernel32:KERNEL32.dll
 0000:fffba000       .debug$S                   0000000180000000     kernel32:KERNEL32.dll
 0000:fffba000       .debug$S                   0000000180000000     kernel32:KERNEL32.dll
 0001:00000000       ??__Em@yloader@@YAXXZ      0000000180001000 f   misc.obj
 0001:00000030       ??__E?CURRENT@Version@yloader@@2V12@B@@YAXXZ 0000000180001030 f   misc.obj
 0001:00000050       ??__E?mx_@?$stdcat_mx_holder@X@detail@system@boost@@2Vmutex@std@@A@@YAXXZ 0000000180001050 f   misc.obj
 0001:00000080       ??__E?e@?$exception_ptr_static_exception_object@Ubad_alloc_@exception_detail@boost@@@exception_detail@boost@@2Vexception_ptr@3@B@@YAXXZ 0000000180001080 f   misc.obj
 0001:000000a0       ??__E?e@?$exception_ptr_static_exception_object@Ubad_exception_@exception_detail@boost@@@exception_detail@boost@@2Vexception_ptr@3@B@@YAXXZ 00000001800010a0 f   misc.obj
 0001:000000c0       ??__F_Fac_tidy_reg@std@@YAXXZ 00000001800010c0 f   msvcprt:locale0_implib.obj
 0001:0001834c       $LN494                     000000018001934c     misc.obj
 0001:00018370       $LN493                     0000000180019370     misc.obj
 0001:000183b0       $LN492                     00000001800193b0     misc.obj
 0001:000183cc       $LN491                     00000001800193cc     misc.obj
 0001:00018418       $LN490                     0000000180019418     misc.obj
 0001:00018460       $LN489                     0000000180019460     misc.obj
 0001:0001f5a0       $$000000                   00000001800205a0     MSVCRT:amdsecgs.obj
 0001:0001f5d8       ?__scrt_initialize_thread_safe_statics@@YAHXZ 00000001800205d8 f   MSVCRT:thread_safe_statics.obj
 0001:0001f6a8       ?__scrt_uninitialize_thread_safe_statics@@YAXXZ 00000001800206a8 f   MSVCRT:thread_safe_statics.obj
 0001:0001fd38       ?dllmain_crt_dispatch@@YAHQEAUHINSTANCE__@@KQEAX@Z 0000000180020d38 f   MSVCRT:dll_dllmain.obj
 0001:0001fd88       ?dllmain_crt_process_attach@@YAHQEAUHINSTANCE__@@QEAX@Z 0000000180020d88 f   MSVCRT:dll_dllmain.obj
 0001:0001fea0       ?dllmain_crt_process_detach@@YAH_N@Z 0000000180020ea0 f   MSVCRT:dll_dllmain.obj
 0001:0001ff24       ?dllmain_dispatch@@YAHQEAUHINSTANCE__@@KQEAX@Z 0000000180020f24 f   MSVCRT:dll_dllmain.obj
 0001:000201a0       capture_previous_context   00000001800211a0 f   MSVCRT:gs_report.obj
 0001:00020740       ?on_tls_prepare@?A0xb3d7cfe5@@YAHXZ 0000000180021740 f   libboost_thread-vc142-mt-x64-1_80:tss_pe.obj
 0001:00020750       ?on_process_init@?A0xb3d7cfe5@@YAXXZ 0000000180021750 f   libboost_thread-vc142-mt-x64-1_80:tss_pe.obj
 0001:00020770       ?on_process_term@?A0xb3d7cfe5@@YAXXZ 0000000180021770 f   libboost_thread-vc142-mt-x64-1_80:tss_pe.obj
 0001:00020780       ?on_tls_callback@?A0xb3d7cfe5@@YAXPEAUHINSTANCE__@@KPEAX@Z 0000000180021780 f   libboost_thread-vc142-mt-x64-1_80:tss_pe.obj
 0001:00020790       ?dll_callback@?A0xb3d7cfe5@@YAHPEAUHINSTANCE__@@KPEAX@Z 0000000180021790 f   libboost_thread-vc142-mt-x64-1_80:tss_pe.obj
 0001:00020f80       ?create_current_thread_tls_key@?A0x651aaad3@boost@@YAXXZ 0000000180021f80 f   libboost_thread-vc142-mt-x64-1_80:thread.obj
 0001:00021140       ?run_thread_exit_callbacks@?A0x651aaad3@boost@@YAXXZ 0000000180022140 f   libboost_thread-vc142-mt-x64-1_80:thread.obj
 0001:000213d0       $$000000                   00000001800223d0     MSVCRT:guard_dispatch.obj
 0001:000213f0       $$000000                   00000001800223f0     MSVCRT:guard_xfg_dispatch.obj
 0001:00021410       ?dtor$0@?0???8locale@std@@QEBA_NAEBV01@@Z@4HA 0000000180022410 f   misc.obj
 0001:00021436       ?dtor$1@?0???8locale@std@@QEBA_NAEBV01@@Z@4HA 0000000180022436 f   misc.obj
 0001:00021460       ?dtor$0@?0??copy_boost_exception@exception_detail@boost@@YAXPEAVexception@2@PEBV32@@Z@4HA 0000000180022460 f   misc.obj
 0001:0002146c       ?dtor$1@?0??copy_boost_exception@exception_detail@boost@@YAXPEAVexception@2@PEBV32@@Z@4HA 000000018002246c f   misc.obj
 0001:00021480       ?dtor$0@?0???0date@gregorian@boost@@QEAA@Vgreg_year@12@Vgreg_month@12@Vgreg_day@12@@Z@4HA 0000000180022480 f   misc.obj
 0001:0002148c       ?dtor$1@?0???0date@gregorian@boost@@QEAA@Vgreg_year@12@Vgreg_month@12@Vgreg_day@12@@Z@4HA 000000018002248c f   misc.obj
 0001:000214a0       ?dtor$0@?0???$throw_bad_cast@V?$basic_string@DU?$char_traits@D@std@@V?$allocator@D@2@@std@@F@detail@conversion@boost@@YAXXZ@4HA 00000001800224a0 f   misc.obj
 0001:000214a0       ?dtor$0@?0???$throw_bad_cast@V?$basic_string@DU?$char_traits@D@std@@V?$allocator@D@2@@std@@G@detail@conversion@boost@@YAXXZ@4HA 00000001800224a0 f   misc.obj
 0001:000214a0       ?dtor$0@?0???$throw_bad_cast@V?$basic_string@DU?$char_traits@D@std@@V?$allocator@D@2@@std@@H@detail@conversion@boost@@YAXXZ@4HA 00000001800224a0 f   misc.obj
 0001:000214a0       ?dtor$0@?0???$throw_bad_cast@V?$basic_string@DU?$char_traits@D@std@@V?$allocator@D@2@@std@@_J@detail@conversion@boost@@YAXXZ@4HA 00000001800224a0 f   misc.obj
 0001:000214a0       ?dtor$0@?0???$throw_bad_cast@V?$basic_string@_WU?$char_traits@_W@std@@V?$allocator@_W@2@@std@@I@detail@conversion@boost@@YAXXZ@4HA 00000001800224a0 f   misc.obj
 0001:000214a0       ?dtor$0@?0???$upper_bound_from_fstring@V?$basic_string@_WU?$char_traits@_W@std@@V?$allocator@_W@2@@std@@V?$ctype@_W@2@@detail@io@boost@@YAHAEBV?$basic_string@_WU?$char_traits@_W@std@@V?$allocator@_W@2@@std@@_WAEBV?$ctype@_W@4@E@Z@4HA 00000001800224a0 f   misc.obj
 0001:000214a0       ?dtor$0@?0??localtime@c_time@date_time@boost@@SAPEAUtm@@PEB_JPEAU4@@Z@4HA 00000001800224a0 f   misc.obj
 0001:000214a0       ?dtor$0@?0??on_error@?$simple_exception_policy@G$00$0BP@Ubad_day_of_month@gregorian@boost@@@CV@boost@@SAXGGW4violation_enum@23@@Z@4HA 00000001800224a0 f   misc.obj
 0001:000214a0       ?dtor$0@?0??on_error@?$simple_exception_policy@G$00$0M@Ubad_month@gregorian@boost@@@CV@boost@@SAXGGW4violation_enum@23@@Z@4HA 00000001800224a0 f   misc.obj
 0001:000214a0       ?dtor$0@?0??on_error@?$simple_exception_policy@G$0FHI@$0CHAP@Ubad_year@gregorian@boost@@@CV@boost@@SAXGGW4violation_enum@23@@Z@4HA 00000001800224a0 f   misc.obj
 0001:000214b0       ?dtor$6@?0??s2ws@yloader@@YA?AV?$basic_string@_WU?$char_traits@_W@std@@V?$allocator@_W@2@@std@@PEBD@Z@4HA 00000001800224b0 f   misc.obj
 0001:000214bc       ?dtor$1@?0??s2ws@yloader@@YA?AV?$basic_string@_WU?$char_traits@_W@std@@V?$allocator@_W@2@@std@@PEBD@Z@4HA 00000001800224bc f   misc.obj
 0001:000214d0       ?dtor$7@?0??ws2s@yloader@@YA?AV?$basic_string@DU?$char_traits@D@std@@V?$allocator@D@2@@std@@AEBV?$basic_string@_WU?$char_traits@_W@std@@V?$allocator@_W@2@@3@@Z@4HA 00000001800224d0 f   misc.obj
 0001:000214dc       ?dtor$2@?0??ws2s@yloader@@YA?AV?$basic_string@DU?$char_traits@D@std@@V?$allocator@D@2@@std@@AEBV?$basic_string@_WU?$char_traits@_W@std@@V?$allocator@_W@2@@3@@Z@4HA 00000001800224dc f   misc.obj
 0001:000214f0       ?dtor$0@?0???0DateException@yloader@@QEAA@AEBV01@@Z@4HA 00000001800224f0 f   misc.obj
 0001:000214f0       ?dtor$0@?0???0DateException@yloader@@QEAA@AEBV?$basic_string@_WU?$char_traits@_W@std@@V?$allocator@_W@2@@std@@0@Z@4HA 00000001800224f0 f   misc.obj
 0001:00021500       ?dtor$0@?0??toShortString@Version@yloader@@QEBA?AV?$basic_string@_WU?$char_traits@_W@std@@V?$allocator@_W@2@@std@@XZ@4HA 0000000180022500 f   misc.obj
 0001:00021510       ?dtor$0@?0??toString@Version@yloader@@QEBA?AV?$basic_string@_WU?$char_traits@_W@std@@V?$allocator@_W@2@@std@@XZ@4HA 0000000180022510 f   misc.obj
 0001:0002151c       ?dtor$3@?0??toString@Version@yloader@@QEBA?AV?$basic_string@_WU?$char_traits@_W@std@@V?$allocator@_W@2@@std@@XZ@4HA 000000018002251c f   misc.obj
 0001:00021528       ?dtor$1@?0??toString@Version@yloader@@QEBA?AV?$basic_string@_WU?$char_traits@_W@std@@V?$allocator@_W@2@@std@@XZ@4HA 0000000180022528 f   misc.obj
 0001:00021540       ?dtor$0@?0??tsprint@yloader@@YAAEAV?$basic_ostream@_WU?$char_traits@_W@std@@@std@@AEBV?$basic_string@_WU?$char_traits@_W@std@@V?$allocator@_W@2@@3@AEAV23@@Z@4HA 0000000180022540 f   misc.obj
 0001:00021550       ?dtor$0@?0??tsprint@yloader@@YAAEAV?$basic_ostream@_WU?$char_traits@_W@std@@@std@@AEBV?$basic_ostringstream@_WU?$char_traits@_W@std@@V?$allocator@_W@2@@3@AEAV23@@Z@4HA 0000000180022550 f   misc.obj
 0001:00021560       ?catch$0@?0???8DateDurationImpl@@UEBA_NAEBVDateDurationAbstr@yloader@@@Z@4HA 0000000180022560 f   misc.obj
 0001:00021560       ?catch$0@?0???8DateImpl@@UEBA_NAEBVDateAbstr@yloader@@@Z@4HA 0000000180022560 f   misc.obj
 0001:00021560       ?catch$0@?0???8DateTimeImpl@@UEBA_NAEBVDateTimeAbstr@yloader@@@Z@4HA 0000000180022560 f   misc.obj
 0001:00021560       ?catch$0@?0???8TimeDurationImpl@@UEBA_NAEBVTimeDurationAbstr@yloader@@@Z@4HA 0000000180022560 f   misc.obj
 0001:00021560       ?catch$0@?0???9DateDurationImpl@@UEBA_NAEBVDateDurationAbstr@yloader@@@Z@4HA 0000000180022560 f   misc.obj
 0001:00021560       ?catch$0@?0???9DateImpl@@UEBA_NAEBVDateAbstr@yloader@@@Z@4HA 0000000180022560 f   misc.obj
 0001:00021560       ?catch$0@?0???9DateTimeImpl@@UEBA_NAEBVDateTimeAbstr@yloader@@@Z@4HA 0000000180022560 f   misc.obj
 0001:00021560       ?catch$0@?0???9TimeDurationImpl@@UEBA_NAEBVTimeDurationAbstr@yloader@@@Z@4HA 0000000180022560 f   misc.obj
 0001:00021560       ?catch$0@?0???MDateDurationImpl@@UEBA_NAEBVDateDurationAbstr@yloader@@@Z@4HA 0000000180022560 f   misc.obj
 0001:00021560       ?catch$0@?0???MDateImpl@@UEBA_NAEBVDateAbstr@yloader@@@Z@4HA 0000000180022560 f   misc.obj
 0001:00021560       ?catch$0@?0???MDateTimeImpl@@UEBA_NAEBVDateTimeAbstr@yloader@@@Z@4HA 0000000180022560 f   misc.obj
 0001:00021560       ?catch$0@?0???MTimeDurationImpl@@UEBA_NAEBVTimeDurationAbstr@yloader@@@Z@4HA 0000000180022560 f   misc.obj
 0001:00021560       ?catch$0@?0???NDateDurationImpl@@UEBA_NAEBVDateDurationAbstr@yloader@@@Z@4HA 0000000180022560 f   misc.obj
 0001:00021560       ?catch$0@?0???NDateImpl@@UEBA_NAEBVDateAbstr@yloader@@@Z@4HA 0000000180022560 f   misc.obj
 0001:00021560       ?catch$0@?0???NDateTimeImpl@@UEBA_NAEBVDateTimeAbstr@yloader@@@Z@4HA 0000000180022560 f   misc.obj
 0001:00021560       ?catch$0@?0???NTimeDurationImpl@@UEBA_NAEBVTimeDurationAbstr@yloader@@@Z@4HA 0000000180022560 f   misc.obj
 0001:00021560       ?catch$0@?0???ODateDurationImpl@@UEBA_NAEBVDateDurationAbstr@yloader@@@Z@4HA 0000000180022560 f   misc.obj
 0001:00021560       ?catch$0@?0???ODateImpl@@UEBA_NAEBVDateAbstr@yloader@@@Z@4HA 0000000180022560 f   misc.obj
 0001:00021560       ?catch$0@?0???ODateTimeImpl@@UEBA_NAEBVDateTimeAbstr@yloader@@@Z@4HA 0000000180022560 f   misc.obj
 0001:00021560       ?catch$0@?0???OTimeDurationImpl@@UEBA_NAEBVTimeDurationAbstr@yloader@@@Z@4HA 0000000180022560 f   misc.obj
 0001:00021560       ?catch$0@?0???PDateDurationImpl@@UEBA_NAEBVDateDurationAbstr@yloader@@@Z@4HA 0000000180022560 f   misc.obj
 0001:00021560       ?catch$0@?0???PDateImpl@@UEBA_NAEBVDateAbstr@yloader@@@Z@4HA 0000000180022560 f   misc.obj
 0001:00021560       ?catch$0@?0???PDateTimeImpl@@UEBA_NAEBVDateTimeAbstr@yloader@@@Z@4HA 0000000180022560 f   misc.obj
 0001:00021560       ?catch$0@?0???PTimeDurationImpl@@UEBA_NAEBVTimeDurationAbstr@yloader@@@Z@4HA 0000000180022560 f   misc.obj
 0001:00021560       ?catch$4@?0???GDateDurationImpl@@UEBA?AV?$shared_ptr@VDateDurationAbstr@yloader@@@std@@AEBVDateDurationAbstr@yloader@@@Z@4HA 0000000180022560 f   misc.obj
 0001:00021560       ?catch$4@?0???GDateImpl@@UEBA?AV?$shared_ptr@VDateAbstr@yloader@@@std@@AEBVDateDurationAbstr@yloader@@@Z@4HA 0000000180022560 f   misc.obj
 0001:00021560       ?catch$4@?0???GDateImpl@@UEBA?AV?$shared_ptr@VDateDurationAbstr@yloader@@@std@@AEBVDateAbstr@yloader@@@Z@4HA 0000000180022560 f   misc.obj
 0001:00021560       ?catch$4@?0???GDateTimeImpl@@UEBA?AV?$shared_ptr@VDateTimeAbstr@yloader@@@std@@AEBVDateDurationAbstr@yloader@@@Z@4HA 0000000180022560 f   misc.obj
 0001:00021560       ?catch$4@?0???GDateTimeImpl@@UEBA?AV?$shared_ptr@VDateTimeAbstr@yloader@@@std@@AEBVTimeDurationAbstr@yloader@@@Z@4HA 0000000180022560 f   misc.obj
 0001:00021560       ?catch$4@?0???GDateTimeImpl@@UEBA?AV?$shared_ptr@VTimeDurationAbstr@yloader@@@std@@AEBVDateTimeAbstr@yloader@@@Z@4HA 0000000180022560 f   misc.obj
 0001:00021560       ?catch$4@?0???GTimeDurationImpl@@UEBA?AV?$shared_ptr@VTimeDurationAbstr@yloader@@@std@@AEBVTimeDurationAbstr@yloader@@@Z@4HA 0000000180022560 f   misc.obj
 0001:00021560       ?catch$4@?0???HDateDurationImpl@@UEBA?AV?$shared_ptr@VDateDurationAbstr@yloader@@@std@@AEBVDateDurationAbstr@yloader@@@Z@4HA 0000000180022560 f   misc.obj
 0001:00021560       ?catch$4@?0???HDateImpl@@UEBA?AV?$shared_ptr@VDateAbstr@yloader@@@std@@AEBVDateDurationAbstr@yloader@@@Z@4HA 0000000180022560 f   misc.obj
 0001:00021560       ?catch$4@?0???HDateTimeImpl@@UEBA?AV?$shared_ptr@VDateTimeAbstr@yloader@@@std@@AEBVDateDurationAbstr@yloader@@@Z@4HA 0000000180022560 f   misc.obj
 0001:00021560       ?catch$4@?0???HDateTimeImpl@@UEBA?AV?$shared_ptr@VDateTimeAbstr@yloader@@@std@@AEBVTimeDurationAbstr@yloader@@@Z@4HA 0000000180022560 f   misc.obj
 0001:00021560       ?catch$4@?0???HTimeDurationImpl@@UEBA?AV?$shared_ptr@VTimeDurationAbstr@yloader@@@std@@AEBVTimeDurationAbstr@yloader@@@Z@4HA 0000000180022560 f   misc.obj
 0001:00021560       ?catch$4@?0???YDateDurationImpl@@UEAA?AV?$shared_ptr@VDateDurationAbstr@yloader@@@std@@AEBVDateDurationAbstr@yloader@@@Z@4HA 0000000180022560 f   misc.obj
 0001:00021560       ?catch$4@?0???YDateImpl@@UEAA?AV?$shared_ptr@VDateAbstr@yloader@@@std@@AEBVDateDurationAbstr@yloader@@@Z@4HA 0000000180022560 f   misc.obj
 0001:00021560       ?catch$4@?0???YDateTimeImpl@@UEAA?AV?$shared_ptr@VDateTimeAbstr@yloader@@@std@@AEBVDateDurationAbstr@yloader@@@Z@4HA 0000000180022560 f   misc.obj
 0001:00021560       ?catch$4@?0???YDateTimeImpl@@UEAA?AV?$shared_ptr@VDateTimeAbstr@yloader@@@std@@AEBVTimeDurationAbstr@yloader@@@Z@4HA 0000000180022560 f   misc.obj
 0001:00021560       ?catch$4@?0???YTimeDurationImpl@@UEAA?AV?$shared_ptr@VTimeDurationAbstr@yloader@@@std@@AEBVTimeDurationAbstr@yloader@@@Z@4HA 0000000180022560 f   misc.obj
 0001:00021560       ?catch$4@?0???ZDateDurationImpl@@UEAA?AV?$shared_ptr@VDateDurationAbstr@yloader@@@std@@AEBVDateDurationAbstr@yloader@@@Z@4HA 0000000180022560 f   misc.obj
 0001:00021560       ?catch$4@?0???ZDateImpl@@UEAA?AV?$shared_ptr@VDateAbstr@yloader@@@std@@AEBVDateDurationAbstr@yloader@@@Z@4HA 0000000180022560 f   misc.obj
 0001:00021560       ?catch$4@?0???ZDateTimeImpl@@UEAA?AV?$shared_ptr@VDateTimeAbstr@yloader@@@std@@AEBVDateDurationAbstr@yloader@@@Z@4HA 0000000180022560 f   misc.obj
 0001:00021560       ?catch$4@?0???ZDateTimeImpl@@UEAA?AV?$shared_ptr@VDateTimeAbstr@yloader@@@std@@AEBVTimeDurationAbstr@yloader@@@Z@4HA 0000000180022560 f   misc.obj
 0001:00021560       ?catch$4@?0???ZTimeDurationImpl@@UEAA?AV?$shared_ptr@VTimeDurationAbstr@yloader@@@std@@AEBVTimeDurationAbstr@yloader@@@Z@4HA 0000000180022560 f   misc.obj
 0001:0002156d       __catch$??8DateDurationImpl@@UEBA_NAEBVDateDurationAbstr@yloader@@@Z$0 000000018002256d f   misc.obj
 0001:0002156d       __catch$??8DateImpl@@UEBA_NAEBVDateAbstr@yloader@@@Z$0 000000018002256d f   misc.obj
 0001:0002156d       __catch$??8DateTimeImpl@@UEBA_NAEBVDateTimeAbstr@yloader@@@Z$0 000000018002256d f   misc.obj
 0001:0002156d       __catch$??8TimeDurationImpl@@UEBA_NAEBVTimeDurationAbstr@yloader@@@Z$0 000000018002256d f   misc.obj
 0001:0002156d       __catch$??9DateDurationImpl@@UEBA_NAEBVDateDurationAbstr@yloader@@@Z$0 000000018002256d f   misc.obj
 0001:0002156d       __catch$??9DateImpl@@UEBA_NAEBVDateAbstr@yloader@@@Z$0 000000018002256d f   misc.obj
 0001:0002156d       __catch$??9DateTimeImpl@@UEBA_NAEBVDateTimeAbstr@yloader@@@Z$0 000000018002256d f   misc.obj
 0001:0002156d       __catch$??9TimeDurationImpl@@UEBA_NAEBVTimeDurationAbstr@yloader@@@Z$0 000000018002256d f   misc.obj
 0001:0002156d       __catch$??GDateDurationImpl@@UEBA?AV?$shared_ptr@VDateDurationAbstr@yloader@@@std@@AEBVDateDurationAbstr@yloader@@@Z$0 000000018002256d f   misc.obj
 0001:0002156d       __catch$??GDateImpl@@UEBA?AV?$shared_ptr@VDateAbstr@yloader@@@std@@AEBVDateDurationAbstr@yloader@@@Z$0 000000018002256d f   misc.obj
 0001:0002156d       __catch$??GDateImpl@@UEBA?AV?$shared_ptr@VDateDurationAbstr@yloader@@@std@@AEBVDateAbstr@yloader@@@Z$0 000000018002256d f   misc.obj
 0001:0002156d       __catch$??GDateTimeImpl@@UEBA?AV?$shared_ptr@VDateTimeAbstr@yloader@@@std@@AEBVDateDurationAbstr@yloader@@@Z$0 000000018002256d f   misc.obj
 0001:0002156d       __catch$??GDateTimeImpl@@UEBA?AV?$shared_ptr@VDateTimeAbstr@yloader@@@std@@AEBVTimeDurationAbstr@yloader@@@Z$0 000000018002256d f   misc.obj
 0001:0002156d       __catch$??GDateTimeImpl@@UEBA?AV?$shared_ptr@VTimeDurationAbstr@yloader@@@std@@AEBVDateTimeAbstr@yloader@@@Z$0 000000018002256d f   misc.obj
 0001:0002156d       __catch$??GTimeDurationImpl@@UEBA?AV?$shared_ptr@VTimeDurationAbstr@yloader@@@std@@AEBVTimeDurationAbstr@yloader@@@Z$0 000000018002256d f   misc.obj
 0001:0002156d       __catch$??HDateDurationImpl@@UEBA?AV?$shared_ptr@VDateDurationAbstr@yloader@@@std@@AEBVDateDurationAbstr@yloader@@@Z$0 000000018002256d f   misc.obj
 0001:0002156d       __catch$??HDateImpl@@UEBA?AV?$shared_ptr@VDateAbstr@yloader@@@std@@AEBVDateDurationAbstr@yloader@@@Z$0 000000018002256d f   misc.obj
 0001:0002156d       __catch$??HDateTimeImpl@@UEBA?AV?$shared_ptr@VDateTimeAbstr@yloader@@@std@@AEBVDateDurationAbstr@yloader@@@Z$0 000000018002256d f   misc.obj
 0001:0002156d       __catch$??HDateTimeImpl@@UEBA?AV?$shared_ptr@VDateTimeAbstr@yloader@@@std@@AEBVTimeDurationAbstr@yloader@@@Z$0 000000018002256d f   misc.obj
 0001:0002156d       __catch$??HTimeDurationImpl@@UEBA?AV?$shared_ptr@VTimeDurationAbstr@yloader@@@std@@AEBVTimeDurationAbstr@yloader@@@Z$0 000000018002256d f   misc.obj
 0001:0002156d       __catch$??MDateDurationImpl@@UEBA_NAEBVDateDurationAbstr@yloader@@@Z$0 000000018002256d f   misc.obj
 0001:0002156d       __catch$??MDateImpl@@UEBA_NAEBVDateAbstr@yloader@@@Z$0 000000018002256d f   misc.obj
 0001:0002156d       __catch$??MDateTimeImpl@@UEBA_NAEBVDateTimeAbstr@yloader@@@Z$0 000000018002256d f   misc.obj
 0001:0002156d       __catch$??MTimeDurationImpl@@UEBA_NAEBVTimeDurationAbstr@yloader@@@Z$0 000000018002256d f   misc.obj
 0001:0002156d       __catch$??NDateDurationImpl@@UEBA_NAEBVDateDurationAbstr@yloader@@@Z$0 000000018002256d f   misc.obj
 0001:0002156d       __catch$??NDateImpl@@UEBA_NAEBVDateAbstr@yloader@@@Z$0 000000018002256d f   misc.obj
 0001:0002156d       __catch$??NDateTimeImpl@@UEBA_NAEBVDateTimeAbstr@yloader@@@Z$0 000000018002256d f   misc.obj
 0001:0002156d       __catch$??NTimeDurationImpl@@UEBA_NAEBVTimeDurationAbstr@yloader@@@Z$0 000000018002256d f   misc.obj
 0001:0002156d       __catch$??ODateDurationImpl@@UEBA_NAEBVDateDurationAbstr@yloader@@@Z$0 000000018002256d f   misc.obj
 0001:0002156d       __catch$??ODateImpl@@UEBA_NAEBVDateAbstr@yloader@@@Z$0 000000018002256d f   misc.obj
 0001:0002156d       __catch$??ODateTimeImpl@@UEBA_NAEBVDateTimeAbstr@yloader@@@Z$0 000000018002256d f   misc.obj
 0001:0002156d       __catch$??OTimeDurationImpl@@UEBA_NAEBVTimeDurationAbstr@yloader@@@Z$0 000000018002256d f   misc.obj
 0001:0002156d       __catch$??PDateDurationImpl@@UEBA_NAEBVDateDurationAbstr@yloader@@@Z$0 000000018002256d f   misc.obj
 0001:0002156d       __catch$??PDateImpl@@UEBA_NAEBVDateAbstr@yloader@@@Z$0 000000018002256d f   misc.obj
 0001:0002156d       __catch$??PDateTimeImpl@@UEBA_NAEBVDateTimeAbstr@yloader@@@Z$0 000000018002256d f   misc.obj
 0001:0002156d       __catch$??PTimeDurationImpl@@UEBA_NAEBVTimeDurationAbstr@yloader@@@Z$0 000000018002256d f   misc.obj
 0001:0002156d       __catch$??YDateDurationImpl@@UEAA?AV?$shared_ptr@VDateDurationAbstr@yloader@@@std@@AEBVDateDurationAbstr@yloader@@@Z$0 000000018002256d f   misc.obj
 0001:0002156d       __catch$??YDateImpl@@UEAA?AV?$shared_ptr@VDateAbstr@yloader@@@std@@AEBVDateDurationAbstr@yloader@@@Z$0 000000018002256d f   misc.obj
 0001:0002156d       __catch$??YDateTimeImpl@@UEAA?AV?$shared_ptr@VDateTimeAbstr@yloader@@@std@@AEBVDateDurationAbstr@yloader@@@Z$0 000000018002256d f   misc.obj
 0001:0002156d       __catch$??YDateTimeImpl@@UEAA?AV?$shared_ptr@VDateTimeAbstr@yloader@@@std@@AEBVTimeDurationAbstr@yloader@@@Z$0 000000018002256d f   misc.obj
 0001:0002156d       __catch$??YTimeDurationImpl@@UEAA?AV?$shared_ptr@VTimeDurationAbstr@yloader@@@std@@AEBVTimeDurationAbstr@yloader@@@Z$0 000000018002256d f   misc.obj
 0001:0002156d       __catch$??ZDateDurationImpl@@UEAA?AV?$shared_ptr@VDateDurationAbstr@yloader@@@std@@AEBVDateDurationAbstr@yloader@@@Z$0 000000018002256d f   misc.obj
 0001:0002156d       __catch$??ZDateImpl@@UEAA?AV?$shared_ptr@VDateAbstr@yloader@@@std@@AEBVDateDurationAbstr@yloader@@@Z$0 000000018002256d f   misc.obj
 0001:0002156d       __catch$??ZDateTimeImpl@@UEAA?AV?$shared_ptr@VDateTimeAbstr@yloader@@@std@@AEBVDateDurationAbstr@yloader@@@Z$0 000000018002256d f   misc.obj
 0001:0002156d       __catch$??ZDateTimeImpl@@UEAA?AV?$shared_ptr@VDateTimeAbstr@yloader@@@std@@AEBVTimeDurationAbstr@yloader@@@Z$0 000000018002256d f   misc.obj
 0001:0002156d       __catch$??ZTimeDurationImpl@@UEAA?AV?$shared_ptr@VTimeDurationAbstr@yloader@@@std@@AEBVTimeDurationAbstr@yloader@@@Z$0 000000018002256d f   misc.obj
 0001:00021580       ?catch$1@?0???$?0PEAV?$basic_altstringbuf@_WU?$char_traits@_W@std@@V?$allocator@_W@2@@io@boost@@VNo_Op@?$basic_oaltstringstream@_WU?$char_traits@_W@std@@V?$allocator@_W@2@@12@@shared_count@detail@boost@@QEAA@PEAV?$basic_altstringbuf@_WU?$char_traits@_W@std@@V?$allocator@_W@2@@io@2@VNo_Op@?$basic_oaltstringstream@_WU?$char_traits@_W@std@@V?$allocator@_W@2@@42@@Z@4HA 0000000180022580 f   misc.obj
 0001:00021580       ?catch$4@?0???DTimeDurationImpl@@UEAA?AV?$shared_ptr@VTimeDurationAbstr@yloader@@@std@@H@Z@4HA 0000000180022580 f   misc.obj
 0001:00021580       ?catch$4@?0???KDateDurationImpl@@UEAA?AV?$shared_ptr@VDateDurationAbstr@yloader@@@std@@H@Z@4HA 0000000180022580 f   misc.obj
 0001:00021580       ?catch$4@?0???KTimeDurationImpl@@UEAA?AV?$shared_ptr@VTimeDurationAbstr@yloader@@@std@@H@Z@4HA 0000000180022580 f   misc.obj
 0001:00021580       ?catch$4@?0???XTimeDurationImpl@@UEAA?AV?$shared_ptr@VTimeDurationAbstr@yloader@@@std@@H@Z@4HA 0000000180022580 f   misc.obj
 0001:00021580       ?catch$4@?0???_0DateDurationImpl@@UEAA?AV?$shared_ptr@VDateDurationAbstr@yloader@@@std@@H@Z@4HA 0000000180022580 f   misc.obj
 0001:00021580       ?catch$4@?0???_0TimeDurationImpl@@UEAA?AV?$shared_ptr@VTimeDurationAbstr@yloader@@@std@@H@Z@4HA 0000000180022580 f   misc.obj
 0001:0002158d       __catch$??$?0PEAV?$basic_altstringbuf@_WU?$char_traits@_W@std@@V?$allocator@_W@2@@io@boost@@VNo_Op@?$basic_oaltstringstream@_WU?$char_traits@_W@std@@V?$allocator@_W@2@@12@@shared_count@detail@boost@@QEAA@PEAV?$basic_altstringbuf@_WU?$char_traits@_W@std@@V?$allocator@_W@2@@io@2@VNo_Op@?$basic_oaltstringstream@_WU?$char_traits@_W@std@@V?$allocator@_W@2@@42@@Z$0 000000018002258d f   misc.obj
 0001:0002158d       __catch$??DTimeDurationImpl@@UEAA?AV?$shared_ptr@VTimeDurationAbstr@yloader@@@std@@H@Z$0 000000018002258d f   misc.obj
 0001:0002158d       __catch$??KDateDurationImpl@@UEAA?AV?$shared_ptr@VDateDurationAbstr@yloader@@@std@@H@Z$0 000000018002258d f   misc.obj
 0001:0002158d       __catch$??KTimeDurationImpl@@UEAA?AV?$shared_ptr@VTimeDurationAbstr@yloader@@@std@@H@Z$0 000000018002258d f   misc.obj
 0001:0002158d       __catch$??XTimeDurationImpl@@UEAA?AV?$shared_ptr@VTimeDurationAbstr@yloader@@@std@@H@Z$0 000000018002258d f   misc.obj
 0001:0002158d       __catch$??_0DateDurationImpl@@UEAA?AV?$shared_ptr@VDateDurationAbstr@yloader@@@std@@H@Z$0 000000018002258d f   misc.obj
 0001:0002158d       __catch$??_0TimeDurationImpl@@UEAA?AV?$shared_ptr@VTimeDurationAbstr@yloader@@@std@@H@Z$0 000000018002258d f   misc.obj
 0001:000215a0       ?dtor$0@?0???0Date@yloader@@QEAA@AEBV?$basic_string@_WU?$char_traits@_W@std@@V?$allocator@_W@2@@std@@W4DateFormat@1@0@Z@4HA 00000001800225a0 f   misc.obj
 0001:000215b0       ?dtor$0@?0??parse@Date@yloader@@AEAAXAEBV?$basic_string@_WU?$char_traits@_W@std@@V?$allocator@_W@2@@std@@W4DateFormat@2@0@Z@4HA 00000001800225b0 f   misc.obj
 0001:000215bc       ?dtor$1@?0??parse@Date@yloader@@AEAAXAEBV?$basic_string@_WU?$char_traits@_W@std@@V?$allocator@_W@2@@std@@W4DateFormat@2@0@Z@4HA 00000001800225bc f   misc.obj
 0001:000215c8       ?dtor$2@?0??parse@Date@yloader@@AEAAXAEBV?$basic_string@_WU?$char_traits@_W@std@@V?$allocator@_W@2@@std@@W4DateFormat@2@0@Z@4HA 00000001800225c8 f   misc.obj
 0001:000215d4       ?dtor$3@?0??parse@Date@yloader@@AEAAXAEBV?$basic_string@_WU?$char_traits@_W@std@@V?$allocator@_W@2@@std@@W4DateFormat@2@0@Z@4HA 00000001800225d4 f   misc.obj
 0001:000215e0       ?dtor$4@?0??parse@Date@yloader@@AEAAXAEBV?$basic_string@_WU?$char_traits@_W@std@@V?$allocator@_W@2@@std@@W4DateFormat@2@0@Z@4HA 00000001800225e0 f   misc.obj
 0001:000215ec       ?dtor$5@?0??parse@Date@yloader@@AEAAXAEBV?$basic_string@_WU?$char_traits@_W@std@@V?$allocator@_W@2@@std@@W4DateFormat@2@0@Z@4HA 00000001800225ec f   misc.obj
 0001:000215f8       ?dtor$15@?0??parse@Date@yloader@@AEAAXAEBV?$basic_string@_WU?$char_traits@_W@std@@V?$allocator@_W@2@@std@@W4DateFormat@2@0@Z@4HA 00000001800225f8 f   misc.obj
 0001:00021604       ?dtor$16@?0??parse@Date@yloader@@AEAAXAEBV?$basic_string@_WU?$char_traits@_W@std@@V?$allocator@_W@2@@std@@W4DateFormat@2@0@Z@4HA 0000000180022604 f   misc.obj
 0001:00021610       ?dtor$17@?0??parse@Date@yloader@@AEAAXAEBV?$basic_string@_WU?$char_traits@_W@std@@V?$allocator@_W@2@@std@@W4DateFormat@2@0@Z@4HA 0000000180022610 f   misc.obj
 0001:0002161c       ?dtor$18@?0??parse@Date@yloader@@AEAAXAEBV?$basic_string@_WU?$char_traits@_W@std@@V?$allocator@_W@2@@std@@W4DateFormat@2@0@Z@4HA 000000018002261c f   misc.obj
 0001:00021628       ?dtor$19@?0??parse@Date@yloader@@AEAAXAEBV?$basic_string@_WU?$char_traits@_W@std@@V?$allocator@_W@2@@std@@W4DateFormat@2@0@Z@4HA 0000000180022628 f   misc.obj
 0001:00021634       ?dtor$20@?0??parse@Date@yloader@@AEAAXAEBV?$basic_string@_WU?$char_traits@_W@std@@V?$allocator@_W@2@@std@@W4DateFormat@2@0@Z@4HA 0000000180022634 f   misc.obj
 0001:00021640       ?dtor$21@?0??parse@Date@yloader@@AEAAXAEBV?$basic_string@_WU?$char_traits@_W@std@@V?$allocator@_W@2@@std@@W4DateFormat@2@0@Z@4HA 0000000180022640 f   misc.obj
 0001:0002164c       ?dtor$22@?0??parse@Date@yloader@@AEAAXAEBV?$basic_string@_WU?$char_traits@_W@std@@V?$allocator@_W@2@@std@@W4DateFormat@2@0@Z@4HA 000000018002264c f   misc.obj
 0001:00021658       ?dtor$23@?0??parse@Date@yloader@@AEAAXAEBV?$basic_string@_WU?$char_traits@_W@std@@V?$allocator@_W@2@@std@@W4DateFormat@2@0@Z@4HA 0000000180022658 f   misc.obj
 0001:00021664       ?dtor$24@?0??parse@Date@yloader@@AEAAXAEBV?$basic_string@_WU?$char_traits@_W@std@@V?$allocator@_W@2@@std@@W4DateFormat@2@0@Z@4HA 0000000180022664 f   misc.obj
 0001:00021670       ?dtor$25@?0??parse@Date@yloader@@AEAAXAEBV?$basic_string@_WU?$char_traits@_W@std@@V?$allocator@_W@2@@std@@W4DateFormat@2@0@Z@4HA 0000000180022670 f   misc.obj
 0001:0002167c       ?dtor$26@?0??parse@Date@yloader@@AEAAXAEBV?$basic_string@_WU?$char_traits@_W@std@@V?$allocator@_W@2@@std@@W4DateFormat@2@0@Z@4HA 000000018002267c f   misc.obj
 0001:00021688       ?dtor$27@?0??parse@Date@yloader@@AEAAXAEBV?$basic_string@_WU?$char_traits@_W@std@@V?$allocator@_W@2@@std@@W4DateFormat@2@0@Z@4HA 0000000180022688 f   misc.obj
 0001:00021694       ?dtor$28@?0??parse@Date@yloader@@AEAAXAEBV?$basic_string@_WU?$char_traits@_W@std@@V?$allocator@_W@2@@std@@W4DateFormat@2@0@Z@4HA 0000000180022694 f   misc.obj
 0001:000216a0       ?dtor$29@?0??parse@Date@yloader@@AEAAXAEBV?$basic_string@_WU?$char_traits@_W@std@@V?$allocator@_W@2@@std@@W4DateFormat@2@0@Z@4HA 00000001800226a0 f   misc.obj
 0001:000216ac       ?dtor$30@?0??parse@Date@yloader@@AEAAXAEBV?$basic_string@_WU?$char_traits@_W@std@@V?$allocator@_W@2@@std@@W4DateFormat@2@0@Z@4HA 00000001800226ac f   misc.obj
 0001:000216b8       ?dtor$31@?0??parse@Date@yloader@@AEAAXAEBV?$basic_string@_WU?$char_traits@_W@std@@V?$allocator@_W@2@@std@@W4DateFormat@2@0@Z@4HA 00000001800226b8 f   misc.obj
 0001:000216c4       ?dtor$32@?0??parse@Date@yloader@@AEAAXAEBV?$basic_string@_WU?$char_traits@_W@std@@V?$allocator@_W@2@@std@@W4DateFormat@2@0@Z@4HA 00000001800226c4 f   misc.obj
 0001:000216d0       ?dtor$33@?0??parse@Date@yloader@@AEAAXAEBV?$basic_string@_WU?$char_traits@_W@std@@V?$allocator@_W@2@@std@@W4DateFormat@2@0@Z@4HA 00000001800226d0 f   misc.obj
 0001:000216dc       ?dtor$34@?0??parse@Date@yloader@@AEAAXAEBV?$basic_string@_WU?$char_traits@_W@std@@V?$allocator@_W@2@@std@@W4DateFormat@2@0@Z@4HA 00000001800226dc f   misc.obj
 0001:000216e8       ?dtor$36@?0??parse@Date@yloader@@AEAAXAEBV?$basic_string@_WU?$char_traits@_W@std@@V?$allocator@_W@2@@std@@W4DateFormat@2@0@Z@4HA 00000001800226e8 f   misc.obj
 0001:000216f4       ?dtor$37@?0??parse@Date@yloader@@AEAAXAEBV?$basic_string@_WU?$char_traits@_W@std@@V?$allocator@_W@2@@std@@W4DateFormat@2@0@Z@4HA 00000001800226f4 f   misc.obj
 0001:00021700       ?dtor$38@?0??parse@Date@yloader@@AEAAXAEBV?$basic_string@_WU?$char_traits@_W@std@@V?$allocator@_W@2@@std@@W4DateFormat@2@0@Z@4HA 0000000180022700 f   misc.obj
 0001:0002170c       ?dtor$39@?0??parse@Date@yloader@@AEAAXAEBV?$basic_string@_WU?$char_traits@_W@std@@V?$allocator@_W@2@@std@@W4DateFormat@2@0@Z@4HA 000000018002270c f   misc.obj
 0001:00021720       ?dtor$0@?0??date@DateTimeImpl@@UEBA?AV?$shared_ptr@VDateAbstr@yloader@@@std@@XZ@4HA 0000000180022720 f   misc.obj
 0001:0002173d       ?dtor$2@?0??date@DateTimeImpl@@UEBA?AV?$shared_ptr@VDateAbstr@yloader@@@std@@XZ@4HA 000000018002273d f   misc.obj
 0001:00021750       ?dtor$2@?0??time_of_day@DateTimeImpl@@UEBA?AV?$shared_ptr@VTimeDurationAbstr@yloader@@@std@@XZ@4HA 0000000180022750 f   misc.obj
 0001:00021760       ?dtor$2@?0??localTimeSec@DateTimeAbstr@yloader@@SA?AV?$shared_ptr@VDateTimeAbstr@yloader@@@std@@XZ@4HA 0000000180022760 f   misc.obj
 0001:00021760       ?dtor$2@?0??universalTime@DateTimeAbstr@yloader@@SA?AV?$shared_ptr@VDateTimeAbstr@yloader@@@std@@XZ@4HA 0000000180022760 f   misc.obj
 0001:00021770       ?dtor$0@?0??makeFromDelimitedString@DateTimeAbstr@yloader@@SA?AV?$shared_ptr@VDateTimeAbstr@yloader@@@std@@AEBV?$basic_string@_WU?$char_traits@_W@std@@V?$allocator@_W@2@@4@@Z@4HA 0000000180022770 f   misc.obj
 0001:00021770       ?dtor$0@?0??makeFromIsoExtendedString@DateTimeAbstr@yloader@@SA?AV?$shared_ptr@VDateTimeAbstr@yloader@@@std@@AEBV?$basic_string@_WU?$char_traits@_W@std@@V?$allocator@_W@2@@4@@Z@4HA 0000000180022770 f   misc.obj
 0001:00021770       ?dtor$0@?0??makeFromIsoString@DateTimeAbstr@yloader@@SA?AV?$shared_ptr@VDateTimeAbstr@yloader@@@std@@AEBV?$basic_string@_WU?$char_traits@_W@std@@V?$allocator@_W@2@@4@@Z@4HA 0000000180022770 f   misc.obj
 0001:00021780       ?dtor$9@?0??makeFromNonDelimitedString@DateTimeAbstr@yloader@@SA?AV?$shared_ptr@VDateTimeAbstr@yloader@@@std@@AEBV?$basic_string@_WU?$char_traits@_W@std@@V?$allocator@_W@2@@4@@Z@4HA 0000000180022780 f   misc.obj
 0001:0002179d       ?dtor$12@?0??makeFromNonDelimitedString@DateTimeAbstr@yloader@@SA?AV?$shared_ptr@VDateTimeAbstr@yloader@@@std@@AEBV?$basic_string@_WU?$char_traits@_W@std@@V?$allocator@_W@2@@4@@Z@4HA 000000018002279d f   misc.obj
 0001:000217a9       ?dtor$3@?0??makeFromNonDelimitedString@DateTimeAbstr@yloader@@SA?AV?$shared_ptr@VDateTimeAbstr@yloader@@@std@@AEBV?$basic_string@_WU?$char_traits@_W@std@@V?$allocator@_W@2@@4@@Z@4HA 00000001800227a9 f   misc.obj
 0001:000217c0       ?dtor$0@?0??make@DateAbstr@yloader@@SA?AV?$shared_ptr@VDateAbstr@yloader@@@std@@III@Z@4HA 00000001800227c0 f   misc.obj
 0001:000217dd       ?dtor$2@?0??make@DateAbstr@yloader@@SA?AV?$shared_ptr@VDateAbstr@yloader@@@std@@III@Z@4HA 00000001800227dd f   misc.obj
 0001:000217e9       ?dtor$3@?0??make@DateAbstr@yloader@@SA?AV?$shared_ptr@VDateAbstr@yloader@@@std@@III@Z@4HA 00000001800227e9 f   misc.obj
 0001:00021800       ?catch$4@?0??make@DateTimeAbstr@yloader@@SA?AV?$shared_ptr@VDateTimeAbstr@yloader@@@std@@AEBVDateAbstr@2@AEBVTimeDurationAbstr@2@@Z@4HA 0000000180022800 f   misc.obj
 0001:0002180d       __catch$?make@DateTimeAbstr@yloader@@SA?AV?$shared_ptr@VDateTimeAbstr@yloader@@@std@@AEBVDateAbstr@2@AEBVTimeDurationAbstr@2@@Z$0 000000018002280d f   misc.obj
 0001:00021840       ?dtor$0@?0??make@DateTimeAbstr@yloader@@SA?AV?$shared_ptr@VDateTimeAbstr@yloader@@@std@@XZ@4HA 0000000180022840 f   misc.obj
 0001:0002185d       ?dtor$2@?0??make@DateTimeAbstr@yloader@@SA?AV?$shared_ptr@VDateTimeAbstr@yloader@@@std@@XZ@4HA 000000018002285d f   misc.obj
 0001:00021869       ?dtor$3@?0??make@DateTimeAbstr@yloader@@SA?AV?$shared_ptr@VDateTimeAbstr@yloader@@@std@@XZ@4HA 0000000180022869 f   misc.obj
 0001:00021880       ?catch$4@?0??make@DateTimeAbstr@yloader@@SA?AV?$shared_ptr@VDateTimeAbstr@yloader@@@std@@AEBVDateAbstr@2@@Z@4HA 0000000180022880 f   misc.obj
 0001:0002188d       __catch$?make@DateTimeAbstr@yloader@@SA?AV?$shared_ptr@VDateTimeAbstr@yloader@@@std@@AEBVDateAbstr@2@@Z$0 000000018002288d f   misc.obj
 0001:000218c0       ?catch$4@?0??make@DateTimeAbstr@yloader@@SA?AV?$shared_ptr@VDateTimeAbstr@yloader@@@std@@AEBV12@@Z@4HA 00000001800228c0 f   misc.obj
 0001:000218c0       ?catch$6@?0??make@DateAbstr@yloader@@SA?AV?$shared_ptr@VDateAbstr@yloader@@@std@@AEBV12@@Z@4HA 00000001800228c0 f   misc.obj
 0001:000218c0       ?catch$6@?0??make@TimeDurationAbstr@yloader@@SA?AV?$shared_ptr@VTimeDurationAbstr@yloader@@@std@@AEBV12@@Z@4HA 00000001800228c0 f   misc.obj
 0001:000218cd       __catch$?make@DateAbstr@yloader@@SA?AV?$shared_ptr@VDateAbstr@yloader@@@std@@AEBV12@@Z$0 00000001800228cd f   misc.obj
 0001:000218cd       __catch$?make@DateTimeAbstr@yloader@@SA?AV?$shared_ptr@VDateTimeAbstr@yloader@@@std@@AEBV12@@Z$0 00000001800228cd f   misc.obj
 0001:000218cd       __catch$?make@TimeDurationAbstr@yloader@@SA?AV?$shared_ptr@VTimeDurationAbstr@yloader@@@std@@AEBV12@@Z$0 00000001800228cd f   misc.obj
 0001:00021900       ?dtor$0@?0??parse@Version@yloader@@AEAAXPEB_W@Z@4HA 0000000180022900 f   misc.obj
 0001:0002190c       ?dtor$1@?0??parse@Version@yloader@@AEAAXPEB_W@Z@4HA 000000018002290c f   misc.obj
 0001:00021918       ?dtor$2@?0??parse@Version@yloader@@AEAAXPEB_W@Z@4HA 0000000180022918 f   misc.obj
 0001:00021924       ?dtor$3@?0??parse@Version@yloader@@AEAAXPEB_W@Z@4HA 0000000180022924 f   misc.obj
 0001:00021930       ?dtor$4@?0??parse@Version@yloader@@AEAAXPEB_W@Z@4HA 0000000180022930 f   misc.obj
 0001:0002193c       ?catch$26@?0??parse@Version@yloader@@AEAAXPEB_W@Z@4HA 000000018002293c f   misc.obj
 0001:0002194a       __catch$?parse@Version@yloader@@AEAAXPEB_W@Z$0 000000018002294a f   misc.obj
 0001:000219cd       ?dtor$5@?0??parse@Version@yloader@@AEAAXPEB_W@Z@4HA 00000001800229cd f   misc.obj
 0001:000219d9       ?dtor$6@?0??parse@Version@yloader@@AEAAXPEB_W@Z@4HA 00000001800229d9 f   misc.obj
 0001:000219e5       ?dtor$7@?0??parse@Version@yloader@@AEAAXPEB_W@Z@4HA 00000001800229e5 f   misc.obj
 0001:000219f1       ?dtor$8@?0??parse@Version@yloader@@AEAAXPEB_W@Z@4HA 00000001800229f1 f   misc.obj
 0001:00021a00       ?dtor$0@?0??cmdLineSplitter@yloader@@YA?AV?$vector@V?$basic_string@DU?$char_traits@D@std@@V?$allocator@D@2@@std@@V?$allocator@V?$basic_string@DU?$char_traits@D@std@@V?$allocator@D@2@@std@@@2@@std@@AEBV?$basic_string@_WU?$char_traits@_W@std@@V?$allocator@_W@2@@3@@Z@4HA 0000000180022a00 f   misc.obj
 0001:00021a26       ?dtor$1@?0??cmdLineSplitter@yloader@@YA?AV?$vector@V?$basic_string@DU?$char_traits@D@std@@V?$allocator@D@2@@std@@V?$allocator@V?$basic_string@DU?$char_traits@D@std@@V?$allocator@D@2@@std@@@2@@std@@AEBV?$basic_string@_WU?$char_traits@_W@std@@V?$allocator@_W@2@@3@@Z@4HA 0000000180022a26 f   misc.obj
 0001:00021a32       ?dtor$2@?0??cmdLineSplitter@yloader@@YA?AV?$vector@V?$basic_string@DU?$char_traits@D@std@@V?$allocator@D@2@@std@@V?$allocator@V?$basic_string@DU?$char_traits@D@std@@V?$allocator@D@2@@std@@@2@@std@@AEBV?$basic_string@_WU?$char_traits@_W@std@@V?$allocator@_W@2@@3@@Z@4HA 0000000180022a32 f   misc.obj
 0001:00021a3e       ?dtor$3@?0??cmdLineSplitter@yloader@@YA?AV?$vector@V?$basic_string@DU?$char_traits@D@std@@V?$allocator@D@2@@std@@V?$allocator@V?$basic_string@DU?$char_traits@D@std@@V?$allocator@D@2@@std@@@2@@std@@AEBV?$basic_string@_WU?$char_traits@_W@std@@V?$allocator@_W@2@@3@@Z@4HA 0000000180022a3e f   misc.obj
 0001:00021a4a       ?dtor$4@?0??cmdLineSplitter@yloader@@YA?AV?$vector@V?$basic_string@DU?$char_traits@D@std@@V?$allocator@D@2@@std@@V?$allocator@V?$basic_string@DU?$char_traits@D@std@@V?$allocator@D@2@@std@@@2@@std@@AEBV?$basic_string@_WU?$char_traits@_W@std@@V?$allocator@_W@2@@3@@Z@4HA 0000000180022a4a f   misc.obj
 0001:00021a56       ?dtor$5@?0??cmdLineSplitter@yloader@@YA?AV?$vector@V?$basic_string@DU?$char_traits@D@std@@V?$allocator@D@2@@std@@V?$allocator@V?$basic_string@DU?$char_traits@D@std@@V?$allocator@D@2@@std@@@2@@std@@AEBV?$basic_string@_WU?$char_traits@_W@std@@V?$allocator@_W@2@@3@@Z@4HA 0000000180022a56 f   misc.obj
 0001:00021a70       ?dtor$1@?0??toString@Date@yloader@@QEBA?AV?$basic_string@_WU?$char_traits@_W@std@@V?$allocator@_W@2@@std@@W4DateFormat@2@AEBV34@@Z@4HA 0000000180022a70 f   misc.obj
 0001:00021a7c       ?dtor$2@?0??toString@Date@yloader@@QEBA?AV?$basic_string@_WU?$char_traits@_W@std@@V?$allocator@_W@2@@std@@W4DateFormat@2@AEBV34@@Z@4HA 0000000180022a7c f   misc.obj
 0001:00021a88       ?dtor$3@?0??toString@Date@yloader@@QEBA?AV?$basic_string@_WU?$char_traits@_W@std@@V?$allocator@_W@2@@std@@W4DateFormat@2@AEBV34@@Z@4HA 0000000180022a88 f   misc.obj
 0001:00021a94       ?dtor$4@?0??toString@Date@yloader@@QEBA?AV?$basic_string@_WU?$char_traits@_W@std@@V?$allocator@_W@2@@std@@W4DateFormat@2@AEBV34@@Z@4HA 0000000180022a94 f   misc.obj
 0001:00021aa0       ?dtor$5@?0??toString@Date@yloader@@QEBA?AV?$basic_string@_WU?$char_traits@_W@std@@V?$allocator@_W@2@@std@@W4DateFormat@2@AEBV34@@Z@4HA 0000000180022aa0 f   misc.obj
 0001:00021aac       ?dtor$6@?0??toString@Date@yloader@@QEBA?AV?$basic_string@_WU?$char_traits@_W@std@@V?$allocator@_W@2@@std@@W4DateFormat@2@AEBV34@@Z@4HA 0000000180022aac f   misc.obj
 0001:00021ac0       ?dtor$0@?0???0?$CTokenizer@_WV?$CIsFromString@_W@@@@QEAA@AEBV?$basic_string@_WU?$char_traits@_W@std@@V?$allocator@_W@2@@std@@AEBV?$CIsFromString@_W@@V?$optional@_K@2@@Z@4HA 0000000180022ac0 f   misc.obj
 0001:00021acc       ?dtor$2@?0???0?$CTokenizer@_WV?$CIsFromString@_W@@@@QEAA@AEBV?$basic_string@_WU?$char_traits@_W@std@@V?$allocator@_W@2@@std@@AEBV?$CIsFromString@_W@@V?$optional@_K@2@@Z@4HA 0000000180022acc f   misc.obj
 0001:00021ad8       ?dtor$3@?0???0?$CTokenizer@_WV?$CIsFromString@_W@@@@QEAA@AEBV?$basic_string@_WU?$char_traits@_W@std@@V?$allocator@_W@2@@std@@AEBV?$CIsFromString@_W@@V?$optional@_K@2@@Z@4HA 0000000180022ad8 f   misc.obj
 0001:00021af0       ?dtor$1@?0??str@?$basic_ostringstream@_WU?$char_traits@_W@std@@V?$allocator@_W@2@@std@@QEGBA?AV?$basic_string@_WU?$char_traits@_W@std@@V?$allocator@_W@2@@2@XZ@4HA 0000000180022af0 f   misc.obj
 0001:00021b20       ?dtor$0@?0???0?$basic_ostringstream@_WU?$char_traits@_W@std@@V?$allocator@_W@2@@std@@QEAA@XZ@4HA 0000000180022b20 f   misc.obj
 0001:00021b4e       ?dtor$1@?0???0?$basic_ostringstream@_WU?$char_traits@_W@std@@V?$allocator@_W@2@@std@@QEAA@XZ@4HA 0000000180022b4e f   misc.obj
 0001:00021b60       ?dtor$0@?0???$tolower@D@std@@YADDAEBVlocale@0@@Z@4HA 0000000180022b60 f   misc.obj
 0001:00021b6e       ?dtor$1@?0???$tolower@D@std@@YADDAEBVlocale@0@@Z@4HA 0000000180022b6e f   misc.obj
 0001:00021b80       ?dtor$0@?0???$parse_date@Vdate@gregorian@boost@@@date_time@boost@@YA?AVdate@gregorian@1@AEBV?$basic_string@DU?$char_traits@D@std@@V?$allocator@D@2@@std@@H@Z@4HA 0000000180022b80 f   misc.obj
 0001:00021b8c       ?dtor$9@?0???$parse_date@Vdate@gregorian@boost@@@date_time@boost@@YA?AVdate@gregorian@1@AEBV?$basic_string@DU?$char_traits@D@std@@V?$allocator@D@2@@std@@H@Z@4HA 0000000180022b8c f   misc.obj
 0001:00021b98       ?dtor$10@?0???$parse_date@Vdate@gregorian@boost@@@date_time@boost@@YA?AVdate@gregorian@1@AEBV?$basic_string@DU?$char_traits@D@std@@V?$allocator@D@2@@std@@H@Z@4HA 0000000180022b98 f   misc.obj
 0001:00021ba8       ?dtor$1@?0???$parse_date@Vdate@gregorian@boost@@@date_time@boost@@YA?AVdate@gregorian@1@AEBV?$basic_string@DU?$char_traits@D@std@@V?$allocator@D@2@@std@@H@Z@4HA 0000000180022ba8 f   misc.obj
 0001:00021bb4       ?dtor$19@?0???$parse_date@Vdate@gregorian@boost@@@date_time@boost@@YA?AVdate@gregorian@1@AEBV?$basic_string@DU?$char_traits@D@std@@V?$allocator@D@2@@std@@H@Z@4HA 0000000180022bb4 f   misc.obj
 0001:00021bc0       ?dtor$2@?0???$parse_date@Vdate@gregorian@boost@@@date_time@boost@@YA?AVdate@gregorian@1@AEBV?$basic_string@DU?$char_traits@D@std@@V?$allocator@D@2@@std@@H@Z@4HA 0000000180022bc0 f   misc.obj
 0001:00021bcc       ?dtor$3@?0???$parse_date@Vdate@gregorian@boost@@@date_time@boost@@YA?AVdate@gregorian@1@AEBV?$basic_string@DU?$char_traits@D@std@@V?$allocator@D@2@@std@@H@Z@4HA 0000000180022bcc f   misc.obj
 0001:00021bd8       ?dtor$23@?0???$parse_date@Vdate@gregorian@boost@@@date_time@boost@@YA?AVdate@gregorian@1@AEBV?$basic_string@DU?$char_traits@D@std@@V?$allocator@D@2@@std@@H@Z@4HA 0000000180022bd8 f   misc.obj
 0001:00021be4       ?dtor$25@?0???$parse_date@Vdate@gregorian@boost@@@date_time@boost@@YA?AVdate@gregorian@1@AEBV?$basic_string@DU?$char_traits@D@std@@V?$allocator@D@2@@std@@H@Z@4HA 0000000180022be4 f   misc.obj
 0001:00021bf0       ?dtor$28@?0???$parse_date@Vdate@gregorian@boost@@@date_time@boost@@YA?AVdate@gregorian@1@AEBV?$basic_string@DU?$char_traits@D@std@@V?$allocator@D@2@@std@@H@Z@4HA 0000000180022bf0 f   misc.obj
 0001:00021bfc       ?dtor$26@?0???$parse_date@Vdate@gregorian@boost@@@date_time@boost@@YA?AVdate@gregorian@1@AEBV?$basic_string@DU?$char_traits@D@std@@V?$allocator@D@2@@std@@H@Z@4HA 0000000180022bfc f   misc.obj
 0001:00021c08       ?dtor$27@?0???$parse_date@Vdate@gregorian@boost@@@date_time@boost@@YA?AVdate@gregorian@1@AEBV?$basic_string@DU?$char_traits@D@std@@V?$allocator@D@2@@std@@H@Z@4HA 0000000180022c08 f   misc.obj
 0001:00021c20       ?dtor$0@?0???$parse_undelimited_date@Vdate@gregorian@boost@@@date_time@boost@@YA?AVdate@gregorian@1@AEBV?$basic_string@DU?$char_traits@D@std@@V?$allocator@D@2@@std@@@Z@4HA 0000000180022c20 f   misc.obj
 0001:00021c2c       ?dtor$1@?0???$parse_undelimited_date@Vdate@gregorian@boost@@@date_time@boost@@YA?AVdate@gregorian@1@AEBV?$basic_string@DU?$char_traits@D@std@@V?$allocator@D@2@@std@@@Z@4HA 0000000180022c2c f   misc.obj
 0001:00021c38       ?dtor$2@?0???$parse_undelimited_date@Vdate@gregorian@boost@@@date_time@boost@@YA?AVdate@gregorian@1@AEBV?$basic_string@DU?$char_traits@D@std@@V?$allocator@D@2@@std@@@Z@4HA 0000000180022c38 f   misc.obj
 0001:00021c50       ?dtor$0@?0???$to_iso_string_type@_W@posix_time@boost@@YA?AV?$basic_string@_WU?$char_traits@_W@std@@V?$allocator@_W@2@@std@@Vtime_duration@01@@Z@4HA 0000000180022c50 f   misc.obj
 0001:00021c50       ?dtor$0@?0???$to_simple_string_type@_W@posix_time@boost@@YA?AV?$basic_string@_WU?$char_traits@_W@std@@V?$allocator@_W@2@@std@@Vtime_duration@01@@Z@4HA 0000000180022c50 f   misc.obj
 0001:00021c60       ?dtor$0@?0???$to_iso_string_type@_W@posix_time@boost@@YA?AV?$basic_string@_WU?$char_traits@_W@std@@V?$allocator@_W@2@@std@@Vptime@01@@Z@4HA 0000000180022c60 f   misc.obj
 0001:00021c60       ?dtor$0@?0???$to_simple_string_type@_W@posix_time@boost@@YA?AV?$basic_string@_WU?$char_traits@_W@std@@V?$allocator@_W@2@@std@@Vptime@01@@Z@4HA 0000000180022c60 f   misc.obj
 0001:00021c6c       ?dtor$1@?0???$to_iso_string_type@_W@posix_time@boost@@YA?AV?$basic_string@_WU?$char_traits@_W@std@@V?$allocator@_W@2@@std@@Vptime@01@@Z@4HA 0000000180022c6c f   misc.obj
 0001:00021c6c       ?dtor$1@?0???$to_simple_string_type@_W@posix_time@boost@@YA?AV?$basic_string@_WU?$char_traits@_W@std@@V?$allocator@_W@2@@std@@Vptime@01@@Z@4HA 0000000180022c6c f   misc.obj
 0001:00021c78       ?dtor$2@?0???$to_iso_string_type@_W@posix_time@boost@@YA?AV?$basic_string@_WU?$char_traits@_W@std@@V?$allocator@_W@2@@std@@Vptime@01@@Z@4HA 0000000180022c78 f   misc.obj
 0001:00021c78       ?dtor$2@?0???$to_simple_string_type@_W@posix_time@boost@@YA?AV?$basic_string@_WU?$char_traits@_W@std@@V?$allocator@_W@2@@std@@Vptime@01@@Z@4HA 0000000180022c78 f   misc.obj
 0001:00021c90       ?dtor$0@?0???$parse_delimited_time@Vptime@posix_time@boost@@@date_time@boost@@YA?AVptime@posix_time@1@AEBV?$basic_string@DU?$char_traits@D@std@@V?$allocator@D@2@@std@@D@Z@4HA 0000000180022c90 f   misc.obj
 0001:00021c9c       ?dtor$1@?0???$parse_delimited_time@Vptime@posix_time@boost@@@date_time@boost@@YA?AVptime@posix_time@1@AEBV?$basic_string@DU?$char_traits@D@std@@V?$allocator@D@2@@std@@D@Z@4HA 0000000180022c9c f   misc.obj
 0001:00021cb0       ?dtor$0@?0???$parse_iso_time@Vptime@posix_time@boost@@@date_time@boost@@YA?AVptime@posix_time@1@AEBV?$basic_string@DU?$char_traits@D@std@@V?$allocator@D@2@@std@@D@Z@4HA 0000000180022cb0 f   misc.obj
 0001:00021cbc       ?dtor$1@?0???$parse_iso_time@Vptime@posix_time@boost@@@date_time@boost@@YA?AVptime@posix_time@1@AEBV?$basic_string@DU?$char_traits@D@std@@V?$allocator@D@2@@std@@D@Z@4HA 0000000180022cbc f   misc.obj
 0001:00021cc8       ?dtor$9@?0???$parse_iso_time@Vptime@posix_time@boost@@@date_time@boost@@YA?AVptime@posix_time@1@AEBV?$basic_string@DU?$char_traits@D@std@@V?$allocator@D@2@@std@@D@Z@4HA 0000000180022cc8 f   misc.obj
 0001:00021cf6       ?dtor$10@?0???$parse_iso_time@Vptime@posix_time@boost@@@date_time@boost@@YA?AVptime@posix_time@1@AEBV?$basic_string@DU?$char_traits@D@std@@V?$allocator@D@2@@std@@D@Z@4HA 0000000180022cf6 f   misc.obj
 0001:00021d08       ?dtor$12@?0???$parse_iso_time@Vptime@posix_time@boost@@@date_time@boost@@YA?AVptime@posix_time@1@AEBV?$basic_string@DU?$char_traits@D@std@@V?$allocator@D@2@@std@@D@Z@4HA 0000000180022d08 f   misc.obj
 0001:00021d16       ?dtor$2@?0???$parse_iso_time@Vptime@posix_time@boost@@@date_time@boost@@YA?AVptime@posix_time@1@AEBV?$basic_string@DU?$char_traits@D@std@@V?$allocator@D@2@@std@@D@Z@4HA 0000000180022d16 f   misc.obj
 0001:00021d22       ?dtor$3@?0???$parse_iso_time@Vptime@posix_time@boost@@@date_time@boost@@YA?AVptime@posix_time@1@AEBV?$basic_string@DU?$char_traits@D@std@@V?$allocator@D@2@@std@@D@Z@4HA 0000000180022d22 f   misc.obj
 0001:00021d2e       ?dtor$4@?0???$parse_iso_time@Vptime@posix_time@boost@@@date_time@boost@@YA?AVptime@posix_time@1@AEBV?$basic_string@DU?$char_traits@D@std@@V?$allocator@D@2@@std@@D@Z@4HA 0000000180022d2e f   misc.obj
 0001:00021d40       ?dtor$1@?0???$?6_WU?$char_traits@_W@std@@@std@@YAAEAV?$basic_ostream@_WU?$char_traits@_W@std@@@0@AEAV10@PEB_W@Z@4HA 0000000180022d40 f   misc.obj
 0001:00021d4c       ?dtor$0@?0???$?6_WU?$char_traits@_W@std@@@std@@YAAEAV?$basic_ostream@_WU?$char_traits@_W@std@@@0@AEAV10@PEB_W@Z@4HA 0000000180022d4c f   misc.obj
 0001:00021d58       ?catch$4@?0???$?6_WU?$char_traits@_W@std@@@std@@YAAEAV?$basic_ostream@_WU?$char_traits@_W@std@@@0@AEAV10@PEB_W@Z@4HA 0000000180022d58 f   misc.obj
 0001:00021d65       __catch$??$?6_WU?$char_traits@_W@std@@@std@@YAAEAV?$basic_ostream@_WU?$char_traits@_W@std@@@0@AEAV10@PEB_W@Z$0 0000000180022d65 f   misc.obj
 0001:00021da0       ?dtor$1@?0???$?6_WU?$char_traits@_W@std@@@std@@YAAEAV?$basic_ostream@_WU?$char_traits@_W@std@@@0@AEAV10@_W@Z@4HA 0000000180022da0 f   misc.obj
 0001:00021da0       ?dtor$1@?0???$_Insert_string@_WU?$char_traits@_W@std@@_K@std@@YAAEAV?$basic_ostream@_WU?$char_traits@_W@std@@@0@AEAV10@QEB_W_K@Z@4HA 0000000180022da0 f   misc.obj
 0001:00021dac       ?dtor$0@?0???$?6_WU?$char_traits@_W@std@@@std@@YAAEAV?$basic_ostream@_WU?$char_traits@_W@std@@@0@AEAV10@_W@Z@4HA 0000000180022dac f   misc.obj
 0001:00021dac       ?dtor$0@?0???$_Insert_string@_WU?$char_traits@_W@std@@_K@std@@YAAEAV?$basic_ostream@_WU?$char_traits@_W@std@@@0@AEAV10@QEB_W_K@Z@4HA 0000000180022dac f   misc.obj
 0001:00021db8       ?catch$4@?0???$?6_WU?$char_traits@_W@std@@@std@@YAAEAV?$basic_ostream@_WU?$char_traits@_W@std@@@0@AEAV10@_W@Z@4HA 0000000180022db8 f   misc.obj
 0001:00021db8       ?catch$4@?0???$_Insert_string@_WU?$char_traits@_W@std@@_K@std@@YAAEAV?$basic_ostream@_WU?$char_traits@_W@std@@@0@AEAV10@QEB_W_K@Z@4HA 0000000180022db8 f   misc.obj
 0001:00021dc5       __catch$??$?6_WU?$char_traits@_W@std@@@std@@YAAEAV?$basic_ostream@_WU?$char_traits@_W@std@@@0@AEAV10@_W@Z$0 0000000180022dc5 f   misc.obj
 0001:00021dc5       __catch$??$_Insert_string@_WU?$char_traits@_W@std@@_K@std@@YAAEAV?$basic_ostream@_WU?$char_traits@_W@std@@@0@AEAV10@QEB_W_K@Z$0 0000000180022dc5 f   misc.obj
 0001:00021e00       ?dtor$0@?0???$format@IIIV?$basic_string@_WU?$char_traits@_W@std@@V?$allocator@_W@2@@std@@@yloader@@YA?AV?$basic_string@_WU?$char_traits@_W@std@@V?$allocator@_W@2@@std@@AEBV12@IIIV12@@Z@4HA 0000000180022e00 f   misc.obj
 0001:00021e00       ?dtor$0@?0???$format@V?$basic_string@_WU?$char_traits@_W@std@@V?$allocator@_W@2@@std@@@yloader@@YA?AV?$basic_string@_WU?$char_traits@_W@std@@V?$allocator@_W@2@@std@@AEBV12@V12@@Z@4HA 0000000180022e00 f   misc.obj
 0001:00021e0c       ?dtor$3@?0???$format@IIIV?$basic_string@_WU?$char_traits@_W@std@@V?$allocator@_W@2@@std@@@yloader@@YA?AV?$basic_string@_WU?$char_traits@_W@std@@V?$allocator@_W@2@@std@@AEBV12@IIIV12@@Z@4HA 0000000180022e0c f   misc.obj
 0001:00021e0c       ?dtor$3@?0???$format@V?$basic_string@_WU?$char_traits@_W@std@@V?$allocator@_W@2@@std@@@yloader@@YA?AV?$basic_string@_WU?$char_traits@_W@std@@V?$allocator@_W@2@@std@@AEBV12@V12@@Z@4HA 0000000180022e0c f   misc.obj
 0001:00021e18       ?dtor$4@?0???$format@IIIV?$basic_string@_WU?$char_traits@_W@std@@V?$allocator@_W@2@@std@@@yloader@@YA?AV?$basic_string@_WU?$char_traits@_W@std@@V?$allocator@_W@2@@std@@AEBV12@IIIV12@@Z@4HA 0000000180022e18 f   misc.obj
 0001:00021e18       ?dtor$4@?0???$format@V?$basic_string@_WU?$char_traits@_W@std@@V?$allocator@_W@2@@std@@@yloader@@YA?AV?$basic_string@_WU?$char_traits@_W@std@@V?$allocator@_W@2@@std@@AEBV12@V12@@Z@4HA 0000000180022e18 f   misc.obj
 0001:00021e28       ?dtor$5@?0???$format@IIIV?$basic_string@_WU?$char_traits@_W@std@@V?$allocator@_W@2@@std@@@yloader@@YA?AV?$basic_string@_WU?$char_traits@_W@std@@V?$allocator@_W@2@@std@@AEBV12@IIIV12@@Z@4HA 0000000180022e28 f   misc.obj
 0001:00021e28       ?dtor$5@?0???$format@V?$basic_string@_WU?$char_traits@_W@std@@V?$allocator@_W@2@@std@@@yloader@@YA?AV?$basic_string@_WU?$char_traits@_W@std@@V?$allocator@_W@2@@std@@AEBV12@V12@@Z@4HA 0000000180022e28 f   misc.obj
 0001:00021e38       ?dtor$6@?0???$format@IIIV?$basic_string@_WU?$char_traits@_W@std@@V?$allocator@_W@2@@std@@@yloader@@YA?AV?$basic_string@_WU?$char_traits@_W@std@@V?$allocator@_W@2@@std@@AEBV12@IIIV12@@Z@4HA 0000000180022e38 f   misc.obj
 0001:00021e38       ?dtor$6@?0???$format@V?$basic_string@_WU?$char_traits@_W@std@@V?$allocator@_W@2@@std@@@yloader@@YA?AV?$basic_string@_WU?$char_traits@_W@std@@V?$allocator@_W@2@@std@@AEBV12@V12@@Z@4HA 0000000180022e38 f   misc.obj
 0001:00021e48       ?dtor$7@?0???$format@IIIV?$basic_string@_WU?$char_traits@_W@std@@V?$allocator@_W@2@@std@@@yloader@@YA?AV?$basic_string@_WU?$char_traits@_W@std@@V?$allocator@_W@2@@std@@AEBV12@IIIV12@@Z@4HA 0000000180022e48 f   misc.obj
 0001:00021e48       ?dtor$7@?0???$format@V?$basic_string@_WU?$char_traits@_W@std@@V?$allocator@_W@2@@std@@@yloader@@YA?AV?$basic_string@_WU?$char_traits@_W@std@@V?$allocator@_W@2@@std@@AEBV12@V12@@Z@4HA 0000000180022e48 f   misc.obj
 0001:00021e5b       ?dtor$1@?0???$format@IIIV?$basic_string@_WU?$char_traits@_W@std@@V?$allocator@_W@2@@std@@@yloader@@YA?AV?$basic_string@_WU?$char_traits@_W@std@@V?$allocator@_W@2@@std@@AEBV12@IIIV12@@Z@4HA 0000000180022e5b f   misc.obj
 0001:00021e5b       ?dtor$1@?0???$format@V?$basic_string@_WU?$char_traits@_W@std@@V?$allocator@_W@2@@std@@@yloader@@YA?AV?$basic_string@_WU?$char_traits@_W@std@@V?$allocator@_W@2@@std@@AEBV12@V12@@Z@4HA 0000000180022e5b f   misc.obj
 0001:00021e70       ?dtor$0@?0???$use_facet@V?$ctype@_W@std@@@std@@YAAEBV?$ctype@_W@0@AEBVlocale@0@@Z@4HA 0000000180022e70 f   misc.obj
 0001:00021e7e       ?dtor$1@?0???$use_facet@V?$ctype@_W@std@@@std@@YAAEBV?$ctype@_W@0@AEBVlocale@0@@Z@4HA 0000000180022e7e f   misc.obj
 0001:00021e90       ?dtor$0@?0???$use_facet@V?$numpunct@D@std@@@std@@YAAEBV?$numpunct@D@0@AEBVlocale@0@@Z@4HA 0000000180022e90 f   misc.obj
 0001:00021e9e       ?dtor$1@?0???$use_facet@V?$numpunct@D@std@@@std@@YAAEBV?$numpunct@D@0@AEBVlocale@0@@Z@4HA 0000000180022e9e f   misc.obj
 0001:00021eb0       ?dtor$0@?0???0?$wrapexcept@Ubad_day_of_month@gregorian@boost@@@boost@@QEAA@AEBU01@@Z@4HA 0000000180022eb0 f   misc.obj
 0001:00021eb0       ?dtor$0@?0???0?$wrapexcept@Ubad_month@gregorian@boost@@@boost@@QEAA@AEBU01@@Z@4HA 0000000180022eb0 f   misc.obj
 0001:00021eb0       ?dtor$0@?0???0?$wrapexcept@Ubad_year@gregorian@boost@@@boost@@QEAA@AEBU01@@Z@4HA 0000000180022eb0 f   misc.obj
 0001:00021eb0       ?dtor$0@?0???0?$wrapexcept@Vbad_format_string@io@boost@@@boost@@QEAA@AEBU01@@Z@4HA 0000000180022eb0 f   misc.obj
 0001:00021eb0       ?dtor$0@?0???0?$wrapexcept@Vbad_lexical_cast@boost@@@boost@@QEAA@AEBU01@@Z@4HA 0000000180022eb0 f   misc.obj
 0001:00021eb0       ?dtor$0@?0???0?$wrapexcept@Vruntime_error@std@@@boost@@QEAA@AEBU01@@Z@4HA 0000000180022eb0 f   misc.obj
 0001:00021eb0       ?dtor$0@?0???0?$wrapexcept@Vtoo_few_args@io@boost@@@boost@@QEAA@AEBU01@@Z@4HA 0000000180022eb0 f   misc.obj
 0001:00021eb0       ?dtor$0@?0???0?$wrapexcept@Vtoo_many_args@io@boost@@@boost@@QEAA@AEBU01@@Z@4HA 0000000180022eb0 f   misc.obj
 0001:00021ebc       ?dtor$1@?0???0?$wrapexcept@Ubad_day_of_month@gregorian@boost@@@boost@@QEAA@AEBU01@@Z@4HA 0000000180022ebc f   misc.obj
 0001:00021ebc       ?dtor$1@?0???0?$wrapexcept@Ubad_month@gregorian@boost@@@boost@@QEAA@AEBU01@@Z@4HA 0000000180022ebc f   misc.obj
 0001:00021ebc       ?dtor$1@?0???0?$wrapexcept@Ubad_year@gregorian@boost@@@boost@@QEAA@AEBU01@@Z@4HA 0000000180022ebc f   misc.obj
 0001:00021ebc       ?dtor$1@?0???0?$wrapexcept@Vbad_format_string@io@boost@@@boost@@QEAA@AEBU01@@Z@4HA 0000000180022ebc f   misc.obj
 0001:00021ebc       ?dtor$1@?0???0?$wrapexcept@Vbad_lexical_cast@boost@@@boost@@QEAA@AEBU01@@Z@4HA 0000000180022ebc f   misc.obj
 0001:00021ebc       ?dtor$1@?0???0?$wrapexcept@Vruntime_error@std@@@boost@@QEAA@AEBU01@@Z@4HA 0000000180022ebc f   misc.obj
 0001:00021ebc       ?dtor$1@?0???0?$wrapexcept@Vtoo_few_args@io@boost@@@boost@@QEAA@AEBU01@@Z@4HA 0000000180022ebc f   misc.obj
 0001:00021ebc       ?dtor$1@?0???0?$wrapexcept@Vtoo_many_args@io@boost@@@boost@@QEAA@AEBU01@@Z@4HA 0000000180022ebc f   misc.obj
 0001:00021ed0       ?dtor$0@?0??clone@?$wrapexcept@Ubad_day_of_month@gregorian@boost@@@boost@@UEBAPEBVclone_base@exception_detail@2@XZ@4HA 0000000180022ed0 f   misc.obj
 0001:00021ed0       ?dtor$0@?0??clone@?$wrapexcept@Ubad_month@gregorian@boost@@@boost@@UEBAPEBVclone_base@exception_detail@2@XZ@4HA 0000000180022ed0 f   misc.obj
 0001:00021ed0       ?dtor$0@?0??clone@?$wrapexcept@Ubad_year@gregorian@boost@@@boost@@UEBAPEBVclone_base@exception_detail@2@XZ@4HA 0000000180022ed0 f   misc.obj
 0001:00021ed0       ?dtor$0@?0??clone@?$wrapexcept@Vruntime_error@std@@@boost@@UEBAPEBVclone_base@exception_detail@2@XZ@4HA 0000000180022ed0 f   misc.obj
 0001:00021eed       ?dtor$1@?0??clone@?$wrapexcept@Ubad_day_of_month@gregorian@boost@@@boost@@UEBAPEBVclone_base@exception_detail@2@XZ@4HA 0000000180022eed f   misc.obj
 0001:00021eed       ?dtor$1@?0??clone@?$wrapexcept@Ubad_month@gregorian@boost@@@boost@@UEBAPEBVclone_base@exception_detail@2@XZ@4HA 0000000180022eed f   misc.obj
 0001:00021eed       ?dtor$1@?0??clone@?$wrapexcept@Ubad_year@gregorian@boost@@@boost@@UEBAPEBVclone_base@exception_detail@2@XZ@4HA 0000000180022eed f   misc.obj
 0001:00021eed       ?dtor$1@?0??clone@?$wrapexcept@Vruntime_error@std@@@boost@@UEBAPEBVclone_base@exception_detail@2@XZ@4HA 0000000180022eed f   misc.obj
 0001:00021f00       ?dtor$0@?0??clone@?$wrapexcept@Vbad_format_string@io@boost@@@boost@@UEBAPEBVclone_base@exception_detail@2@XZ@4HA 0000000180022f00 f   misc.obj
 0001:00021f00       ?dtor$0@?0??clone@?$wrapexcept@Vbad_lexical_cast@boost@@@boost@@UEBAPEBVclone_base@exception_detail@2@XZ@4HA 0000000180022f00 f   misc.obj
 0001:00021f00       ?dtor$0@?0??clone@?$wrapexcept@Vtoo_few_args@io@boost@@@boost@@UEBAPEBVclone_base@exception_detail@2@XZ@4HA 0000000180022f00 f   misc.obj
 0001:00021f00       ?dtor$0@?0??clone@?$wrapexcept@Vtoo_many_args@io@boost@@@boost@@UEBAPEBVclone_base@exception_detail@2@XZ@4HA 0000000180022f00 f   misc.obj
 0001:00021f1d       ?dtor$1@?0??clone@?$wrapexcept@Vbad_format_string@io@boost@@@boost@@UEBAPEBVclone_base@exception_detail@2@XZ@4HA 0000000180022f1d f   misc.obj
 0001:00021f1d       ?dtor$1@?0??clone@?$wrapexcept@Vbad_lexical_cast@boost@@@boost@@UEBAPEBVclone_base@exception_detail@2@XZ@4HA 0000000180022f1d f   misc.obj
 0001:00021f1d       ?dtor$1@?0??clone@?$wrapexcept@Vtoo_few_args@io@boost@@@boost@@UEBAPEBVclone_base@exception_detail@2@XZ@4HA 0000000180022f1d f   misc.obj
 0001:00021f1d       ?dtor$1@?0??clone@?$wrapexcept@Vtoo_many_args@io@boost@@@boost@@UEBAPEBVclone_base@exception_detail@2@XZ@4HA 0000000180022f1d f   misc.obj
 0001:00021f30       ?dtor$0@?0???0?$special_values_parser@Vdate@gregorian@boost@@D@date_time@boost@@QEAA@XZ@4HA 0000000180022f30 f   misc.obj
 0001:00021f3c       ?dtor$1@?0???0?$special_values_parser@Vdate@gregorian@boost@@D@date_time@boost@@QEAA@XZ@4HA 0000000180022f3c f   misc.obj
 0001:00021f48       ?dtor$2@?0???0?$special_values_parser@Vdate@gregorian@boost@@D@date_time@boost@@QEAA@XZ@4HA 0000000180022f48 f   misc.obj
 0001:00021f54       ?dtor$3@?0???0?$special_values_parser@Vdate@gregorian@boost@@D@date_time@boost@@QEAA@XZ@4HA 0000000180022f54 f   misc.obj
 0001:00021f60       ?dtor$4@?0???0?$special_values_parser@Vdate@gregorian@boost@@D@date_time@boost@@QEAA@XZ@4HA 0000000180022f60 f   misc.obj
 0001:00021f6c       ?dtor$5@?0???0?$special_values_parser@Vdate@gregorian@boost@@D@date_time@boost@@QEAA@XZ@4HA 0000000180022f6c f   misc.obj
 0001:00021f80       ?dtor$2@?0??begin@?$tokenizer@V?$char_separator@DU?$char_traits@D@std@@@boost@@V?$_String_const_iterator@V?$_String_val@U?$_Simple_types@D@std@@@std@@@std@@V?$basic_string@DU?$char_traits@D@std@@V?$allocator@D@2@@4@@boost@@QEBA?AV?$token_iterator@V?$char_separator@DU?$char_traits@D@std@@@boost@@V?$_String_const_iterator@V?$_String_val@U?$_Simple_types@D@std@@@std@@@std@@V?$basic_string@DU?$char_traits@D@std@@V?$allocator@D@2@@4@@2@XZ@4HA 0000000180022f80 f   misc.obj
 0001:00021f8c       ?dtor$4@?0??begin@?$tokenizer@V?$char_separator@DU?$char_traits@D@std@@@boost@@V?$_String_const_iterator@V?$_String_val@U?$_Simple_types@D@std@@@std@@@std@@V?$basic_string@DU?$char_traits@D@std@@V?$allocator@D@2@@4@@boost@@QEBA?AV?$token_iterator@V?$char_separator@DU?$char_traits@D@std@@@boost@@V?$_String_const_iterator@V?$_String_val@U?$_Simple_types@D@std@@@std@@@std@@V?$basic_string@DU?$char_traits@D@std@@V?$allocator@D@2@@4@@2@XZ@4HA 0000000180022f8c f   misc.obj
 0001:00021f98       ?dtor$7@?0??begin@?$tokenizer@V?$char_separator@DU?$char_traits@D@std@@@boost@@V?$_String_const_iterator@V?$_String_val@U?$_Simple_types@D@std@@@std@@@std@@V?$basic_string@DU?$char_traits@D@std@@V?$allocator@D@2@@4@@boost@@QEBA?AV?$token_iterator@V?$char_separator@DU?$char_traits@D@std@@@boost@@V?$_String_const_iterator@V?$_String_val@U?$_Simple_types@D@std@@@std@@@std@@V?$basic_string@DU?$char_traits@D@std@@V?$allocator@D@2@@4@@2@XZ@4HA 0000000180022f98 f   misc.obj
 0001:00021fa4       ?dtor$5@?0??begin@?$tokenizer@V?$char_separator@DU?$char_traits@D@std@@@boost@@V?$_String_const_iterator@V?$_String_val@U?$_Simple_types@D@std@@@std@@@std@@V?$basic_string@DU?$char_traits@D@std@@V?$allocator@D@2@@4@@boost@@QEBA?AV?$token_iterator@V?$char_separator@DU?$char_traits@D@std@@@boost@@V?$_String_const_iterator@V?$_String_val@U?$_Simple_types@D@std@@@std@@@std@@V?$basic_string@DU?$char_traits@D@std@@V?$allocator@D@2@@4@@2@XZ@4HA 0000000180022fa4 f   misc.obj
 0001:00021fb0       ?dtor$6@?0??begin@?$tokenizer@V?$char_separator@DU?$char_traits@D@std@@@boost@@V?$_String_const_iterator@V?$_String_val@U?$_Simple_types@D@std@@@std@@@std@@V?$basic_string@DU?$char_traits@D@std@@V?$allocator@D@2@@4@@boost@@QEBA?AV?$token_iterator@V?$char_separator@DU?$char_traits@D@std@@@boost@@V?$_String_const_iterator@V?$_String_val@U?$_Simple_types@D@std@@@std@@@std@@V?$basic_string@DU?$char_traits@D@std@@V?$allocator@D@2@@4@@2@XZ@4HA 0000000180022fb0 f   misc.obj
 0001:00021fc0       ?dtor$0@?0??_Getcat@?$numpunct@_W@std@@SA_KPEAPEBVfacet@locale@2@PEBV42@@Z@4HA 0000000180022fc0 f   misc.obj
 0001:00021fdd       ?dtor$1@?0??_Getcat@?$numpunct@_W@std@@SA_KPEAPEBVfacet@locale@2@PEBV42@@Z@4HA 0000000180022fdd f   misc.obj
 0001:00022004       ?dtor$3@?0??_Getcat@?$numpunct@_W@std@@SA_KPEAPEBVfacet@locale@2@PEBV42@@Z@4HA 0000000180023004 f   misc.obj
 0001:00022012       ?dtor$4@?0??_Getcat@?$numpunct@_W@std@@SA_KPEAPEBVfacet@locale@2@PEBV42@@Z@4HA 0000000180023012 f   misc.obj
 0001:00022020       ?dtor$0@?0??_Getcat@?$numpunct@D@std@@SA_KPEAPEBVfacet@locale@2@PEBV42@@Z@4HA 0000000180023020 f   misc.obj
 0001:0002203d       ?dtor$1@?0??_Getcat@?$numpunct@D@std@@SA_KPEAPEBVfacet@locale@2@PEBV42@@Z@4HA 000000018002303d f   misc.obj
 0001:00022064       ?dtor$3@?0??_Getcat@?$numpunct@D@std@@SA_KPEAPEBVfacet@locale@2@PEBV42@@Z@4HA 0000000180023064 f   misc.obj
 0001:00022072       ?dtor$4@?0??_Getcat@?$numpunct@D@std@@SA_KPEAPEBVfacet@locale@2@PEBV42@@Z@4HA 0000000180023072 f   misc.obj
 0001:00022080       ?dtor$0@?0??ymd_to_string@?$ymd_formatter@U?$year_month_day_base@Vgreg_year@gregorian@boost@@Vgreg_month@23@Vgreg_day@23@@date_time@boost@@V?$simple_format@_W@23@_W@date_time@boost@@SA?AV?$basic_string@_WU?$char_traits@_W@std@@V?$allocator@_W@2@@std@@U?$year_month_day_base@Vgreg_year@gregorian@boost@@Vgreg_month@23@Vgreg_day@23@@23@@Z@4HA 0000000180023080 f   misc.obj
 0001:0002208c       ?dtor$2@?0??ymd_to_string@?$ymd_formatter@U?$year_month_day_base@Vgreg_year@gregorian@boost@@Vgreg_month@23@Vgreg_day@23@@date_time@boost@@V?$simple_format@_W@23@_W@date_time@boost@@SA?AV?$basic_string@_WU?$char_traits@_W@std@@V?$allocator@_W@2@@std@@U?$year_month_day_base@Vgreg_year@gregorian@boost@@Vgreg_month@23@Vgreg_day@23@@23@@Z@4HA 000000018002308c f   misc.obj
 0001:000220a0       ?dtor$0@?0??ymd_to_string@?$ymd_formatter@U?$year_month_day_base@Vgreg_year@gregorian@boost@@Vgreg_month@23@Vgreg_day@23@@date_time@boost@@V?$iso_extended_format@_W@23@_W@date_time@boost@@SA?AV?$basic_string@_WU?$char_traits@_W@std@@V?$allocator@_W@2@@std@@U?$year_month_day_base@Vgreg_year@gregorian@boost@@Vgreg_month@23@Vgreg_day@23@@23@@Z@4HA 00000001800230a0 f   misc.obj
 0001:000220a0       ?dtor$0@?0??ymd_to_string@?$ymd_formatter@U?$year_month_day_base@Vgreg_year@gregorian@boost@@Vgreg_month@23@Vgreg_day@23@@date_time@boost@@V?$iso_format@_W@23@_W@date_time@boost@@SA?AV?$basic_string@_WU?$char_traits@_W@std@@V?$allocator@_W@2@@std@@U?$year_month_day_base@Vgreg_year@gregorian@boost@@Vgreg_month@23@Vgreg_day@23@@23@@Z@4HA 00000001800230a0 f   misc.obj
 0001:000220ac       ?dtor$2@?0??ymd_to_string@?$ymd_formatter@U?$year_month_day_base@Vgreg_year@gregorian@boost@@Vgreg_month@23@Vgreg_day@23@@date_time@boost@@V?$iso_extended_format@_W@23@_W@date_time@boost@@SA?AV?$basic_string@_WU?$char_traits@_W@std@@V?$allocator@_W@2@@std@@U?$year_month_day_base@Vgreg_year@gregorian@boost@@Vgreg_month@23@Vgreg_day@23@@23@@Z@4HA 00000001800230ac f   misc.obj
 0001:000220ac       ?dtor$2@?0??ymd_to_string@?$ymd_formatter@U?$year_month_day_base@Vgreg_year@gregorian@boost@@Vgreg_month@23@Vgreg_day@23@@date_time@boost@@V?$iso_format@_W@23@_W@date_time@boost@@SA?AV?$basic_string@_WU?$char_traits@_W@std@@V?$allocator@_W@2@@std@@U?$year_month_day_base@Vgreg_year@gregorian@boost@@Vgreg_month@23@Vgreg_day@23@@23@@Z@4HA 00000001800230ac f   misc.obj
 0001:000220b8       ?dtor$6@?0??ymd_to_string@?$ymd_formatter@U?$year_month_day_base@Vgreg_year@gregorian@boost@@Vgreg_month@23@Vgreg_day@23@@date_time@boost@@V?$iso_extended_format@_W@23@_W@date_time@boost@@SA?AV?$basic_string@_WU?$char_traits@_W@std@@V?$allocator@_W@2@@std@@U?$year_month_day_base@Vgreg_year@gregorian@boost@@Vgreg_month@23@Vgreg_day@23@@23@@Z@4HA 00000001800230b8 f   misc.obj
 0001:000220b8       ?dtor$6@?0??ymd_to_string@?$ymd_formatter@U?$year_month_day_base@Vgreg_year@gregorian@boost@@Vgreg_month@23@Vgreg_day@23@@date_time@boost@@V?$iso_format@_W@23@_W@date_time@boost@@SA?AV?$basic_string@_WU?$char_traits@_W@std@@V?$allocator@_W@2@@std@@U?$year_month_day_base@Vgreg_year@gregorian@boost@@Vgreg_month@23@Vgreg_day@23@@23@@Z@4HA 00000001800230b8 f   misc.obj
 0001:000220d0       ?dtor$0@?0??sv_strings@?$special_values_parser@Vdate@gregorian@boost@@D@date_time@boost@@QEAAXAEBV?$basic_string@DU?$char_traits@D@std@@V?$allocator@D@2@@std@@0000@Z@4HA 00000001800230d0 f   misc.obj
 0001:000220dc       ?dtor$3@?0??sv_strings@?$special_values_parser@Vdate@gregorian@boost@@D@date_time@boost@@QEAAXAEBV?$basic_string@DU?$char_traits@D@std@@V?$allocator@D@2@@std@@0000@Z@4HA 00000001800230dc f   misc.obj
 0001:000220e8       ?dtor$4@?0??sv_strings@?$special_values_parser@Vdate@gregorian@boost@@D@date_time@boost@@QEAAXAEBV?$basic_string@DU?$char_traits@D@std@@V?$allocator@D@2@@std@@0000@Z@4HA 00000001800230e8 f   misc.obj
 0001:00022100       ?dtor$0@?0???0?$token_iterator@Voffset_separator@boost@@V?$_String_const_iterator@V?$_String_val@U?$_Simple_types@D@std@@@std@@@std@@V?$basic_string@DU?$char_traits@D@std@@V?$allocator@D@2@@4@@boost@@QEAA@Voffset_separator@1@V?$_String_const_iterator@V?$_String_val@U?$_Simple_types@D@std@@@std@@@std@@1@Z@4HA 0000000180023100 f   misc.obj
 0001:0002210c       ?dtor$1@?0???0?$token_iterator@Voffset_separator@boost@@V?$_String_const_iterator@V?$_String_val@U?$_Simple_types@D@std@@@std@@@std@@V?$basic_string@DU?$char_traits@D@std@@V?$allocator@D@2@@4@@boost@@QEAA@Voffset_separator@1@V?$_String_const_iterator@V?$_String_val@U?$_Simple_types@D@std@@@std@@@std@@1@Z@4HA 000000018002310c f   misc.obj
 0001:00022118       ?dtor$2@?0???0?$token_iterator@Voffset_separator@boost@@V?$_String_const_iterator@V?$_String_val@U?$_Simple_types@D@std@@@std@@@std@@V?$basic_string@DU?$char_traits@D@std@@V?$allocator@D@2@@4@@boost@@QEAA@Voffset_separator@1@V?$_String_const_iterator@V?$_String_val@U?$_Simple_types@D@std@@@std@@@std@@1@Z@4HA 0000000180023118 f   misc.obj
 0001:00022130       ?dtor$0@?0???0?$string_parse_tree@D@date_time@boost@@QEAA@V?$vector@V?$basic_string@DU?$char_traits@D@std@@V?$allocator@D@2@@std@@V?$allocator@V?$basic_string@DU?$char_traits@D@std@@V?$allocator@D@2@@std@@@2@@std@@I@Z@4HA 0000000180023130 f   misc.obj
 0001:0002213c       ?dtor$1@?0???0?$string_parse_tree@D@date_time@boost@@QEAA@V?$vector@V?$basic_string@DU?$char_traits@D@std@@V?$allocator@D@2@@std@@V?$allocator@V?$basic_string@DU?$char_traits@D@std@@V?$allocator@D@2@@std@@@2@@std@@I@Z@4HA 000000018002313c f   misc.obj
 0001:00022148       ?dtor$2@?0???0?$string_parse_tree@D@date_time@boost@@QEAA@V?$vector@V?$basic_string@DU?$char_traits@D@std@@V?$allocator@D@2@@std@@V?$allocator@V?$basic_string@DU?$char_traits@D@std@@V?$allocator@D@2@@std@@@2@@std@@I@Z@4HA 0000000180023148 f   misc.obj
 0001:00022154       ?dtor$11@?0???0?$string_parse_tree@D@date_time@boost@@QEAA@V?$vector@V?$basic_string@DU?$char_traits@D@std@@V?$allocator@D@2@@std@@V?$allocator@V?$basic_string@DU?$char_traits@D@std@@V?$allocator@D@2@@std@@@2@@std@@I@Z@4HA 0000000180023154 f   misc.obj
 0001:00022160       ?dtor$3@?0???0?$string_parse_tree@D@date_time@boost@@QEAA@V?$vector@V?$basic_string@DU?$char_traits@D@std@@V?$allocator@D@2@@std@@V?$allocator@V?$basic_string@DU?$char_traits@D@std@@V?$allocator@D@2@@std@@@2@@std@@I@Z@4HA 0000000180023160 f   misc.obj
 0001:00022170       ?dtor$0@?0??insert@?$string_parse_tree@D@date_time@boost@@QEAAXAEBV?$basic_string@DU?$char_traits@D@std@@V?$allocator@D@2@@std@@G@Z@4HA 0000000180023170 f   misc.obj
 0001:0002217c       ?dtor$1@?0??insert@?$string_parse_tree@D@date_time@boost@@QEAAXAEBV?$basic_string@DU?$char_traits@D@std@@V?$allocator@D@2@@std@@G@Z@4HA 000000018002317c f   misc.obj
 0001:00022188       ?dtor$2@?0??insert@?$string_parse_tree@D@date_time@boost@@QEAAXAEBV?$basic_string@DU?$char_traits@D@std@@V?$allocator@D@2@@std@@G@Z@4HA 0000000180023188 f   misc.obj
 0001:00022194       ?dtor$3@?0??insert@?$string_parse_tree@D@date_time@boost@@QEAAXAEBV?$basic_string@DU?$char_traits@D@std@@V?$allocator@D@2@@std@@G@Z@4HA 0000000180023194 f   misc.obj
 0001:000221a0       ?dtor$4@?0??insert@?$string_parse_tree@D@date_time@boost@@QEAAXAEBV?$basic_string@DU?$char_traits@D@std@@V?$allocator@D@2@@std@@G@Z@4HA 00000001800231a0 f   misc.obj
 0001:000221ac       ?dtor$5@?0??insert@?$string_parse_tree@D@date_time@boost@@QEAAXAEBV?$basic_string@DU?$char_traits@D@std@@V?$allocator@D@2@@std@@G@Z@4HA 00000001800231ac f   misc.obj
 0001:000221b8       ?dtor$6@?0??insert@?$string_parse_tree@D@date_time@boost@@QEAAXAEBV?$basic_string@DU?$char_traits@D@std@@V?$allocator@D@2@@std@@G@Z@4HA 00000001800231b8 f   misc.obj
 0001:000221c4       ?dtor$7@?0??insert@?$string_parse_tree@D@date_time@boost@@QEAAXAEBV?$basic_string@DU?$char_traits@D@std@@V?$allocator@D@2@@std@@G@Z@4HA 00000001800231c4 f   misc.obj
 0001:000221d0       ?dtor$2@?0???$?6_WU?$char_traits@_W@std@@@std@@YAAEAV?$basic_ostream@_WU?$char_traits@_W@std@@@0@AEAV10@D@Z@4HA 00000001800231d0 f   misc.obj
 0001:000221dc       ?dtor$0@?0???$?6_WU?$char_traits@_W@std@@@std@@YAAEAV?$basic_ostream@_WU?$char_traits@_W@std@@@0@AEAV10@D@Z@4HA 00000001800231dc f   misc.obj
 0001:000221e8       ?dtor$1@?0???$?6_WU?$char_traits@_W@std@@@std@@YAAEAV?$basic_ostream@_WU?$char_traits@_W@std@@@0@AEAV10@D@Z@4HA 00000001800231e8 f   misc.obj
 0001:000221f4       ?catch$5@?0???$?6_WU?$char_traits@_W@std@@@std@@YAAEAV?$basic_ostream@_WU?$char_traits@_W@std@@@0@AEAV10@D@Z@4HA 00000001800231f4 f   misc.obj
 0001:00022201       __catch$??$?6_WU?$char_traits@_W@std@@@std@@YAAEAV?$basic_ostream@_WU?$char_traits@_W@std@@@0@AEAV10@D@Z$0 0000000180023201 f   misc.obj
 0001:00022240       ?dtor$1@?0??str@?$basic_format@_WU?$char_traits@_W@std@@V?$allocator@_W@2@@boost@@QEBA?AV?$basic_string@_WU?$char_traits@_W@std@@V?$allocator@_W@2@@std@@XZ@4HA 0000000180023240 f   misc.obj
 0001:0002224c       ?dtor$2@?0??str@?$basic_format@_WU?$char_traits@_W@std@@V?$allocator@_W@2@@boost@@QEBA?AV?$basic_string@_WU?$char_traits@_W@std@@V?$allocator@_W@2@@std@@XZ@4HA 000000018002324c f   misc.obj
 0001:00022260       ?dtor$2@?0???$?6_WU?$char_traits@_W@std@@@std@@YAAEAV?$basic_ostream@_WU?$char_traits@_W@std@@@0@AEAV10@PEBD@Z@4HA 0000000180023260 f   misc.obj
 0001:0002226c       ?dtor$0@?0???$?6_WU?$char_traits@_W@std@@@std@@YAAEAV?$basic_ostream@_WU?$char_traits@_W@std@@@0@AEAV10@PEBD@Z@4HA 000000018002326c f   misc.obj
 0001:00022278       ?dtor$1@?0???$?6_WU?$char_traits@_W@std@@@std@@YAAEAV?$basic_ostream@_WU?$char_traits@_W@std@@@0@AEAV10@PEBD@Z@4HA 0000000180023278 f   misc.obj
 0001:00022284       ?catch$5@?0???$?6_WU?$char_traits@_W@std@@@std@@YAAEAV?$basic_ostream@_WU?$char_traits@_W@std@@@0@AEAV10@PEBD@Z@4HA 0000000180023284 f   misc.obj
 0001:00022291       __catch$??$?6_WU?$char_traits@_W@std@@@std@@YAAEAV?$basic_ostream@_WU?$char_traits@_W@std@@@0@AEAV10@PEBD@Z$0 0000000180023291 f   misc.obj
 0001:000222d0       ?dtor$27@?0???$month_str_to_ushort@Vgreg_month@gregorian@boost@@@date_time@boost@@YAGAEBV?$basic_string@DU?$char_traits@D@std@@V?$allocator@D@2@@std@@@Z@4HA 00000001800232d0 f   misc.obj
 0001:000222dc       ?dtor$28@?0???$month_str_to_ushort@Vgreg_month@gregorian@boost@@@date_time@boost@@YAGAEBV?$basic_string@DU?$char_traits@D@std@@V?$allocator@D@2@@std@@@Z@4HA 00000001800232dc f   misc.obj
 0001:000222e8       ?dtor$1@?0???$month_str_to_ushort@Vgreg_month@gregorian@boost@@@date_time@boost@@YAGAEBV?$basic_string@DU?$char_traits@D@std@@V?$allocator@D@2@@std@@@Z@4HA 00000001800232e8 f   misc.obj
 0001:000222f4       ?dtor$2@?0???$month_str_to_ushort@Vgreg_month@gregorian@boost@@@date_time@boost@@YAGAEBV?$basic_string@DU?$char_traits@D@std@@V?$allocator@D@2@@std@@@Z@4HA 00000001800232f4 f   misc.obj
 0001:00022300       ?dtor$3@?0???$month_str_to_ushort@Vgreg_month@gregorian@boost@@@date_time@boost@@YAGAEBV?$basic_string@DU?$char_traits@D@std@@V?$allocator@D@2@@std@@@Z@4HA 0000000180023300 f   misc.obj
 0001:0002230c       ?dtor$4@?0???$month_str_to_ushort@Vgreg_month@gregorian@boost@@@date_time@boost@@YAGAEBV?$basic_string@DU?$char_traits@D@std@@V?$allocator@D@2@@std@@@Z@4HA 000000018002330c f   misc.obj
 0001:00022318       ?dtor$5@?0???$month_str_to_ushort@Vgreg_month@gregorian@boost@@@date_time@boost@@YAGAEBV?$basic_string@DU?$char_traits@D@std@@V?$allocator@D@2@@std@@@Z@4HA 0000000180023318 f   misc.obj
 0001:00022324       ?dtor$6@?0???$month_str_to_ushort@Vgreg_month@gregorian@boost@@@date_time@boost@@YAGAEBV?$basic_string@DU?$char_traits@D@std@@V?$allocator@D@2@@std@@@Z@4HA 0000000180023324 f   misc.obj
 0001:00022330       ?dtor$7@?0???$month_str_to_ushort@Vgreg_month@gregorian@boost@@@date_time@boost@@YAGAEBV?$basic_string@DU?$char_traits@D@std@@V?$allocator@D@2@@std@@@Z@4HA 0000000180023330 f   misc.obj
 0001:0002233c       ?dtor$8@?0???$month_str_to_ushort@Vgreg_month@gregorian@boost@@@date_time@boost@@YAGAEBV?$basic_string@DU?$char_traits@D@std@@V?$allocator@D@2@@std@@@Z@4HA 000000018002333c f   misc.obj
 0001:00022348       ?dtor$9@?0???$month_str_to_ushort@Vgreg_month@gregorian@boost@@@date_time@boost@@YAGAEBV?$basic_string@DU?$char_traits@D@std@@V?$allocator@D@2@@std@@@Z@4HA 0000000180023348 f   misc.obj
 0001:00022354       ?dtor$10@?0???$month_str_to_ushort@Vgreg_month@gregorian@boost@@@date_time@boost@@YAGAEBV?$basic_string@DU?$char_traits@D@std@@V?$allocator@D@2@@std@@@Z@4HA 0000000180023354 f   misc.obj
 0001:00022360       ?dtor$11@?0???$month_str_to_ushort@Vgreg_month@gregorian@boost@@@date_time@boost@@YAGAEBV?$basic_string@DU?$char_traits@D@std@@V?$allocator@D@2@@std@@@Z@4HA 0000000180023360 f   misc.obj
 0001:0002236c       ?dtor$12@?0???$month_str_to_ushort@Vgreg_month@gregorian@boost@@@date_time@boost@@YAGAEBV?$basic_string@DU?$char_traits@D@std@@V?$allocator@D@2@@std@@@Z@4HA 000000018002336c f   misc.obj
 0001:00022378       ?dtor$13@?0???$month_str_to_ushort@Vgreg_month@gregorian@boost@@@date_time@boost@@YAGAEBV?$basic_string@DU?$char_traits@D@std@@V?$allocator@D@2@@std@@@Z@4HA 0000000180023378 f   misc.obj
 0001:00022384       ?dtor$14@?0???$month_str_to_ushort@Vgreg_month@gregorian@boost@@@date_time@boost@@YAGAEBV?$basic_string@DU?$char_traits@D@std@@V?$allocator@D@2@@std@@@Z@4HA 0000000180023384 f   misc.obj
 0001:00022390       ?dtor$15@?0???$month_str_to_ushort@Vgreg_month@gregorian@boost@@@date_time@boost@@YAGAEBV?$basic_string@DU?$char_traits@D@std@@V?$allocator@D@2@@std@@@Z@4HA 0000000180023390 f   misc.obj
 0001:0002239c       ?dtor$16@?0???$month_str_to_ushort@Vgreg_month@gregorian@boost@@@date_time@boost@@YAGAEBV?$basic_string@DU?$char_traits@D@std@@V?$allocator@D@2@@std@@@Z@4HA 000000018002339c f   misc.obj
 0001:000223a8       ?dtor$17@?0???$month_str_to_ushort@Vgreg_month@gregorian@boost@@@date_time@boost@@YAGAEBV?$basic_string@DU?$char_traits@D@std@@V?$allocator@D@2@@std@@@Z@4HA 00000001800233a8 f   misc.obj
 0001:000223b4       ?dtor$18@?0???$month_str_to_ushort@Vgreg_month@gregorian@boost@@@date_time@boost@@YAGAEBV?$basic_string@DU?$char_traits@D@std@@V?$allocator@D@2@@std@@@Z@4HA 00000001800233b4 f   misc.obj
 0001:000223c0       ?dtor$19@?0???$month_str_to_ushort@Vgreg_month@gregorian@boost@@@date_time@boost@@YAGAEBV?$basic_string@DU?$char_traits@D@std@@V?$allocator@D@2@@std@@@Z@4HA 00000001800233c0 f   misc.obj
 0001:000223cc       ?dtor$20@?0???$month_str_to_ushort@Vgreg_month@gregorian@boost@@@date_time@boost@@YAGAEBV?$basic_string@DU?$char_traits@D@std@@V?$allocator@D@2@@std@@@Z@4HA 00000001800233cc f   misc.obj
 0001:000223d8       ?dtor$21@?0???$month_str_to_ushort@Vgreg_month@gregorian@boost@@@date_time@boost@@YAGAEBV?$basic_string@DU?$char_traits@D@std@@V?$allocator@D@2@@std@@@Z@4HA 00000001800233d8 f   misc.obj
 0001:000223e4       ?dtor$22@?0???$month_str_to_ushort@Vgreg_month@gregorian@boost@@@date_time@boost@@YAGAEBV?$basic_string@DU?$char_traits@D@std@@V?$allocator@D@2@@std@@@Z@4HA 00000001800233e4 f   misc.obj
 0001:000223f0       ?dtor$23@?0???$month_str_to_ushort@Vgreg_month@gregorian@boost@@@date_time@boost@@YAGAEBV?$basic_string@DU?$char_traits@D@std@@V?$allocator@D@2@@std@@@Z@4HA 00000001800233f0 f   misc.obj
 0001:000223fc       ?dtor$24@?0???$month_str_to_ushort@Vgreg_month@gregorian@boost@@@date_time@boost@@YAGAEBV?$basic_string@DU?$char_traits@D@std@@V?$allocator@D@2@@std@@@Z@4HA 00000001800233fc f   misc.obj
 0001:00022408       ?dtor$26@?0???$month_str_to_ushort@Vgreg_month@gregorian@boost@@@date_time@boost@@YAGAEBV?$basic_string@DU?$char_traits@D@std@@V?$allocator@D@2@@std@@@Z@4HA 0000000180023408 f   misc.obj
 0001:00022435       ?dtor$128@?0???$month_str_to_ushort@Vgreg_month@gregorian@boost@@@date_time@boost@@YAGAEBV?$basic_string@DU?$char_traits@D@std@@V?$allocator@D@2@@std@@@Z@4HA 0000000180023435 f   misc.obj
 0001:00022441       ?dtor$131@?0???$month_str_to_ushort@Vgreg_month@gregorian@boost@@@date_time@boost@@YAGAEBV?$basic_string@DU?$char_traits@D@std@@V?$allocator@D@2@@std@@@Z@4HA 0000000180023441 f   misc.obj
 0001:0002244d       ?dtor$130@?0???$month_str_to_ushort@Vgreg_month@gregorian@boost@@@date_time@boost@@YAGAEBV?$basic_string@DU?$char_traits@D@std@@V?$allocator@D@2@@std@@@Z@4HA 000000018002344d f   misc.obj
 0001:00022460       ?dtor$5@?0???$str_from_delimited_time_duration@Vtime_duration@posix_time@boost@@D@date_time@boost@@YA?AVtime_duration@posix_time@1@AEBV?$basic_string@DU?$char_traits@D@std@@V?$allocator@D@2@@std@@@Z@4HA 0000000180023460 f   misc.obj
 0001:0002246c       ?dtor$6@?0???$str_from_delimited_time_duration@Vtime_duration@posix_time@boost@@D@date_time@boost@@YA?AVtime_duration@posix_time@1@AEBV?$basic_string@DU?$char_traits@D@std@@V?$allocator@D@2@@std@@@Z@4HA 000000018002346c f   misc.obj
 0001:0002247c       ?dtor$0@?0???$str_from_delimited_time_duration@Vtime_duration@posix_time@boost@@D@date_time@boost@@YA?AVtime_duration@posix_time@1@AEBV?$basic_string@DU?$char_traits@D@std@@V?$allocator@D@2@@std@@@Z@4HA 000000018002347c f   misc.obj
 0001:00022488       ?dtor$15@?0???$str_from_delimited_time_duration@Vtime_duration@posix_time@boost@@D@date_time@boost@@YA?AVtime_duration@posix_time@1@AEBV?$basic_string@DU?$char_traits@D@std@@V?$allocator@D@2@@std@@@Z@4HA 0000000180023488 f   misc.obj
 0001:00022494       ?dtor$1@?0???$str_from_delimited_time_duration@Vtime_duration@posix_time@boost@@D@date_time@boost@@YA?AVtime_duration@posix_time@1@AEBV?$basic_string@DU?$char_traits@D@std@@V?$allocator@D@2@@std@@@Z@4HA 0000000180023494 f   misc.obj
 0001:000224a0       ?dtor$2@?0???$str_from_delimited_time_duration@Vtime_duration@posix_time@boost@@D@date_time@boost@@YA?AVtime_duration@posix_time@1@AEBV?$basic_string@DU?$char_traits@D@std@@V?$allocator@D@2@@std@@@Z@4HA 00000001800234a0 f   misc.obj
 0001:000224ac       ?dtor$19@?0???$str_from_delimited_time_duration@Vtime_duration@posix_time@boost@@D@date_time@boost@@YA?AVtime_duration@posix_time@1@AEBV?$basic_string@DU?$char_traits@D@std@@V?$allocator@D@2@@std@@@Z@4HA 00000001800234ac f   misc.obj
 0001:000224b8       ?dtor$21@?0???$str_from_delimited_time_duration@Vtime_duration@posix_time@boost@@D@date_time@boost@@YA?AVtime_duration@posix_time@1@AEBV?$basic_string@DU?$char_traits@D@std@@V?$allocator@D@2@@std@@@Z@4HA 00000001800234b8 f   misc.obj
 0001:000224c4       ?dtor$24@?0???$str_from_delimited_time_duration@Vtime_duration@posix_time@boost@@D@date_time@boost@@YA?AVtime_duration@posix_time@1@AEBV?$basic_string@DU?$char_traits@D@std@@V?$allocator@D@2@@std@@@Z@4HA 00000001800234c4 f   misc.obj
 0001:000224d0       ?dtor$22@?0???$str_from_delimited_time_duration@Vtime_duration@posix_time@boost@@D@date_time@boost@@YA?AVtime_duration@posix_time@1@AEBV?$basic_string@DU?$char_traits@D@std@@V?$allocator@D@2@@std@@@Z@4HA 00000001800234d0 f   misc.obj
 0001:000224dc       ?dtor$23@?0???$str_from_delimited_time_duration@Vtime_duration@posix_time@boost@@D@date_time@boost@@YA?AVtime_duration@posix_time@1@AEBV?$basic_string@DU?$char_traits@D@std@@V?$allocator@D@2@@std@@@Z@4HA 00000001800234dc f   misc.obj
 0001:000224ec       ?dtor$4@?0???$str_from_delimited_time_duration@Vtime_duration@posix_time@boost@@D@date_time@boost@@YA?AVtime_duration@posix_time@1@AEBV?$basic_string@DU?$char_traits@D@std@@V?$allocator@D@2@@std@@@Z@4HA 00000001800234ec f   misc.obj
 0001:00022500       ?dtor$0@?0???$parse_undelimited_time_duration@Vtime_duration@posix_time@boost@@@date_time@boost@@YA?AVtime_duration@posix_time@1@AEBV?$basic_string@DU?$char_traits@D@std@@V?$allocator@D@2@@std@@@Z@4HA 0000000180023500 f   misc.obj
 0001:0002250c       ?dtor$1@?0???$parse_undelimited_time_duration@Vtime_duration@posix_time@boost@@@date_time@boost@@YA?AVtime_duration@posix_time@1@AEBV?$basic_string@DU?$char_traits@D@std@@V?$allocator@D@2@@std@@@Z@4HA 000000018002350c f   misc.obj
 0001:00022518       ?dtor$2@?0???$parse_undelimited_time_duration@Vtime_duration@posix_time@boost@@@date_time@boost@@YA?AVtime_duration@posix_time@1@AEBV?$basic_string@DU?$char_traits@D@std@@V?$allocator@D@2@@std@@@Z@4HA 0000000180023518 f   misc.obj
 0001:00022524       ?dtor$3@?0???$parse_undelimited_time_duration@Vtime_duration@posix_time@boost@@@date_time@boost@@YA?AVtime_duration@posix_time@1@AEBV?$basic_string@DU?$char_traits@D@std@@V?$allocator@D@2@@std@@@Z@4HA 0000000180023524 f   misc.obj
 0001:00022530       ?dtor$5@?0???$parse_undelimited_time_duration@Vtime_duration@posix_time@boost@@@date_time@boost@@YA?AVtime_duration@posix_time@1@AEBV?$basic_string@DU?$char_traits@D@std@@V?$allocator@D@2@@std@@@Z@4HA 0000000180023530 f   misc.obj
 0001:0002253c       ?dtor$6@?0???$parse_undelimited_time_duration@Vtime_duration@posix_time@boost@@@date_time@boost@@YA?AVtime_duration@posix_time@1@AEBV?$basic_string@DU?$char_traits@D@std@@V?$allocator@D@2@@std@@@Z@4HA 000000018002353c f   misc.obj
 0001:00022550       ?dtor$0@?0???$get_static_exception_object@Ubad_alloc_@exception_detail@boost@@@exception_detail@boost@@YA?AVexception_ptr@1@XZ@4HA 0000000180023550 f   misc.obj
 0001:0002255c       ?dtor$7@?0???$get_static_exception_object@Ubad_alloc_@exception_detail@boost@@@exception_detail@boost@@YA?AVexception_ptr@1@XZ@4HA 000000018002355c f   misc.obj
 0001:00022586       ?dtor$8@?0???$get_static_exception_object@Ubad_alloc_@exception_detail@boost@@@exception_detail@boost@@YA?AVexception_ptr@1@XZ@4HA 0000000180023586 f   misc.obj
 0001:00022592       ?dtor$1@?0???$get_static_exception_object@Ubad_alloc_@exception_detail@boost@@@exception_detail@boost@@YA?AVexception_ptr@1@XZ@4HA 0000000180023592 f   misc.obj
 0001:0002259e       ?dtor$2@?0???$get_static_exception_object@Ubad_alloc_@exception_detail@boost@@@exception_detail@boost@@YA?AVexception_ptr@1@XZ@4HA 000000018002359e f   misc.obj
 0001:000225aa       ?dtor$3@?0???$get_static_exception_object@Ubad_alloc_@exception_detail@boost@@@exception_detail@boost@@YA?AVexception_ptr@1@XZ@4HA 00000001800235aa f   misc.obj
 0001:000225ca       ?dtor$9@?0???$get_static_exception_object@Ubad_alloc_@exception_detail@boost@@@exception_detail@boost@@YA?AVexception_ptr@1@XZ@4HA 00000001800235ca f   misc.obj
 0001:000225f7       ?dtor$11@?0???$get_static_exception_object@Ubad_alloc_@exception_detail@boost@@@exception_detail@boost@@YA?AVexception_ptr@1@XZ@4HA 00000001800235f7 f   misc.obj
 0001:00022610       ?dtor$0@?0???$get_static_exception_object@Ubad_exception_@exception_detail@boost@@@exception_detail@boost@@YA?AVexception_ptr@1@XZ@4HA 0000000180023610 f   misc.obj
 0001:0002261c       ?dtor$7@?0???$get_static_exception_object@Ubad_exception_@exception_detail@boost@@@exception_detail@boost@@YA?AVexception_ptr@1@XZ@4HA 000000018002361c f   misc.obj
 0001:00022646       ?dtor$8@?0???$get_static_exception_object@Ubad_exception_@exception_detail@boost@@@exception_detail@boost@@YA?AVexception_ptr@1@XZ@4HA 0000000180023646 f   misc.obj
 0001:00022652       ?dtor$1@?0???$get_static_exception_object@Ubad_exception_@exception_detail@boost@@@exception_detail@boost@@YA?AVexception_ptr@1@XZ@4HA 0000000180023652 f   misc.obj
 0001:0002265e       ?dtor$2@?0???$get_static_exception_object@Ubad_exception_@exception_detail@boost@@@exception_detail@boost@@YA?AVexception_ptr@1@XZ@4HA 000000018002365e f   misc.obj
 0001:0002266a       ?dtor$3@?0???$get_static_exception_object@Ubad_exception_@exception_detail@boost@@@exception_detail@boost@@YA?AVexception_ptr@1@XZ@4HA 000000018002366a f   misc.obj
 0001:0002268a       ?dtor$9@?0???$get_static_exception_object@Ubad_exception_@exception_detail@boost@@@exception_detail@boost@@YA?AVexception_ptr@1@XZ@4HA 000000018002368a f   misc.obj
 0001:000226b7       ?dtor$11@?0???$get_static_exception_object@Ubad_exception_@exception_detail@boost@@@exception_detail@boost@@YA?AVexception_ptr@1@XZ@4HA 00000001800236b7 f   misc.obj
 0001:000226d0       ?catch$0@?0???$_Emplace_reallocate@AEBV?$basic_string@DU?$char_traits@D@std@@V?$allocator@D@2@@std@@@?$vector@V?$basic_string@DU?$char_traits@D@std@@V?$allocator@D@2@@std@@V?$allocator@V?$basic_string@DU?$char_traits@D@std@@V?$allocator@D@2@@std@@@2@@std@@QEAAPEAV?$basic_string@DU?$char_traits@D@std@@V?$allocator@D@2@@1@QEAV21@AEBV21@@Z@4HA 00000001800236d0 f   misc.obj
 0001:000226dd       __catch$??$_Emplace_reallocate@AEBV?$basic_string@DU?$char_traits@D@std@@V?$allocator@D@2@@std@@@?$vector@V?$basic_string@DU?$char_traits@D@std@@V?$allocator@D@2@@std@@V?$allocator@V?$basic_string@DU?$char_traits@D@std@@V?$allocator@D@2@@std@@@2@@std@@QEAAPEAV?$basic_string@DU?$char_traits@D@std@@V?$allocator@D@2@@1@QEAV21@AEBV21@@Z$0 00000001800236dd f   misc.obj
 0001:00022710       ?dtor$2@?0???$insert@$00$0A@@?$_Tree@V?$_Tmap_traits@DU?$string_parse_tree@D@date_time@boost@@U?$less@D@std@@V?$allocator@U?$pair@$$CBDU?$string_parse_tree@D@date_time@boost@@@std@@@5@$00@std@@@std@@QEAA?AV?$_Tree_iterator@V?$_Tree_val@U?$_Tree_simple_types@U?$pair@$$CBDU?$string_parse_tree@D@date_time@boost@@@std@@@std@@@std@@@1@$$QEAU?$pair@$$CBDU?$string_parse_tree@D@date_time@boost@@@1@@Z@4HA 0000000180023710 f   misc.obj
 0001:0002271c       ?dtor$1@?0???$insert@$00$0A@@?$_Tree@V?$_Tmap_traits@DU?$string_parse_tree@D@date_time@boost@@U?$less@D@std@@V?$allocator@U?$pair@$$CBDU?$string_parse_tree@D@date_time@boost@@@std@@@5@$00@std@@@std@@QEAA?AV?$_Tree_iterator@V?$_Tree_val@U?$_Tree_simple_types@U?$pair@$$CBDU?$string_parse_tree@D@date_time@boost@@@std@@@std@@@std@@@1@$$QEAU?$pair@$$CBDU?$string_parse_tree@D@date_time@boost@@@1@@Z@4HA 000000018002371c f   misc.obj
 0001:00022728       ?dtor$0@?0???$insert@$00$0A@@?$_Tree@V?$_Tmap_traits@DU?$string_parse_tree@D@date_time@boost@@U?$less@D@std@@V?$allocator@U?$pair@$$CBDU?$string_parse_tree@D@date_time@boost@@@std@@@5@$00@std@@@std@@QEAA?AV?$_Tree_iterator@V?$_Tree_val@U?$_Tree_simple_types@U?$pair@$$CBDU?$string_parse_tree@D@date_time@boost@@@std@@@std@@@std@@@1@$$QEAU?$pair@$$CBDU?$string_parse_tree@D@date_time@boost@@@1@@Z@4HA 0000000180023728 f   misc.obj
 0001:00022740       ?dtor$0@?0???0?$clone_impl@Ubad_alloc_@exception_detail@boost@@@exception_detail@boost@@QEAA@AEBV012@@Z@4HA 0000000180023740 f   misc.obj
 0001:00022740       ?dtor$0@?0???0?$clone_impl@Ubad_exception_@exception_detail@boost@@@exception_detail@boost@@QEAA@AEBV012@@Z@4HA 0000000180023740 f   misc.obj
 0001:00022770       ?dtor$0@?0??clone@?$clone_impl@Ubad_exception_@exception_detail@boost@@@exception_detail@boost@@EEBAPEBVclone_base@23@XZ@4HA 0000000180023770 f   misc.obj
 0001:0002278d       ?dtor$1@?0??clone@?$clone_impl@Ubad_exception_@exception_detail@boost@@@exception_detail@boost@@EEBAPEBVclone_base@23@XZ@4HA 000000018002378d f   misc.obj
 0001:000227b7       ?dtor$2@?0??clone@?$clone_impl@Ubad_exception_@exception_detail@boost@@@exception_detail@boost@@EEBAPEBVclone_base@23@XZ@4HA 00000001800237b7 f   misc.obj
 0001:000227d0       ?dtor$0@?0??clone@?$clone_impl@Ubad_alloc_@exception_detail@boost@@@exception_detail@boost@@EEBAPEBVclone_base@23@XZ@4HA 00000001800237d0 f   misc.obj
 0001:000227ed       ?dtor$1@?0??clone@?$clone_impl@Ubad_alloc_@exception_detail@boost@@@exception_detail@boost@@EEBAPEBVclone_base@23@XZ@4HA 00000001800237ed f   misc.obj
 0001:00022817       ?dtor$2@?0??clone@?$clone_impl@Ubad_alloc_@exception_detail@boost@@@exception_detail@boost@@EEBAPEBVclone_base@23@XZ@4HA 0000000180023817 f   misc.obj
 0001:00022830       ?dtor$0@?0??parse@?$basic_format@_WU?$char_traits@_W@std@@V?$allocator@_W@2@@boost@@QEAAAEAV12@AEBV?$basic_string@_WU?$char_traits@_W@std@@V?$allocator@_W@2@@std@@@Z@4HA 0000000180023830 f   misc.obj
 0001:0002283c       ?dtor$1@?0??parse@?$basic_format@_WU?$char_traits@_W@std@@V?$allocator@_W@2@@boost@@QEAAAEAV12@AEBV?$basic_string@_WU?$char_traits@_W@std@@V?$allocator@_W@2@@std@@@Z@4HA 000000018002383c f   misc.obj
 0001:00022848       ?dtor$2@?0??parse@?$basic_format@_WU?$char_traits@_W@std@@V?$allocator@_W@2@@boost@@QEAAAEAV12@AEBV?$basic_string@_WU?$char_traits@_W@std@@V?$allocator@_W@2@@std@@@Z@4HA 0000000180023848 f   misc.obj
 0001:00022860       ?dtor$0@?0??convert@?$lcast_ret_unsigned@U?$char_traits@_W@std@@I_W@detail@boost@@QEAA_NXZ@4HA 0000000180023860 f   misc.obj
 0001:0002286c       ?dtor$3@?0??convert@?$lcast_ret_unsigned@U?$char_traits@_W@std@@I_W@detail@boost@@QEAA_NXZ@4HA 000000018002386c f   misc.obj
 0001:0002287a       ?dtor$4@?0??convert@?$lcast_ret_unsigned@U?$char_traits@_W@std@@I_W@detail@boost@@QEAA_NXZ@4HA 000000018002387a f   misc.obj
 0001:00022886       ?dtor$1@?0??convert@?$lcast_ret_unsigned@U?$char_traits@_W@std@@I_W@detail@boost@@QEAA_NXZ@4HA 0000000180023886 f   misc.obj
 0001:000228a0       ?dtor$0@?0??assign@?$vector@U?$format_item@_WU?$char_traits@_W@std@@V?$allocator@_W@2@@detail@io@boost@@V?$allocator@U?$format_item@_WU?$char_traits@_W@std@@V?$allocator@_W@2@@detail@io@boost@@@std@@@std@@QEAAX_KAEBU?$format_item@_WU?$char_traits@_W@std@@V?$allocator@_W@2@@detail@io@boost@@@Z@4HA 00000001800238a0 f   misc.obj
 0001:000228a0       ?dtor$0@?0??resize@?$vector@U?$format_item@_WU?$char_traits@_W@std@@V?$allocator@_W@2@@detail@io@boost@@V?$allocator@U?$format_item@_WU?$char_traits@_W@std@@V?$allocator@_W@2@@detail@io@boost@@@std@@@std@@QEAAX_KAEBU?$format_item@_WU?$char_traits@_W@std@@V?$allocator@_W@2@@detail@io@boost@@@Z@4HA 00000001800238a0 f   misc.obj
 0001:000228b0       ?dtor$0@?0??make_or_reuse_data@?$basic_format@_WU?$char_traits@_W@std@@V?$allocator@_W@2@@boost@@AEAAX_K@Z@4HA 00000001800238b0 f   misc.obj
 0001:000228bc       ?dtor$1@?0??make_or_reuse_data@?$basic_format@_WU?$char_traits@_W@std@@V?$allocator@_W@2@@boost@@AEAAX_K@Z@4HA 00000001800238bc f   misc.obj
 0001:000228c8       ?dtor$2@?0??make_or_reuse_data@?$basic_format@_WU?$char_traits@_W@std@@V?$allocator@_W@2@@boost@@AEAAX_K@Z@4HA 00000001800238c8 f   misc.obj
 0001:000228e0       ?dtor$0@?0???$parse_printf_directive@_WU?$char_traits@_W@std@@V?$allocator@_W@2@V?$_String_const_iterator@V?$_String_val@U?$_Simple_types@_W@std@@@std@@@2@V?$ctype@_W@2@@detail@io@boost@@YA_NAEAV?$_String_const_iterator@V?$_String_val@U?$_Simple_types@_W@std@@@std@@@std@@AEBV34@PEAU?$format_item@_WU?$char_traits@_W@std@@V?$allocator@_W@2@@012@AEBV?$ctype@_W@4@_KE@Z@4HA 00000001800238e0 f   misc.obj
 0001:000228ec       ?dtor$3@?0???$parse_printf_directive@_WU?$char_traits@_W@std@@V?$allocator@_W@2@V?$_String_const_iterator@V?$_String_val@U?$_Simple_types@_W@std@@@std@@@2@V?$ctype@_W@2@@detail@io@boost@@YA_NAEAV?$_String_const_iterator@V?$_String_val@U?$_Simple_types@_W@std@@@std@@@std@@AEBV34@PEAU?$format_item@_WU?$char_traits@_W@std@@V?$allocator@_W@2@@012@AEBV?$ctype@_W@4@_KE@Z@4HA 00000001800238ec f   misc.obj
 0001:000228f8       ?dtor$6@?0???$parse_printf_directive@_WU?$char_traits@_W@std@@V?$allocator@_W@2@V?$_String_const_iterator@V?$_String_val@U?$_Simple_types@_W@std@@@std@@@2@V?$ctype@_W@2@@detail@io@boost@@YA_NAEAV?$_String_const_iterator@V?$_String_val@U?$_Simple_types@_W@std@@@std@@@std@@AEBV34@PEAU?$format_item@_WU?$char_traits@_W@std@@V?$allocator@_W@2@@012@AEBV?$ctype@_W@4@_KE@Z@4HA 00000001800238f8 f   misc.obj
 0001:00022904       ?dtor$9@?0???$parse_printf_directive@_WU?$char_traits@_W@std@@V?$allocator@_W@2@V?$_String_const_iterator@V?$_String_val@U?$_Simple_types@_W@std@@@std@@@2@V?$ctype@_W@2@@detail@io@boost@@YA_NAEAV?$_String_const_iterator@V?$_String_val@U?$_Simple_types@_W@std@@@std@@@std@@AEBV34@PEAU?$format_item@_WU?$char_traits@_W@std@@V?$allocator@_W@2@@012@AEBV?$ctype@_W@4@_KE@Z@4HA 0000000180023904 f   misc.obj
 0001:00022910       ?dtor$12@?0???$parse_printf_directive@_WU?$char_traits@_W@std@@V?$allocator@_W@2@V?$_String_const_iterator@V?$_String_val@U?$_Simple_types@_W@std@@@std@@@2@V?$ctype@_W@2@@detail@io@boost@@YA_NAEAV?$_String_const_iterator@V?$_String_val@U?$_Simple_types@_W@std@@@std@@@std@@AEBV34@PEAU?$format_item@_WU?$char_traits@_W@std@@V?$allocator@_W@2@@012@AEBV?$ctype@_W@4@_KE@Z@4HA 0000000180023910 f   misc.obj
 0001:0002291c       ?dtor$15@?0???$parse_printf_directive@_WU?$char_traits@_W@std@@V?$allocator@_W@2@V?$_String_const_iterator@V?$_String_val@U?$_Simple_types@_W@std@@@std@@@2@V?$ctype@_W@2@@detail@io@boost@@YA_NAEAV?$_String_const_iterator@V?$_String_val@U?$_Simple_types@_W@std@@@std@@@std@@AEBV34@PEAU?$format_item@_WU?$char_traits@_W@std@@V?$allocator@_W@2@@012@AEBV?$ctype@_W@4@_KE@Z@4HA 000000018002391c f   misc.obj
 0001:00022928       ?dtor$18@?0???$parse_printf_directive@_WU?$char_traits@_W@std@@V?$allocator@_W@2@V?$_String_const_iterator@V?$_String_val@U?$_Simple_types@_W@std@@@std@@@2@V?$ctype@_W@2@@detail@io@boost@@YA_NAEAV?$_String_const_iterator@V?$_String_val@U?$_Simple_types@_W@std@@@std@@@std@@AEBV34@PEAU?$format_item@_WU?$char_traits@_W@std@@V?$allocator@_W@2@@012@AEBV?$ctype@_W@4@_KE@Z@4HA 0000000180023928 f   misc.obj
 0001:00022934       ?dtor$21@?0???$parse_printf_directive@_WU?$char_traits@_W@std@@V?$allocator@_W@2@V?$_String_const_iterator@V?$_String_val@U?$_Simple_types@_W@std@@@std@@@2@V?$ctype@_W@2@@detail@io@boost@@YA_NAEAV?$_String_const_iterator@V?$_String_val@U?$_Simple_types@_W@std@@@std@@@std@@AEBV34@PEAU?$format_item@_WU?$char_traits@_W@std@@V?$allocator@_W@2@@012@AEBV?$ctype@_W@4@_KE@Z@4HA 0000000180023934 f   misc.obj
 0001:00022940       ?dtor$24@?0???$parse_printf_directive@_WU?$char_traits@_W@std@@V?$allocator@_W@2@V?$_String_const_iterator@V?$_String_val@U?$_Simple_types@_W@std@@@std@@@2@V?$ctype@_W@2@@detail@io@boost@@YA_NAEAV?$_String_const_iterator@V?$_String_val@U?$_Simple_types@_W@std@@@std@@@std@@AEBV34@PEAU?$format_item@_WU?$char_traits@_W@std@@V?$allocator@_W@2@@012@AEBV?$ctype@_W@4@_KE@Z@4HA 0000000180023940 f   misc.obj
 0001:0002294c       ?dtor$27@?0???$parse_printf_directive@_WU?$char_traits@_W@std@@V?$allocator@_W@2@V?$_String_const_iterator@V?$_String_val@U?$_Simple_types@_W@std@@@std@@@2@V?$ctype@_W@2@@detail@io@boost@@YA_NAEAV?$_String_const_iterator@V?$_String_val@U?$_Simple_types@_W@std@@@std@@@std@@AEBV34@PEAU?$format_item@_WU?$char_traits@_W@std@@V?$allocator@_W@2@@012@AEBV?$ctype@_W@4@_KE@Z@4HA 000000018002394c f   misc.obj
 0001:00022958       ?dtor$30@?0???$parse_printf_directive@_WU?$char_traits@_W@std@@V?$allocator@_W@2@V?$_String_const_iterator@V?$_String_val@U?$_Simple_types@_W@std@@@std@@@2@V?$ctype@_W@2@@detail@io@boost@@YA_NAEAV?$_String_const_iterator@V?$_String_val@U?$_Simple_types@_W@std@@@std@@@std@@AEBV34@PEAU?$format_item@_WU?$char_traits@_W@std@@V?$allocator@_W@2@@012@AEBV?$ctype@_W@4@_KE@Z@4HA 0000000180023958 f   misc.obj
 0001:00022964       ?dtor$33@?0???$parse_printf_directive@_WU?$char_traits@_W@std@@V?$allocator@_W@2@V?$_String_const_iterator@V?$_String_val@U?$_Simple_types@_W@std@@@std@@@2@V?$ctype@_W@2@@detail@io@boost@@YA_NAEAV?$_String_const_iterator@V?$_String_val@U?$_Simple_types@_W@std@@@std@@@std@@AEBV34@PEAU?$format_item@_WU?$char_traits@_W@std@@V?$allocator@_W@2@@012@AEBV?$ctype@_W@4@_KE@Z@4HA 0000000180023964 f   misc.obj
 0001:00022970       ?dtor$36@?0???$parse_printf_directive@_WU?$char_traits@_W@std@@V?$allocator@_W@2@V?$_String_const_iterator@V?$_String_val@U?$_Simple_types@_W@std@@@std@@@2@V?$ctype@_W@2@@detail@io@boost@@YA_NAEAV?$_String_const_iterator@V?$_String_val@U?$_Simple_types@_W@std@@@std@@@std@@AEBV34@PEAU?$format_item@_WU?$char_traits@_W@std@@V?$allocator@_W@2@@012@AEBV?$ctype@_W@4@_KE@Z@4HA 0000000180023970 f   misc.obj
 0001:0002297c       ?dtor$39@?0???$parse_printf_directive@_WU?$char_traits@_W@std@@V?$allocator@_W@2@V?$_String_const_iterator@V?$_String_val@U?$_Simple_types@_W@std@@@std@@@2@V?$ctype@_W@2@@detail@io@boost@@YA_NAEAV?$_String_const_iterator@V?$_String_val@U?$_Simple_types@_W@std@@@std@@@std@@AEBV34@PEAU?$format_item@_WU?$char_traits@_W@std@@V?$allocator@_W@2@@012@AEBV?$ctype@_W@4@_KE@Z@4HA 000000018002397c f   misc.obj
 0001:00022990       ?dtor$0@?0???$feed_impl@_WU?$char_traits@_W@std@@V?$allocator@_W@2@AEBU?$put_holder@_WU?$char_traits@_W@std@@@detail@io@boost@@@detail@io@boost@@YAAEAV?$basic_format@_WU?$char_traits@_W@std@@V?$allocator@_W@2@@2@AEAV32@AEBU?$put_holder@_WU?$char_traits@_W@std@@@012@@Z@4HA 0000000180023990 f   misc.obj
 0001:000229a0       ?dtor$0@?0??convert@?$lcast_ret_unsigned@U?$char_traits@D@std@@GD@detail@boost@@QEAA_NXZ@4HA 00000001800239a0 f   misc.obj
 0001:000229a0       ?dtor$0@?0??convert@?$lcast_ret_unsigned@U?$char_traits@D@std@@ID@detail@boost@@QEAA_NXZ@4HA 00000001800239a0 f   misc.obj
 0001:000229a0       ?dtor$0@?0??convert@?$lcast_ret_unsigned@U?$char_traits@D@std@@_KD@detail@boost@@QEAA_NXZ@4HA 00000001800239a0 f   misc.obj
 0001:000229ac       ?dtor$1@?0??convert@?$lcast_ret_unsigned@U?$char_traits@D@std@@GD@detail@boost@@QEAA_NXZ@4HA 00000001800239ac f   misc.obj
 0001:000229ac       ?dtor$1@?0??convert@?$lcast_ret_unsigned@U?$char_traits@D@std@@ID@detail@boost@@QEAA_NXZ@4HA 00000001800239ac f   misc.obj
 0001:000229ac       ?dtor$1@?0??convert@?$lcast_ret_unsigned@U?$char_traits@D@std@@_KD@detail@boost@@QEAA_NXZ@4HA 00000001800239ac f   misc.obj
 0001:000229c0       ?catch$1@?0???$?0V?$clone_impl@Ubad_alloc_@exception_detail@boost@@@exception_detail@boost@@@shared_count@detail@boost@@QEAA@PEAV?$clone_impl@Ubad_alloc_@exception_detail@boost@@@exception_detail@2@@Z@4HA 00000001800239c0 f   misc.obj
 0001:000229c0       ?catch$1@?0???$?0V?$clone_impl@Ubad_exception_@exception_detail@boost@@@exception_detail@boost@@@shared_count@detail@boost@@QEAA@PEAV?$clone_impl@Ubad_exception_@exception_detail@boost@@@exception_detail@2@@Z@4HA 00000001800239c0 f   misc.obj
 0001:000229cd       __catch$??$?0V?$clone_impl@Ubad_alloc_@exception_detail@boost@@@exception_detail@boost@@@shared_count@detail@boost@@QEAA@PEAV?$clone_impl@Ubad_alloc_@exception_detail@boost@@@exception_detail@2@@Z$0 00000001800239cd f   misc.obj
 0001:000229cd       __catch$??$?0V?$clone_impl@Ubad_exception_@exception_detail@boost@@@exception_detail@boost@@@shared_count@detail@boost@@QEAA@PEAV?$clone_impl@Ubad_exception_@exception_detail@boost@@@exception_detail@2@@Z$0 00000001800239cd f   misc.obj
 0001:000229e0       ?dtor$0@?0???$_Resize_reallocate@U?$format_item@_WU?$char_traits@_W@std@@V?$allocator@_W@2@@detail@io@boost@@@?$vector@U?$format_item@_WU?$char_traits@_W@std@@V?$allocator@_W@2@@detail@io@boost@@V?$allocator@U?$format_item@_WU?$char_traits@_W@std@@V?$allocator@_W@2@@detail@io@boost@@@std@@@std@@AEAAX_KAEBU?$format_item@_WU?$char_traits@_W@std@@V?$allocator@_W@2@@detail@io@boost@@@Z@4HA 00000001800239e0 f   misc.obj
 0001:000229ec       ?catch$1@?0???$_Resize_reallocate@U?$format_item@_WU?$char_traits@_W@std@@V?$allocator@_W@2@@detail@io@boost@@@?$vector@U?$format_item@_WU?$char_traits@_W@std@@V?$allocator@_W@2@@detail@io@boost@@V?$allocator@U?$format_item@_WU?$char_traits@_W@std@@V?$allocator@_W@2@@detail@io@boost@@@std@@@std@@AEAAX_KAEBU?$format_item@_WU?$char_traits@_W@std@@V?$allocator@_W@2@@detail@io@boost@@@Z@4HA 00000001800239ec f   misc.obj
 0001:000229f9       __catch$??$_Resize_reallocate@U?$format_item@_WU?$char_traits@_W@std@@V?$allocator@_W@2@@detail@io@boost@@@?$vector@U?$format_item@_WU?$char_traits@_W@std@@V?$allocator@_W@2@@detail@io@boost@@V?$allocator@U?$format_item@_WU?$char_traits@_W@std@@V?$allocator@_W@2@@detail@io@boost@@@std@@@std@@AEAAX_KAEBU?$format_item@_WU?$char_traits@_W@std@@V?$allocator@_W@2@@detail@io@boost@@@Z$0 00000001800239f9 f   misc.obj
 0001:00022a30       ?dtor$3@?0???$put@_WU?$char_traits@_W@std@@V?$allocator@_W@2@AEBU?$put_holder@_WU?$char_traits@_W@std@@@detail@io@boost@@@detail@io@boost@@YAXAEBU?$put_holder@_WU?$char_traits@_W@std@@@012@AEBU?$format_item@_WU?$char_traits@_W@std@@V?$allocator@_W@2@@012@AEAV?$basic_string@_WU?$char_traits@_W@std@@V?$allocator@_W@2@@std@@AEAV?$basic_altstringbuf@_WU?$char_traits@_W@std@@V?$allocator@_W@2@@12@PEAVlocale@6@@Z@4HA 0000000180023a30 f   misc.obj
 0001:00022a61       ?dtor$4@?0???$put@_WU?$char_traits@_W@std@@V?$allocator@_W@2@AEBU?$put_holder@_WU?$char_traits@_W@std@@@detail@io@boost@@@detail@io@boost@@YAXAEBU?$put_holder@_WU?$char_traits@_W@std@@@012@AEBU?$format_item@_WU?$char_traits@_W@std@@V?$allocator@_W@2@@012@AEAV?$basic_string@_WU?$char_traits@_W@std@@V?$allocator@_W@2@@std@@AEAV?$basic_altstringbuf@_WU?$char_traits@_W@std@@V?$allocator@_W@2@@12@PEAVlocale@6@@Z@4HA 0000000180023a61 f   misc.obj
 0001:00022a6d       ?dtor$0@?0???$put@_WU?$char_traits@_W@std@@V?$allocator@_W@2@AEBU?$put_holder@_WU?$char_traits@_W@std@@@detail@io@boost@@@detail@io@boost@@YAXAEBU?$put_holder@_WU?$char_traits@_W@std@@@012@AEBU?$format_item@_WU?$char_traits@_W@std@@V?$allocator@_W@2@@012@AEAV?$basic_string@_WU?$char_traits@_W@std@@V?$allocator@_W@2@@std@@AEAV?$basic_altstringbuf@_WU?$char_traits@_W@std@@V?$allocator@_W@2@@12@PEAVlocale@6@@Z@4HA 0000000180023a6d f   misc.obj
 0001:00022a79       ?dtor$8@?0???$put@_WU?$char_traits@_W@std@@V?$allocator@_W@2@AEBU?$put_holder@_WU?$char_traits@_W@std@@@detail@io@boost@@@detail@io@boost@@YAXAEBU?$put_holder@_WU?$char_traits@_W@std@@@012@AEBU?$format_item@_WU?$char_traits@_W@std@@V?$allocator@_W@2@@012@AEAV?$basic_string@_WU?$char_traits@_W@std@@V?$allocator@_W@2@@std@@AEAV?$basic_altstringbuf@_WU?$char_traits@_W@std@@V?$allocator@_W@2@@12@PEAVlocale@6@@Z@4HA 0000000180023a79 f   misc.obj
 0001:00022aad       ?dtor$9@?0???$put@_WU?$char_traits@_W@std@@V?$allocator@_W@2@AEBU?$put_holder@_WU?$char_traits@_W@std@@@detail@io@boost@@@detail@io@boost@@YAXAEBU?$put_holder@_WU?$char_traits@_W@std@@@012@AEBU?$format_item@_WU?$char_traits@_W@std@@V?$allocator@_W@2@@012@AEAV?$basic_string@_WU?$char_traits@_W@std@@V?$allocator@_W@2@@std@@AEAV?$basic_altstringbuf@_WU?$char_traits@_W@std@@V?$allocator@_W@2@@12@PEAVlocale@6@@Z@4HA 0000000180023aad f   misc.obj
 0001:00022ab9       ?dtor$2@?0???$put@_WU?$char_traits@_W@std@@V?$allocator@_W@2@AEBU?$put_holder@_WU?$char_traits@_W@std@@@detail@io@boost@@@detail@io@boost@@YAXAEBU?$put_holder@_WU?$char_traits@_W@std@@@012@AEBU?$format_item@_WU?$char_traits@_W@std@@V?$allocator@_W@2@@012@AEAV?$basic_string@_WU?$char_traits@_W@std@@V?$allocator@_W@2@@std@@AEAV?$basic_altstringbuf@_WU?$char_traits@_W@std@@V?$allocator@_W@2@@12@PEAVlocale@6@@Z@4HA 0000000180023ab9 f   misc.obj
 0001:00022ad0       ?dtor$0@?0???0?$format_item@_WU?$char_traits@_W@std@@V?$allocator@_W@2@@detail@io@boost@@QEAA@AEBU0123@@Z@4HA 0000000180023ad0 f   misc.obj
 0001:00022ae0       ?dtor$3@?0???0NameValueMap@yloader@@QEAA@AEBV01@@Z@4HA 0000000180023ae0 f   namevalue.obj
 0001:00022aec       ?dtor$0@?0???0NameValueMap@yloader@@QEAA@AEBV01@@Z@4HA 0000000180023aec f   namevalue.obj
 0001:00022b00       ?dtor$0@?0???ANameValueMap@yloader@@QEBA?AVNameValue@1@_K@Z@4HA 0000000180023b00 f   namevalue.obj
 0001:00022b0c       ?dtor$1@?0???ANameValueMap@yloader@@QEBA?AVNameValue@1@_K@Z@4HA 0000000180023b0c f   namevalue.obj
 0001:00022b32       ?dtor$7@?0???ANameValueMap@yloader@@QEBA?AVNameValue@1@_K@Z@4HA 0000000180023b32 f   namevalue.obj
 0001:00022b3e       ?dtor$2@?0???ANameValueMap@yloader@@QEBA?AVNameValue@1@_K@Z@4HA 0000000180023b3e f   namevalue.obj
 0001:00022b67       ?dtor$10@?0???ANameValueMap@yloader@@QEBA?AVNameValue@1@_K@Z@4HA 0000000180023b67 f   namevalue.obj
 0001:00022b80       ?dtor$0@?0??add@NameValueMap@yloader@@QEAAXAEBV?$basic_string@_WU?$char_traits@_W@std@@V?$allocator@_W@2@@std@@0@Z@4HA 0000000180023b80 f   namevalue.obj
 0001:00022b9d       ?dtor$4@?0??add@NameValueMap@yloader@@QEAAXAEBV?$basic_string@_WU?$char_traits@_W@std@@V?$allocator@_W@2@@std@@0@Z@4HA 0000000180023b9d f   namevalue.obj
 0001:00022ba9       ?dtor$6@?0??add@NameValueMap@yloader@@QEAAXAEBV?$basic_string@_WU?$char_traits@_W@std@@V?$allocator@_W@2@@std@@0@Z@4HA 0000000180023ba9 f   namevalue.obj
 0001:00022bb5       ?dtor$1@?0??add@NameValueMap@yloader@@QEAAXAEBV?$basic_string@_WU?$char_traits@_W@std@@V?$allocator@_W@2@@std@@0@Z@4HA 0000000180023bb5 f   namevalue.obj
 0001:00022bc1       ?dtor$2@?0??add@NameValueMap@yloader@@QEAAXAEBV?$basic_string@_WU?$char_traits@_W@std@@V?$allocator@_W@2@@std@@0@Z@4HA 0000000180023bc1 f   namevalue.obj
 0001:00022bd0       ?dtor$10@?0??toString@NameValueMap@yloader@@QEBA?AV?$shared_ptr@V?$basic_string@_WU?$char_traits@_W@std@@V?$allocator@_W@2@@std@@@std@@_N@Z@4HA 0000000180023bd0 f   namevalue.obj
 0001:00022bdc       ?dtor$0@?0??toString@NameValueMap@yloader@@QEBA?AV?$shared_ptr@V?$basic_string@_WU?$char_traits@_W@std@@V?$allocator@_W@2@@std@@@std@@_N@Z@4HA 0000000180023bdc f   namevalue.obj
 0001:00022c02       ?dtor$1@?0??toString@NameValueMap@yloader@@QEBA?AV?$shared_ptr@V?$basic_string@_WU?$char_traits@_W@std@@V?$allocator@_W@2@@std@@@std@@_N@Z@4HA 0000000180023c02 f   namevalue.obj
 0001:00022c0e       ?dtor$2@?0??toString@NameValueMap@yloader@@QEBA?AV?$shared_ptr@V?$basic_string@_WU?$char_traits@_W@std@@V?$allocator@_W@2@@std@@@std@@_N@Z@4HA 0000000180023c0e f   namevalue.obj
 0001:00022c1a       ?dtor$3@?0??toString@NameValueMap@yloader@@QEBA?AV?$shared_ptr@V?$basic_string@_WU?$char_traits@_W@std@@V?$allocator@_W@2@@std@@@std@@_N@Z@4HA 0000000180023c1a f   namevalue.obj
 0001:00022c26       ?dtor$4@?0??toString@NameValueMap@yloader@@QEBA?AV?$shared_ptr@V?$basic_string@_WU?$char_traits@_W@std@@V?$allocator@_W@2@@std@@@std@@_N@Z@4HA 0000000180023c26 f   namevalue.obj
 0001:00022c32       ?dtor$5@?0??toString@NameValueMap@yloader@@QEBA?AV?$shared_ptr@V?$basic_string@_WU?$char_traits@_W@std@@V?$allocator@_W@2@@std@@@std@@_N@Z@4HA 0000000180023c32 f   namevalue.obj
 0001:00022c40       ?dtor$0@?0???0?$multimap@V?$basic_string@_WU?$char_traits@_W@std@@V?$allocator@_W@2@@std@@V?$shared_ptr@VNameValue@yloader@@@2@U?$less@V?$basic_string@_WU?$char_traits@_W@std@@V?$allocator@_W@2@@std@@@2@V?$allocator@U?$pair@$$CBV?$basic_string@_WU?$char_traits@_W@std@@V?$allocator@_W@2@@std@@V?$shared_ptr@VNameValue@yloader@@@2@@std@@@2@@std@@QEAA@V?$initializer_list@U?$pair@$$CBV?$basic_string@_WU?$char_traits@_W@std@@V?$allocator@_W@2@@std@@V?$shared_ptr@VNameValue@yloader@@@2@@std@@@1@@Z@4HA 0000000180023c40 f   namevalue.obj
 0001:00022c40       ?dtor$0@?0???0?$multimap@V?$basic_string@_WU?$char_traits@_W@std@@V?$allocator@_W@2@@std@@V?$shared_ptr@VNameValue@yloader@@@2@U?$less@V?$basic_string@_WU?$char_traits@_W@std@@V?$allocator@_W@2@@std@@@2@V?$allocator@U?$pair@$$CBV?$basic_string@_WU?$char_traits@_W@std@@V?$allocator@_W@2@@std@@V?$shared_ptr@VNameValue@yloader@@@2@@std@@@2@@std@@QEAA@V?$initializer_list@U?$pair@$$CBV?$basic_string@_WU?$char_traits@_W@std@@V?$allocator@_W@2@@std@@V?$shared_ptr@VNameValue@yloader@@@2@@std@@@1@AEBU?$less@V?$basic_string@_WU?$char_traits@_W@std@@V?$allocator@_W@2@@std@@@1@@Z@4HA 0000000180023c40 f   namevalue.obj
 0001:00022c40       ?dtor$0@?0???0?$multimap@V?$basic_string@_WU?$char_traits@_W@std@@V?$allocator@_W@2@@std@@V?$shared_ptr@VNameValue@yloader@@@2@U?$less@V?$basic_string@_WU?$char_traits@_W@std@@V?$allocator@_W@2@@std@@@2@V?$allocator@U?$pair@$$CBV?$basic_string@_WU?$char_traits@_W@std@@V?$allocator@_W@2@@std@@V?$shared_ptr@VNameValue@yloader@@@2@@std@@@2@@std@@QEAA@V?$initializer_list@U?$pair@$$CBV?$basic_string@_WU?$char_traits@_W@std@@V?$allocator@_W@2@@std@@V?$shared_ptr@VNameValue@yloader@@@2@@std@@@1@AEBU?$less@V?$basic_string@_WU?$char_traits@_W@std@@V?$allocator@_W@2@@std@@@1@AEBV?$allocator@U?$pair@$$CBV?$basic_string@_WU?$char_traits@_W@std@@V?$allocator@_W@2@@std@@V?$shared_ptr@VNameValue@yloader@@@2@@std@@@1@@Z@4HA 0000000180023c40 f   namevalue.obj
 0001:00022c40       ?dtor$0@?0???0?$multimap@V?$basic_string@_WU?$char_traits@_W@std@@V?$allocator@_W@2@@std@@V?$shared_ptr@VNameValue@yloader@@@2@U?$less@V?$basic_string@_WU?$char_traits@_W@std@@V?$allocator@_W@2@@std@@@2@V?$allocator@U?$pair@$$CBV?$basic_string@_WU?$char_traits@_W@std@@V?$allocator@_W@2@@std@@V?$shared_ptr@VNameValue@yloader@@@2@@std@@@2@@std@@QEAA@V?$initializer_list@U?$pair@$$CBV?$basic_string@_WU?$char_traits@_W@std@@V?$allocator@_W@2@@std@@V?$shared_ptr@VNameValue@yloader@@@2@@std@@@1@AEBV?$allocator@U?$pair@$$CBV?$basic_string@_WU?$char_traits@_W@std@@V?$allocator@_W@2@@std@@V?$shared_ptr@VNameValue@yloader@@@2@@std@@@1@@Z@4HA 0000000180023c40 f   namevalue.obj
 0001:00022c50       ?dtor$0@?0??_Different_allocator_move_construct@?$_Tree@V?$_Tmap_traits@V?$basic_string@_WU?$char_traits@_W@std@@V?$allocator@_W@2@@std@@V?$shared_ptr@VNameValue@yloader@@@2@U?$less@V?$basic_string@_WU?$char_traits@_W@std@@V?$allocator@_W@2@@std@@@2@V?$allocator@U?$pair@$$CBV?$basic_string@_WU?$char_traits@_W@std@@V?$allocator@_W@2@@std@@V?$shared_ptr@VNameValue@yloader@@@2@@std@@@2@$00@std@@@std@@AEAAX$$QEAV12@@Z@4HA 0000000180023c50 f   namevalue.obj
 0001:00022c50       ?dtor$1@?0???0?$multimap@V?$basic_string@_WU?$char_traits@_W@std@@V?$allocator@_W@2@@std@@V?$shared_ptr@VNameValue@yloader@@@2@U?$less@V?$basic_string@_WU?$char_traits@_W@std@@V?$allocator@_W@2@@std@@@2@V?$allocator@U?$pair@$$CBV?$basic_string@_WU?$char_traits@_W@std@@V?$allocator@_W@2@@std@@V?$shared_ptr@VNameValue@yloader@@@2@@std@@@2@@std@@QEAA@AEBV01@@Z@4HA 0000000180023c50 f   namevalue.obj
 0001:00022c50       ?dtor$1@?0???0?$multimap@V?$basic_string@_WU?$char_traits@_W@std@@V?$allocator@_W@2@@std@@V?$shared_ptr@VNameValue@yloader@@@2@U?$less@V?$basic_string@_WU?$char_traits@_W@std@@V?$allocator@_W@2@@std@@@2@V?$allocator@U?$pair@$$CBV?$basic_string@_WU?$char_traits@_W@std@@V?$allocator@_W@2@@std@@V?$shared_ptr@VNameValue@yloader@@@2@@std@@@2@@std@@QEAA@AEBV01@AEBV?$allocator@U?$pair@$$CBV?$basic_string@_WU?$char_traits@_W@std@@V?$allocator@_W@2@@std@@V?$shared_ptr@VNameValue@yloader@@@2@@std@@@1@@Z@4HA 0000000180023c50 f   namevalue.obj
 0001:00022c60       ?dtor$2@?0???$_Emplace@U?$pair@$$CBV?$basic_string@_WU?$char_traits@_W@std@@V?$allocator@_W@2@@std@@V?$shared_ptr@VNameValue@yloader@@@2@@std@@@?$_Tree@V?$_Tmap_traits@V?$basic_string@_WU?$char_traits@_W@std@@V?$allocator@_W@2@@std@@V?$shared_ptr@VNameValue@yloader@@@2@U?$less@V?$basic_string@_WU?$char_traits@_W@std@@V?$allocator@_W@2@@std@@@2@V?$allocator@U?$pair@$$CBV?$basic_string@_WU?$char_traits@_W@std@@V?$allocator@_W@2@@std@@V?$shared_ptr@VNameValue@yloader@@@2@@std@@@2@$00@std@@@std@@IEAA?AU?$pair@PEAU?$_Tree_node@U?$pair@$$CBV?$basic_string@_WU?$char_traits@_W@std@@V?$allocator@_W@2@@std@@V?$shared_ptr@VNameValue@yloader@@@2@@std@@PEAX@std@@_N@1@$$QEAU?$pair@$$CBV?$basic_string@_WU?$char_traits@_W@std@@V?$allocator@_W@2@@std@@V?$shared_ptr@VNameValue@yloader@@@2@@1@@Z@4HA 0000000180023c60 f   namevalue.obj
 0001:00022c60       ?dtor$2@?0???$_Emplace_hint@AEBU?$pair@$$CBV?$basic_string@_WU?$char_traits@_W@std@@V?$allocator@_W@2@@std@@V?$shared_ptr@VNameValue@yloader@@@2@@std@@@?$_Tree@V?$_Tmap_traits@V?$basic_string@_WU?$char_traits@_W@std@@V?$allocator@_W@2@@std@@V?$shared_ptr@VNameValue@yloader@@@2@U?$less@V?$basic_string@_WU?$char_traits@_W@std@@V?$allocator@_W@2@@std@@@2@V?$allocator@U?$pair@$$CBV?$basic_string@_WU?$char_traits@_W@std@@V?$allocator@_W@2@@std@@V?$shared_ptr@VNameValue@yloader@@@2@@std@@@2@$00@std@@@std@@IEAAPEAU?$_Tree_node@U?$pair@$$CBV?$basic_string@_WU?$char_traits@_W@std@@V?$allocator@_W@2@@std@@V?$shared_ptr@VNameValue@yloader@@@2@@std@@PEAX@1@QEAU21@AEBU?$pair@$$CBV?$basic_string@_WU?$char_traits@_W@std@@V?$allocator@_W@2@@std@@V?$shared_ptr@VNameValue@yloader@@@2@@1@@Z@4HA 0000000180023c60 f   namevalue.obj
 0001:00022c60       ?dtor$2@?0??insert@?$_Tree@V?$_Tmap_traits@V?$basic_string@_WU?$char_traits@_W@std@@V?$allocator@_W@2@@std@@V?$shared_ptr@VNameValue@yloader@@@2@U?$less@V?$basic_string@_WU?$char_traits@_W@std@@V?$allocator@_W@2@@std@@@2@V?$allocator@U?$pair@$$CBV?$basic_string@_WU?$char_traits@_W@std@@V?$allocator@_W@2@@std@@V?$shared_ptr@VNameValue@yloader@@@2@@std@@@2@$00@std@@@std@@QEAA?AV?$_Tree_iterator@V?$_Tree_val@U?$_Tree_simple_types@U?$pair@$$CBV?$basic_string@_WU?$char_traits@_W@std@@V?$allocator@_W@2@@std@@V?$shared_ptr@VNameValue@yloader@@@2@@std@@@std@@@std@@@2@V?$_Tree_const_iterator@V?$_Tree_val@U?$_Tree_simple_types@U?$pair@$$CBV?$basic_string@_WU?$char_traits@_W@std@@V?$allocator@_W@2@@std@@V?$shared_ptr@VNameValue@yloader@@@2@@std@@@std@@@std@@@2@$$QEAU?$pair@$$CBV?$basic_string@_WU?$char_traits@_W@std@@V?$allocator@_W@2@@std@@V?$shared_ptr@VNameValue@yloader@@@2@@2@@Z@4HA 0000000180023c60 f   namevalue.obj
 0001:00022c6c       ?dtor$1@?0???$_Emplace@U?$pair@$$CBV?$basic_string@_WU?$char_traits@_W@std@@V?$allocator@_W@2@@std@@V?$shared_ptr@VNameValue@yloader@@@2@@std@@@?$_Tree@V?$_Tmap_traits@V?$basic_string@_WU?$char_traits@_W@std@@V?$allocator@_W@2@@std@@V?$shared_ptr@VNameValue@yloader@@@2@U?$less@V?$basic_string@_WU?$char_traits@_W@std@@V?$allocator@_W@2@@std@@@2@V?$allocator@U?$pair@$$CBV?$basic_string@_WU?$char_traits@_W@std@@V?$allocator@_W@2@@std@@V?$shared_ptr@VNameValue@yloader@@@2@@std@@@2@$00@std@@@std@@IEAA?AU?$pair@PEAU?$_Tree_node@U?$pair@$$CBV?$basic_string@_WU?$char_traits@_W@std@@V?$allocator@_W@2@@std@@V?$shared_ptr@VNameValue@yloader@@@2@@std@@PEAX@std@@_N@1@$$QEAU?$pair@$$CBV?$basic_string@_WU?$char_traits@_W@std@@V?$allocator@_W@2@@std@@V?$shared_ptr@VNameValue@yloader@@@2@@1@@Z@4HA 0000000180023c6c f   namevalue.obj
 0001:00022c6c       ?dtor$1@?0???$_Emplace_hint@AEBU?$pair@$$CBV?$basic_string@_WU?$char_traits@_W@std@@V?$allocator@_W@2@@std@@V?$shared_ptr@VNameValue@yloader@@@2@@std@@@?$_Tree@V?$_Tmap_traits@V?$basic_string@_WU?$char_traits@_W@std@@V?$allocator@_W@2@@std@@V?$shared_ptr@VNameValue@yloader@@@2@U?$less@V?$basic_string@_WU?$char_traits@_W@std@@V?$allocator@_W@2@@std@@@2@V?$allocator@U?$pair@$$CBV?$basic_string@_WU?$char_traits@_W@std@@V?$allocator@_W@2@@std@@V?$shared_ptr@VNameValue@yloader@@@2@@std@@@2@$00@std@@@std@@IEAAPEAU?$_Tree_node@U?$pair@$$CBV?$basic_string@_WU?$char_traits@_W@std@@V?$allocator@_W@2@@std@@V?$shared_ptr@VNameValue@yloader@@@2@@std@@PEAX@1@QEAU21@AEBU?$pair@$$CBV?$basic_string@_WU?$char_traits@_W@std@@V?$allocator@_W@2@@std@@V?$shared_ptr@VNameValue@yloader@@@2@@1@@Z@4HA 0000000180023c6c f   namevalue.obj
 0001:00022c6c       ?dtor$1@?0??insert@?$_Tree@V?$_Tmap_traits@V?$basic_string@_WU?$char_traits@_W@std@@V?$allocator@_W@2@@std@@V?$shared_ptr@VNameValue@yloader@@@2@U?$less@V?$basic_string@_WU?$char_traits@_W@std@@V?$allocator@_W@2@@std@@@2@V?$allocator@U?$pair@$$CBV?$basic_string@_WU?$char_traits@_W@std@@V?$allocator@_W@2@@std@@V?$shared_ptr@VNameValue@yloader@@@2@@std@@@2@$00@std@@@std@@QEAA?AV?$_Tree_iterator@V?$_Tree_val@U?$_Tree_simple_types@U?$pair@$$CBV?$basic_string@_WU?$char_traits@_W@std@@V?$allocator@_W@2@@std@@V?$shared_ptr@VNameValue@yloader@@@2@@std@@@std@@@std@@@2@V?$_Tree_const_iterator@V?$_Tree_val@U?$_Tree_simple_types@U?$pair@$$CBV?$basic_string@_WU?$char_traits@_W@std@@V?$allocator@_W@2@@std@@V?$shared_ptr@VNameValue@yloader@@@2@@std@@@std@@@std@@@2@$$QEAU?$pair@$$CBV?$basic_string@_WU?$char_traits@_W@std@@V?$allocator@_W@2@@std@@V?$shared_ptr@VNameValue@yloader@@@2@@2@@Z@4HA 0000000180023c6c f   namevalue.obj
 0001:00022c78       ?dtor$0@?0???$_Emplace@U?$pair@$$CBV?$basic_string@_WU?$char_traits@_W@std@@V?$allocator@_W@2@@std@@V?$shared_ptr@VNameValue@yloader@@@2@@std@@@?$_Tree@V?$_Tmap_traits@V?$basic_string@_WU?$char_traits@_W@std@@V?$allocator@_W@2@@std@@V?$shared_ptr@VNameValue@yloader@@@2@U?$less@V?$basic_string@_WU?$char_traits@_W@std@@V?$allocator@_W@2@@std@@@2@V?$allocator@U?$pair@$$CBV?$basic_string@_WU?$char_traits@_W@std@@V?$allocator@_W@2@@std@@V?$shared_ptr@VNameValue@yloader@@@2@@std@@@2@$00@std@@@std@@IEAA?AU?$pair@PEAU?$_Tree_node@U?$pair@$$CBV?$basic_string@_WU?$char_traits@_W@std@@V?$allocator@_W@2@@std@@V?$shared_ptr@VNameValue@yloader@@@2@@std@@PEAX@std@@_N@1@$$QEAU?$pair@$$CBV?$basic_string@_WU?$char_traits@_W@std@@V?$allocator@_W@2@@std@@V?$shared_ptr@VNameValue@yloader@@@2@@1@@Z@4HA 0000000180023c78 f   namevalue.obj
 0001:00022c78       ?dtor$0@?0???$_Emplace_hint@AEBU?$pair@$$CBV?$basic_string@_WU?$char_traits@_W@std@@V?$allocator@_W@2@@std@@V?$shared_ptr@VNameValue@yloader@@@2@@std@@@?$_Tree@V?$_Tmap_traits@V?$basic_string@_WU?$char_traits@_W@std@@V?$allocator@_W@2@@std@@V?$shared_ptr@VNameValue@yloader@@@2@U?$less@V?$basic_string@_WU?$char_traits@_W@std@@V?$allocator@_W@2@@std@@@2@V?$allocator@U?$pair@$$CBV?$basic_string@_WU?$char_traits@_W@std@@V?$allocator@_W@2@@std@@V?$shared_ptr@VNameValue@yloader@@@2@@std@@@2@$00@std@@@std@@IEAAPEAU?$_Tree_node@U?$pair@$$CBV?$basic_string@_WU?$char_traits@_W@std@@V?$allocator@_W@2@@std@@V?$shared_ptr@VNameValue@yloader@@@2@@std@@PEAX@1@QEAU21@AEBU?$pair@$$CBV?$basic_string@_WU?$char_traits@_W@std@@V?$allocator@_W@2@@std@@V?$shared_ptr@VNameValue@yloader@@@2@@1@@Z@4HA 0000000180023c78 f   namevalue.obj
 0001:00022c78       ?dtor$0@?0??insert@?$_Tree@V?$_Tmap_traits@V?$basic_string@_WU?$char_traits@_W@std@@V?$allocator@_W@2@@std@@V?$shared_ptr@VNameValue@yloader@@@2@U?$less@V?$basic_string@_WU?$char_traits@_W@std@@V?$allocator@_W@2@@std@@@2@V?$allocator@U?$pair@$$CBV?$basic_string@_WU?$char_traits@_W@std@@V?$allocator@_W@2@@std@@V?$shared_ptr@VNameValue@yloader@@@2@@std@@@2@$00@std@@@std@@QEAA?AV?$_Tree_iterator@V?$_Tree_val@U?$_Tree_simple_types@U?$pair@$$CBV?$basic_string@_WU?$char_traits@_W@std@@V?$allocator@_W@2@@std@@V?$shared_ptr@VNameValue@yloader@@@2@@std@@@std@@@std@@@2@V?$_Tree_const_iterator@V?$_Tree_val@U?$_Tree_simple_types@U?$pair@$$CBV?$basic_string@_WU?$char_traits@_W@std@@V?$allocator@_W@2@@std@@V?$shared_ptr@VNameValue@yloader@@@2@@std@@@std@@@std@@@2@$$QEAU?$pair@$$CBV?$basic_string@_WU?$char_traits@_W@std@@V?$allocator@_W@2@@std@@V?$shared_ptr@VNameValue@yloader@@@2@@2@@Z@4HA 0000000180023c78 f   namevalue.obj
 0001:00022c90       ?dtor$0@?0???$_Copy_nodes@U_Copy_tag@?$_Tree@V?$_Tmap_traits@V?$basic_string@_WU?$char_traits@_W@std@@V?$allocator@_W@2@@std@@V?$shared_ptr@VNameValue@yloader@@@2@U?$less@V?$basic_string@_WU?$char_traits@_W@std@@V?$allocator@_W@2@@std@@@2@V?$allocator@U?$pair@$$CBV?$basic_string@_WU?$char_traits@_W@std@@V?$allocator@_W@2@@std@@V?$shared_ptr@VNameValue@yloader@@@2@@std@@@2@$00@std@@@std@@@?$_Tree@V?$_Tmap_traits@V?$basic_string@_WU?$char_traits@_W@std@@V?$allocator@_W@2@@std@@V?$shared_ptr@VNameValue@yloader@@@2@U?$less@V?$basic_string@_WU?$char_traits@_W@std@@V?$allocator@_W@2@@std@@@2@V?$allocator@U?$pair@$$CBV?$basic_string@_WU?$char_traits@_W@std@@V?$allocator@_W@2@@std@@V?$shared_ptr@VNameValue@yloader@@@2@@std@@@2@$00@std@@@std@@IEAAPEAU?$_Tree_node@U?$pair@$$CBV?$basic_string@_WU?$char_traits@_W@std@@V?$allocator@_W@2@@std@@V?$shared_ptr@VNameValue@yloader@@@2@@std@@PEAX@1@PEAU21@0U_Copy_tag@01@@Z@4HA 0000000180023c90 f   namevalue.obj
 0001:00022c9c       ?catch$5@?0???$_Copy_nodes@U_Copy_tag@?$_Tree@V?$_Tmap_traits@V?$basic_string@_WU?$char_traits@_W@std@@V?$allocator@_W@2@@std@@V?$shared_ptr@VNameValue@yloader@@@2@U?$less@V?$basic_string@_WU?$char_traits@_W@std@@V?$allocator@_W@2@@std@@@2@V?$allocator@U?$pair@$$CBV?$basic_string@_WU?$char_traits@_W@std@@V?$allocator@_W@2@@std@@V?$shared_ptr@VNameValue@yloader@@@2@@std@@@2@$00@std@@@std@@@?$_Tree@V?$_Tmap_traits@V?$basic_string@_WU?$char_traits@_W@std@@V?$allocator@_W@2@@std@@V?$shared_ptr@VNameValue@yloader@@@2@U?$less@V?$basic_string@_WU?$char_traits@_W@std@@V?$allocator@_W@2@@std@@@2@V?$allocator@U?$pair@$$CBV?$basic_string@_WU?$char_traits@_W@std@@V?$allocator@_W@2@@std@@V?$shared_ptr@VNameValue@yloader@@@2@@std@@@2@$00@std@@@std@@IEAAPEAU?$_Tree_node@U?$pair@$$CBV?$basic_string@_WU?$char_traits@_W@std@@V?$allocator@_W@2@@std@@V?$shared_ptr@VNameValue@yloader@@@2@@std@@PEAX@1@PEAU21@0U_Copy_tag@01@@Z@4HA 0000000180023c9c f   namevalue.obj
 0001:00022caa       __catch$??$_Copy_nodes@U_Copy_tag@?$_Tree@V?$_Tmap_traits@V?$basic_string@_WU?$char_traits@_W@std@@V?$allocator@_W@2@@std@@V?$shared_ptr@VNameValue@yloader@@@2@U?$less@V?$basic_string@_WU?$char_traits@_W@std@@V?$allocator@_W@2@@std@@@2@V?$allocator@U?$pair@$$CBV?$basic_string@_WU?$char_traits@_W@std@@V?$allocator@_W@2@@std@@V?$shared_ptr@VNameValue@yloader@@@2@@std@@@2@$00@std@@@std@@@?$_Tree@V?$_Tmap_traits@V?$basic_string@_WU?$char_traits@_W@std@@V?$allocator@_W@2@@std@@V?$shared_ptr@VNameValue@yloader@@@2@U?$less@V?$basic_string@_WU?$char_traits@_W@std@@V?$allocator@_W@2@@std@@@2@V?$allocator@U?$pair@$$CBV?$basic_string@_WU?$char_traits@_W@std@@V?$allocator@_W@2@@std@@V?$shared_ptr@VNameValue@yloader@@@2@@std@@@2@$00@std@@@std@@IEAAPEAU?$_Tree_node@U?$pair@$$CBV?$basic_string@_WU?$char_traits@_W@std@@V?$allocator@_W@2@@std@@V?$shared_ptr@VNameValue@yloader@@@2@@std@@PEAX@1@PEAU21@0U_Copy_tag@01@@Z$0 0000000180023caa f   namevalue.obj
 0001:00022cd0       ?dtor$0@?0???$_Copy_nodes@U_Move_tag@?$_Tree@V?$_Tmap_traits@V?$basic_string@_WU?$char_traits@_W@std@@V?$allocator@_W@2@@std@@V?$shared_ptr@VNameValue@yloader@@@2@U?$less@V?$basic_string@_WU?$char_traits@_W@std@@V?$allocator@_W@2@@std@@@2@V?$allocator@U?$pair@$$CBV?$basic_string@_WU?$char_traits@_W@std@@V?$allocator@_W@2@@std@@V?$shared_ptr@VNameValue@yloader@@@2@@std@@@2@$00@std@@@std@@@?$_Tree@V?$_Tmap_traits@V?$basic_string@_WU?$char_traits@_W@std@@V?$allocator@_W@2@@std@@V?$shared_ptr@VNameValue@yloader@@@2@U?$less@V?$basic_string@_WU?$char_traits@_W@std@@V?$allocator@_W@2@@std@@@2@V?$allocator@U?$pair@$$CBV?$basic_string@_WU?$char_traits@_W@std@@V?$allocator@_W@2@@std@@V?$shared_ptr@VNameValue@yloader@@@2@@std@@@2@$00@std@@@std@@IEAAPEAU?$_Tree_node@U?$pair@$$CBV?$basic_string@_WU?$char_traits@_W@std@@V?$allocator@_W@2@@std@@V?$shared_ptr@VNameValue@yloader@@@2@@std@@PEAX@1@PEAU21@0U_Move_tag@01@@Z@4HA 0000000180023cd0 f   namevalue.obj
 0001:00022cdc       ?catch$13@?0???$_Copy_nodes@U_Move_tag@?$_Tree@V?$_Tmap_traits@V?$basic_string@_WU?$char_traits@_W@std@@V?$allocator@_W@2@@std@@V?$shared_ptr@VNameValue@yloader@@@2@U?$less@V?$basic_string@_WU?$char_traits@_W@std@@V?$allocator@_W@2@@std@@@2@V?$allocator@U?$pair@$$CBV?$basic_string@_WU?$char_traits@_W@std@@V?$allocator@_W@2@@std@@V?$shared_ptr@VNameValue@yloader@@@2@@std@@@2@$00@std@@@std@@@?$_Tree@V?$_Tmap_traits@V?$basic_string@_WU?$char_traits@_W@std@@V?$allocator@_W@2@@std@@V?$shared_ptr@VNameValue@yloader@@@2@U?$less@V?$basic_string@_WU?$char_traits@_W@std@@V?$allocator@_W@2@@std@@@2@V?$allocator@U?$pair@$$CBV?$basic_string@_WU?$char_traits@_W@std@@V?$allocator@_W@2@@std@@V?$shared_ptr@VNameValue@yloader@@@2@@std@@@2@$00@std@@@std@@IEAAPEAU?$_Tree_node@U?$pair@$$CBV?$basic_string@_WU?$char_traits@_W@std@@V?$allocator@_W@2@@std@@V?$shared_ptr@VNameValue@yloader@@@2@@std@@PEAX@1@PEAU21@0U_Move_tag@01@@Z@4HA 0000000180023cdc f   namevalue.obj
 0001:00022cea       __catch$??$_Copy_nodes@U_Move_tag@?$_Tree@V?$_Tmap_traits@V?$basic_string@_WU?$char_traits@_W@std@@V?$allocator@_W@2@@std@@V?$shared_ptr@VNameValue@yloader@@@2@U?$less@V?$basic_string@_WU?$char_traits@_W@std@@V?$allocator@_W@2@@std@@@2@V?$allocator@U?$pair@$$CBV?$basic_string@_WU?$char_traits@_W@std@@V?$allocator@_W@2@@std@@V?$shared_ptr@VNameValue@yloader@@@2@@std@@@2@$00@std@@@std@@@?$_Tree@V?$_Tmap_traits@V?$basic_string@_WU?$char_traits@_W@std@@V?$allocator@_W@2@@std@@V?$shared_ptr@VNameValue@yloader@@@2@U?$less@V?$basic_string@_WU?$char_traits@_W@std@@V?$allocator@_W@2@@std@@@2@V?$allocator@U?$pair@$$CBV?$basic_string@_WU?$char_traits@_W@std@@V?$allocator@_W@2@@std@@V?$shared_ptr@VNameValue@yloader@@@2@@std@@@2@$00@std@@@std@@IEAAPEAU?$_Tree_node@U?$pair@$$CBV?$basic_string@_WU?$char_traits@_W@std@@V?$allocator@_W@2@@std@@V?$shared_ptr@VNameValue@yloader@@@2@@std@@PEAX@1@PEAU21@0U_Move_tag@01@@Z$0 0000000180023cea f   namevalue.obj
 0001:00022d0d       ?fin$0@?0???_M@YAXPEAX_K1P6AX0@Z@Z@4HA 0000000180023d0d f   MSVCRT:ehvecdtr.obj
 0001:00022d39       ?filt$0@?0??__ArrayUnwind@@YAXPEAX_K1P6AX0@Z@Z@4HA 0000000180023d39 f   MSVCRT:ehvecdtr.obj
 0001:00022d98       __scrt_is_nonwritable_in_current_image$filt$0 0000000180023d98 f   MSVCRT:utility.obj
 0001:00022db0       ?fin$0@?0??dllmain_crt_process_attach@@YAHQEAUHINSTANCE__@@QEAX@Z@4HA 0000000180023db0 f   MSVCRT:dll_dllmain.obj
 0001:00022dc7       ?fin$0@?0??dllmain_crt_process_detach@@YAH_N@Z@4HA 0000000180023dc7 f   MSVCRT:dll_dllmain.obj
 0001:00022de0       ?fin$1@?0??dllmain_crt_process_detach@@YAH_N@Z@4HA 0000000180023de0 f   MSVCRT:dll_dllmain.obj
 0001:00022df4       ?filt$0@?0??dllmain_dispatch@@YAHQEAUHINSTANCE__@@KQEAX@Z@4HA 0000000180023df4 f   MSVCRT:dll_dllmain.obj
 0001:00022e30       ?dtor$0@?0??call_once@boost@@YAXAEAUonce_flag@1@P6AXXZ@Z@4HA 0000000180023e30 f   libboost_thread-vc142-mt-x64-1_80:thread.obj
 0001:00022e40       ?catch$5@?0??call_once@boost@@YAXAEAUonce_flag@1@P6AXXZ@Z@4HA 0000000180023e40 f   libboost_thread-vc142-mt-x64-1_80:thread.obj
 0001:00022e4d       __catch$?call_once@boost@@YAXAEAUonce_flag@1@P6AXXZ@Z$0 0000000180023e4d f   libboost_thread-vc142-mt-x64-1_80:thread.obj
 0001:00022e70       ?dtor$0@?0??run_thread_exit_callbacks@?A0x651aaad3@boost@@YAXXZ@4HA 0000000180023e70 f   libboost_thread-vc142-mt-x64-1_80:thread.obj
 0001:00022e80       ??__Fm@yloader@@YAXXZ      0000000180023e80 f   misc.obj
 0001:00022e90       ??__Fmonths@?CF@??parse@Date@yloader@@AEAAXAEBV?$basic_string@_WU?$char_traits@_W@std@@V?$allocator@_W@2@@std@@W4DateFormat@2@0@Z@YAXXZ 0000000180023e90 f   misc.obj
 0001:00022eb0       ??__F?e@?$exception_ptr_static_exception_object@Ubad_exception_@exception_detail@boost@@@exception_detail@boost@@2Vexception_ptr@3@B@@YAXXZ 0000000180023eb0 f   misc.obj
 0001:00022f00       ??__F?e@?$exception_ptr_static_exception_object@Ubad_alloc_@exception_detail@boost@@@exception_detail@boost@@2Vexception_ptr@3@B@@YAXXZ 0000000180023f00 f   misc.obj
 0001:00022f50       ??__F?mx_@?$stdcat_mx_holder@X@detail@system@boost@@2Vmutex@std@@A@@YAXXZ 0000000180023f50 f   misc.obj
 0001:00022f60       ??__Fep@?1???$get_static_exception_object@Ubad_exception_@exception_detail@boost@@@exception_detail@boost@@YA?AVexception_ptr@1@XZ@YAXXZ 0000000180023f60 f   misc.obj
 0001:00022fb0       ??__Fep@?1???$get_static_exception_object@Ubad_alloc_@exception_detail@boost@@@exception_detail@boost@@YA?AVexception_ptr@1@XZ@YAXXZ 0000000180023fb0 f   misc.obj
 0001:00023038       ??__F_Fac_tidy_reg@std@@YAXXZ 0000000180024038 f   msvcprt:locale0_implib.obj
 0002:00000588       ?_Fac_tidy_reg$initializer$@std@@3P6AXXZEA 0000000180025588     msvcprt:locale0_implib.obj
 0002:00000598       ?m$initializer$@yloader@@3P6AXXZEA 0000000180025598     misc.obj
 0002:000005a0       ??CURRENT$initializer$@Version@yloader@@2P6AXXZEA@@3P6AXXZEA 00000001800255a0     misc.obj
 0002:000005a8       ??mx_$initializer$@?$stdcat_mx_holder@X@detail@system@boost@@2P6AXXZEA@@3P6AXXZEA 00000001800255a8     misc.obj
 0002:000005b0       ??e$initializer$@?$exception_ptr_static_exception_object@Ubad_alloc_@exception_detail@boost@@@exception_detail@boost@@2P6AXXZEA@@3P6AXXZEA 00000001800255b0     misc.obj
 0002:000005b8       ??e$initializer$@?$exception_ptr_static_exception_object@Ubad_exception_@exception_detail@boost@@@exception_detail@boost@@2P6AXXZEA@@3P6AXXZEA 00000001800255b8     misc.obj
 0002:000005d0       ?__scrt_initialize_tss_var@@3P6AHXZEA 00000001800255d0     MSVCRT:thread_safe_statics.obj
 0002:00000708       GS_ExceptionPointers       0000000180025708     MSVCRT:gs_report.obj
 0002:00001818       ?whiteSpaces@yloader@@3QEB_WEB 0000000180026818     misc.obj
 0002:000058c0       $unwind$??$?H_WU?$char_traits@_W@std@@V?$allocator@_W@1@@std@@YA?AV?$basic_string@_WU?$char_traits@_W@std@@V?$allocator@_W@2@@0@$$QEAV10@0@Z 000000018002a8c0     misc.obj
 0002:000058c0       $unwind$??0?$wrapexcept@Ubad_day_of_month@gregorian@boost@@@boost@@QEAA@AEBUbad_day_of_month@gregorian@1@@Z 000000018002a8c0     misc.obj
 0002:000058c0       $unwind$??0?$wrapexcept@Ubad_month@gregorian@boost@@@boost@@QEAA@AEBUbad_month@gregorian@1@@Z 000000018002a8c0     misc.obj
 0002:000058c0       $unwind$??0?$wrapexcept@Ubad_year@gregorian@boost@@@boost@@QEAA@AEBUbad_year@gregorian@1@@Z 000000018002a8c0     misc.obj
 0002:000058c0       $unwind$??0?$wrapexcept@Vruntime_error@std@@@boost@@QEAA@AEBVruntime_error@std@@@Z 000000018002a8c0     misc.obj
 0002:000058c0       $unwind$??0Version@yloader@@QEAA@AEBV?$basic_string@_WU?$char_traits@_W@std@@V?$allocator@_W@2@@std@@@Z 000000018002a8c0     misc.obj
 0002:000058c0       $unwind$??0Version@yloader@@QEAA@PEB_W@Z 000000018002a8c0     misc.obj
 0002:000058c0       $unwind$??0VersionException@yloader@@QEAA@AEBV01@@Z 000000018002a8c0     misc.obj
 0002:000058c0       $unwind$??0VersionException@yloader@@QEAA@AEBV?$basic_string@_WU?$char_traits@_W@std@@V?$allocator@_W@2@@std@@@Z 000000018002a8c0     misc.obj
 0002:000058c0       $unwind$??0bad_alloc@std@@QEAA@AEBV01@@Z 000000018002a8c0     misc.obj
 0002:000058c0       $unwind$??0bad_array_new_length@std@@QEAA@AEBV01@@Z 000000018002a8c0     misc.obj
 0002:000058c0       $unwind$??0bad_cast@std@@QEAA@AEBV01@@Z 000000018002a8c0     misc.obj
 0002:000058c0       $unwind$??0bad_day_of_month@gregorian@boost@@QEAA@AEBU012@@Z 000000018002a8c0     misc.obj
 0002:000058c0       $unwind$??0bad_exception@std@@QEAA@AEBV01@@Z 000000018002a8c0     misc.obj
 0002:000058c0       $unwind$??0bad_month@gregorian@boost@@QEAA@AEBU012@@Z 000000018002a8c0     misc.obj
 0002:000058c0       $unwind$??0bad_year@gregorian@boost@@QEAA@AEBU012@@Z 000000018002a8c0     misc.obj
 0002:000058c0       $unwind$??0date@gregorian@boost@@QEAA@W4special_values@date_time@2@@Z 000000018002a8c0     misc.obj
 0002:000058c0       $unwind$??0exception@std@@QEAA@AEBV01@@Z 000000018002a8c0     misc.obj
 0002:000058c0       $unwind$??0format_error@io@boost@@QEAA@AEBV012@@Z 000000018002a8c0     misc.obj
 0002:000058c0       $unwind$??0logic_error@std@@QEAA@AEBV01@@Z 000000018002a8c0     misc.obj
 0002:000058c0       $unwind$??0out_of_range@std@@QEAA@AEBV01@@Z 000000018002a8c0     misc.obj
 0002:000058c0       $unwind$??0ptime@posix_time@boost@@QEAA@W4special_values@date_time@2@@Z 000000018002a8c0     misc.obj
 0002:000058c0       $unwind$??0runtime_error@std@@QEAA@AEBV01@@Z 000000018002a8c0     misc.obj
 0002:000058c0       $unwind$??1?$CIsFromString@_W@@QEAA@XZ 000000018002a8c0     misc.obj
 0002:000058c0       $unwind$??1?$_Tidy_deallocate_guard@V?$basic_string@DU?$char_traits@D@std@@V?$allocator@D@2@@std@@@std@@QEAA@XZ 000000018002a8c0     misc.obj
 0002:000058c0       $unwind$??1?$_Tidy_guard@V?$numpunct@D@std@@@std@@QEAA@XZ 000000018002a8c0     misc.obj
 0002:000058c0       $unwind$??1?$_Tidy_guard@V?$numpunct@_W@std@@@std@@QEAA@XZ 000000018002a8c0     misc.obj
 0002:000058c0       $unwind$??1?$_Tree@V?$_Tmap_traits@V?$basic_string@DU?$char_traits@D@std@@V?$allocator@D@2@@std@@GU?$less@V?$basic_string@DU?$char_traits@D@std@@V?$allocator@D@2@@std@@@2@V?$allocator@U?$pair@$$CBV?$basic_string@DU?$char_traits@D@std@@V?$allocator@D@2@@std@@G@std@@@2@$0A@@std@@@std@@QEAA@XZ 000000018002a8c0     misc.obj
 0002:000058c0       $unwind$??1?$_Tree_temp_node@V?$allocator@U?$_Tree_node@U?$pair@$$CBDU?$string_parse_tree@D@date_time@boost@@@std@@PEAX@std@@@std@@@std@@QEAA@XZ 000000018002a8c0     misc.obj
 0002:000058c0       $unwind$??1?$base_from_member@V?$shared_ptr@V?$basic_altstringbuf@_WU?$char_traits@_W@std@@V?$allocator@_W@2@@io@boost@@@boost@@$0A@@boost@@QEAA@XZ 000000018002a8c0     misc.obj
 0002:000058c0       $unwind$??1?$basic_altstringbuf@_WU?$char_traits@_W@std@@V?$allocator@_W@2@@io@boost@@UEAA@XZ 000000018002a8c0     misc.obj
 0002:000058c0       $unwind$??1?$basic_string@DU?$char_traits@D@std@@V?$allocator@D@2@@std@@QEAA@XZ 000000018002a8c0     misc.obj
 0002:000058c0       $unwind$??1?$basic_string@_WU?$char_traits@_W@std@@V?$allocator@_W@2@@std@@QEAA@XZ 000000018002a8c0     misc.obj
 0002:000058c0       $unwind$??1?$basic_stringbuf@DU?$char_traits@D@std@@V?$allocator@D@2@@std@@UEAA@XZ 000000018002a8c0     misc.obj
 0002:000058c0       $unwind$??1?$basic_stringbuf@_WU?$char_traits@_W@std@@V?$allocator@_W@2@@std@@UEAA@XZ 000000018002a8c0     misc.obj
 0002:000058c0       $unwind$??1?$char_separator@DU?$char_traits@D@std@@@boost@@QEAA@XZ 000000018002a8c0     misc.obj
 0002:000058c0       $unwind$??1?$optional@Vlocale@std@@@boost@@QEAA@XZ 000000018002a8c0     misc.obj
 0002:000058c0       $unwind$??1?$pair@$$CBV?$basic_string@DU?$char_traits@D@std@@V?$allocator@D@2@@std@@G@std@@QEAA@XZ 000000018002a8c0     misc.obj
 0002:000058c0       $unwind$??1?$parse_match_result@D@date_time@boost@@QEAA@XZ 000000018002a8c0     misc.obj
 0002:000058c0       $unwind$??1?$shared_ptr@$$BY0A@D@std@@QEAA@XZ 000000018002a8c0     misc.obj
 0002:000058c0       $unwind$??1?$shared_ptr@$$BY0A@_W@std@@QEAA@XZ 000000018002a8c0     misc.obj
 0002:000058c0       $unwind$??1?$shared_ptr@VDateAbstr@yloader@@@std@@QEAA@XZ 000000018002a8c0     misc.obj
 0002:000058c0       $unwind$??1?$token_iterator@V?$char_separator@DU?$char_traits@D@std@@@boost@@V?$_String_const_iterator@V?$_String_val@U?$_Simple_types@D@std@@@std@@@std@@V?$basic_string@DU?$char_traits@D@std@@V?$allocator@D@2@@4@@boost@@QEAA@XZ 000000018002a8c0     misc.obj
 0002:000058c0       $unwind$??1?$tokenizer@Voffset_separator@boost@@V?$_String_const_iterator@V?$_String_val@U?$_Simple_types@D@std@@@std@@@std@@V?$basic_string@DU?$char_traits@D@std@@V?$allocator@D@2@@4@@boost@@QEAA@XZ 000000018002a8c0     misc.obj
 0002:000058c0       $unwind$??1?$vector@V?$basic_string@_WU?$char_traits@_W@std@@V?$allocator@_W@2@@std@@V?$allocator@V?$basic_string@_WU?$char_traits@_W@std@@V?$allocator@_W@2@@std@@@2@@std@@QEAA@XZ 000000018002a8c0     misc.obj
 0002:000058c0       $unwind$??1?$vector@_NV?$allocator@_N@std@@@std@@QEAA@XZ 000000018002a8c0     misc.obj
 0002:000058c0       $unwind$??1VersionException@yloader@@QEAA@XZ 000000018002a8c0     misc.obj
 0002:000058c0       $unwind$??1offset_separator@boost@@QEAA@XZ 000000018002a8c0     misc.obj
 0002:000058c0       $unwind$??1shared_count@detail@boost@@QEAA@XZ 000000018002a8c0     misc.obj
 0002:000058c0       $unwind$??_0date_duration@gregorian@boost@@QEAAAEAV012@H@Z 000000018002a8c0     misc.obj
 0002:000058c0       $unwind$??_D?$basic_ostringstream@_WU?$char_traits@_W@std@@V?$allocator@_W@2@@std@@QEAAXXZ 000000018002a8c0     misc.obj
 0002:000058c0       $unwind$??_D?$basic_stringstream@DU?$char_traits@D@std@@V?$allocator@D@2@@std@@QEAAXXZ 000000018002a8c0     misc.obj
 0002:000058c0       $unwind$??_G?$_Ref_count@VDateImpl@@@std@@UEAAPEAXI@Z 000000018002a8c0     misc.obj
 0002:000058c0       $unwind$??_G?$_Ref_count@VDateTimeImpl@@@std@@UEAAPEAXI@Z 000000018002a8c0     misc.obj
 0002:000058c0       $unwind$??_G?$_Ref_count@VTimeDurationImpl@@@std@@UEAAPEAXI@Z 000000018002a8c0     misc.obj
 0002:000058c0       $unwind$??_G?$_Ref_count_obj2@VDateDurationImpl@@@std@@UEAAPEAXI@Z 000000018002a8c0     misc.obj
 0002:000058c0       $unwind$??_G?$_Ref_count_obj2@VDateImpl@@@std@@UEAAPEAXI@Z 000000018002a8c0     misc.obj
 0002:000058c0       $unwind$??_G?$_Ref_count_obj2@VDateTimeImpl@@@std@@UEAAPEAXI@Z 000000018002a8c0     misc.obj
 0002:000058c0       $unwind$??_G?$_Ref_count_obj2@VTimeDurationImpl@@@std@@UEAAPEAXI@Z 000000018002a8c0     misc.obj
 0002:000058c0       $unwind$??_G?$_Ref_count_resource@PEADU?$default_delete@$$BY0A@D@std@@@std@@UEAAPEAXI@Z 000000018002a8c0     misc.obj
 0002:000058c0       $unwind$??_G?$_Ref_count_resource@PEA_WU?$default_delete@$$BY0A@_W@std@@@std@@UEAAPEAXI@Z 000000018002a8c0     misc.obj
 0002:000058c0       $unwind$??_G?$sp_counted_impl_p@V?$clone_impl@Ubad_alloc_@exception_detail@boost@@@exception_detail@boost@@@detail@boost@@UEAAPEAXI@Z 000000018002a8c0     misc.obj
 0002:000058c0       $unwind$??_G?$sp_counted_impl_p@V?$clone_impl@Ubad_exception_@exception_detail@boost@@@exception_detail@boost@@@detail@boost@@UEAAPEAXI@Z 000000018002a8c0     misc.obj
 0002:000058c0       $unwind$??_G?$sp_counted_impl_pd@PEAV?$basic_altstringbuf@_WU?$char_traits@_W@std@@V?$allocator@_W@2@@io@boost@@VNo_Op@?$basic_oaltstringstream@_WU?$char_traits@_W@std@@V?$allocator@_W@2@@23@@detail@boost@@UEAAPEAXI@Z 000000018002a8c0     misc.obj
 0002:000058c0       $unwind$??_GDateAbstr@yloader@@UEAAPEAXI@Z 000000018002a8c0     misc.obj
 0002:000058c0       $unwind$??_GDateDurationAbstr@yloader@@UEAAPEAXI@Z 000000018002a8c0     misc.obj
 0002:000058c0       $unwind$??_GDateDurationImpl@@UEAAPEAXI@Z 000000018002a8c0     misc.obj
 0002:000058c0       $unwind$??_GDateImpl@@UEAAPEAXI@Z 000000018002a8c0     misc.obj
 0002:000058c0       $unwind$??_GDateTimeAbstr@yloader@@UEAAPEAXI@Z 000000018002a8c0     misc.obj
 0002:000058c0       $unwind$??_GDateTimeImpl@@UEAAPEAXI@Z 000000018002a8c0     misc.obj
 0002:000058c0       $unwind$??_GTimeDurationAbstr@yloader@@UEAAPEAXI@Z 000000018002a8c0     misc.obj
 0002:000058c0       $unwind$??_GTimeDurationImpl@@UEAAPEAXI@Z 000000018002a8c0     misc.obj
 0002:000058c0       $unwind$??_GTimerAbstr@yloader@@UEAAPEAXI@Z 000000018002a8c0     misc.obj
 0002:000058c0       $unwind$??_GTimerImpl@@UEAAPEAXI@Z 000000018002a8c0     misc.obj
 0002:000058c0       $unwind$??_Gclone_base@exception_detail@boost@@UEAAPEAXI@Z 000000018002a8c0     misc.obj
 0002:000058c0       $unwind$??_Gsp_counted_base@detail@boost@@UEAAPEAXI@Z 000000018002a8c0     misc.obj
 0002:000058c0       $unwind$??__F?e@?$exception_ptr_static_exception_object@Ubad_alloc_@exception_detail@boost@@@exception_detail@boost@@2Vexception_ptr@3@B@@YAXXZ 000000018002a8c0     misc.obj
 0002:000058c0       $unwind$??__F?e@?$exception_ptr_static_exception_object@Ubad_exception_@exception_detail@boost@@@exception_detail@boost@@2Vexception_ptr@3@B@@YAXXZ 000000018002a8c0     misc.obj
 0002:000058c0       $unwind$??__Fep@?1???$get_static_exception_object@Ubad_alloc_@exception_detail@boost@@@exception_detail@boost@@YA?AVexception_ptr@1@XZ@YAXXZ 000000018002a8c0     misc.obj
 0002:000058c0       $unwind$??__Fep@?1???$get_static_exception_object@Ubad_exception_@exception_detail@boost@@@exception_detail@boost@@YA?AVexception_ptr@1@XZ@YAXXZ 000000018002a8c0     misc.obj
 0002:000058c0       $unwind$?_Get_deleter@?$_Ref_count_resource@PEADU?$default_delete@$$BY0A@D@std@@@std@@UEBAPEAXAEBVtype_info@@@Z 000000018002a8c0     misc.obj
 0002:000058c0       $unwind$?_Get_deleter@?$_Ref_count_resource@PEA_WU?$default_delete@$$BY0A@_W@std@@@std@@UEBAPEAXAEBVtype_info@@@Z 000000018002a8c0     misc.obj
 0002:000058c0       $unwind$?_Tidy@?$vector@V?$basic_string@DU?$char_traits@D@std@@V?$allocator@D@2@@std@@V?$allocator@V?$basic_string@DU?$char_traits@D@std@@V?$allocator@D@2@@std@@@2@@std@@AEAAXXZ 000000018002a8c0     misc.obj
 0002:000058c0       $unwind$?date@?$base_time@Vptime@posix_time@boost@@V?$counted_time_system@U?$counted_time_rep@Vmillisec_posix_time_system_config@posix_time@boost@@@date_time@boost@@@date_time@3@@date_time@boost@@QEBA?AV0gregorian@3@XZ 000000018002a8c0     misc.obj
 0002:000058c0       $unwind$?elapsed@TimerImpl@@UEBANXZ 000000018002a8c0     misc.obj
 0002:000058c0       $unwind$?from_day_number@?$gregorian_calendar_base@U?$year_month_day_base@Vgreg_year@gregorian@boost@@Vgreg_month@23@Vgreg_day@23@@date_time@boost@@I@date_time@boost@@SA?AU?$year_month_day_base@Vgreg_year@gregorian@boost@@Vgreg_month@23@Vgreg_day@23@@23@I@Z 000000018002a8c0     misc.obj
 0002:000058c0       $unwind$?get_deleter@?$sp_counted_impl_pd@PEAV?$basic_altstringbuf@_WU?$char_traits@_W@std@@V?$allocator@_W@2@@io@boost@@VNo_Op@?$basic_oaltstringstream@_WU?$char_traits@_W@std@@V?$allocator@_W@2@@23@@detail@boost@@UEAAPEAXAEBVtype_info@@@Z 000000018002a8c0     misc.obj
 0002:000058c0       $unwind$?make@DateAbstr@yloader@@SA?AV?$shared_ptr@VDateAbstr@yloader@@@std@@XZ 000000018002a8c0     misc.obj
 0002:000058c0       $unwind$?make@DateDurationAbstr@yloader@@SA?AV?$shared_ptr@VDateDurationAbstr@yloader@@@std@@XZ 000000018002a8c0     misc.obj
 0002:000058c0       $unwind$?make@TimerAbstr@yloader@@SAPEAV12@XZ 000000018002a8c0     misc.obj
 0002:000058c0       $unwind$?makeNegInfinity@DateAbstr@yloader@@SA?AV?$shared_ptr@VDateAbstr@yloader@@@std@@XZ 000000018002a8c0     misc.obj
 0002:000058c0       $unwind$?makeNegInfinity@DateTimeAbstr@yloader@@SA?AV?$shared_ptr@VDateTimeAbstr@yloader@@@std@@XZ 000000018002a8c0     misc.obj
 0002:000058c0       $unwind$?makeNotADate@DateAbstr@yloader@@SA?AV?$shared_ptr@VDateAbstr@yloader@@@std@@XZ 000000018002a8c0     misc.obj
 0002:000058c0       $unwind$?makeNotADateTime@DateTimeAbstr@yloader@@SA?AV?$shared_ptr@VDateTimeAbstr@yloader@@@std@@XZ 000000018002a8c0     misc.obj
 0002:000058c0       $unwind$?makePosInfinity@DateAbstr@yloader@@SA?AV?$shared_ptr@VDateAbstr@yloader@@@std@@XZ 000000018002a8c0     misc.obj
 0002:000058c0       $unwind$?makePosInfinity@DateTimeAbstr@yloader@@SA?AV?$shared_ptr@VDateTimeAbstr@yloader@@@std@@XZ 000000018002a8c0     misc.obj
 0002:000058c0       $unwind$?restart@TimerImpl@@UEAAXXZ 000000018002a8c0     misc.obj
 0002:000058c0       $unwind$?stop@TimerImpl@@UEAAXXZ 000000018002a8c0     misc.obj
 0002:000058c0       $unwind$?to_iso_string@DateImpl@@UEBA?AV?$basic_string@_WU?$char_traits@_W@std@@V?$allocator@_W@2@@std@@XZ 000000018002a8c0     misc.obj
 0002:000058c0       $unwind$?to_iso_string@DateTimeImpl@@UEBA?AV?$basic_string@_WU?$char_traits@_W@std@@V?$allocator@_W@2@@std@@XZ 000000018002a8c0     misc.obj
 0002:000058c0       $unwind$?to_simple_string@DateImpl@@UEBA?AV?$basic_string@_WU?$char_traits@_W@std@@V?$allocator@_W@2@@std@@XZ 000000018002a8c0     misc.obj
 0002:000058c0       $unwind$?to_simple_string@DateTimeImpl@@UEBA?AV?$basic_string@_WU?$char_traits@_W@std@@V?$allocator@_W@2@@std@@XZ 000000018002a8c0     misc.obj
 0002:000058c0       $unwind$??0?$_Tree@V?$_Tmap_traits@V?$basic_string@_WU?$char_traits@_W@std@@V?$allocator@_W@2@@std@@V?$shared_ptr@VNameValue@yloader@@@2@U?$less@V?$basic_string@_WU?$char_traits@_W@std@@V?$allocator@_W@2@@std@@@2@V?$allocator@U?$pair@$$CBV?$basic_string@_WU?$char_traits@_W@std@@V?$allocator@_W@2@@std@@V?$shared_ptr@VNameValue@yloader@@@2@@std@@@2@$00@std@@@std@@QEAA@AEBU?$less@V?$basic_string@_WU?$char_traits@_W@std@@V?$allocator@_W@2@@std@@@1@@Z 000000018002a8c0     namevalue.obj
 0002:000058c0       $unwind$??0?$_Tree@V?$_Tmap_traits@V?$basic_string@_WU?$char_traits@_W@std@@V?$allocator@_W@2@@std@@V?$shared_ptr@VNameValue@yloader@@@2@U?$less@V?$basic_string@_WU?$char_traits@_W@std@@V?$allocator@_W@2@@std@@@2@V?$allocator@U?$pair@$$CBV?$basic_string@_WU?$char_traits@_W@std@@V?$allocator@_W@2@@std@@V?$shared_ptr@VNameValue@yloader@@@2@@std@@@2@$00@std@@@std@@QEAA@AEBU?$less@V?$basic_string@_WU?$char_traits@_W@std@@V?$allocator@_W@2@@std@@@1@AEBV?$allocator@U?$pair@$$CBV?$basic_string@_WU?$char_traits@_W@std@@V?$allocator@_W@2@@std@@V?$shared_ptr@VNameValue@yloader@@@2@@std@@@1@@Z 000000018002a8c0     namevalue.obj
 0002:000058c0       $unwind$??0?$multimap@V?$basic_string@_WU?$char_traits@_W@std@@V?$allocator@_W@2@@std@@V?$shared_ptr@VNameValue@yloader@@@2@U?$less@V?$basic_string@_WU?$char_traits@_W@std@@V?$allocator@_W@2@@std@@@2@V?$allocator@U?$pair@$$CBV?$basic_string@_WU?$char_traits@_W@std@@V?$allocator@_W@2@@std@@V?$shared_ptr@VNameValue@yloader@@@2@@std@@@2@@std@@QEAA@AEBU?$less@V?$basic_string@_WU?$char_traits@_W@std@@V?$allocator@_W@2@@std@@@1@@Z 000000018002a8c0     namevalue.obj
 0002:000058c0       $unwind$??0?$multimap@V?$basic_string@_WU?$char_traits@_W@std@@V?$allocator@_W@2@@std@@V?$shared_ptr@VNameValue@yloader@@@2@U?$less@V?$basic_string@_WU?$char_traits@_W@std@@V?$allocator@_W@2@@std@@@2@V?$allocator@U?$pair@$$CBV?$basic_string@_WU?$char_traits@_W@std@@V?$allocator@_W@2@@std@@V?$shared_ptr@VNameValue@yloader@@@2@@std@@@2@@std@@QEAA@AEBU?$less@V?$basic_string@_WU?$char_traits@_W@std@@V?$allocator@_W@2@@std@@@1@AEBV?$allocator@U?$pair@$$CBV?$basic_string@_WU?$char_traits@_W@std@@V?$allocator@_W@2@@std@@V?$shared_ptr@VNameValue@yloader@@@2@@std@@@1@@Z 000000018002a8c0     namevalue.obj
 0002:000058c0       $unwind$??0?$multimap@V?$basic_string@_WU?$char_traits@_W@std@@V?$allocator@_W@2@@std@@V?$shared_ptr@VNameValue@yloader@@@2@U?$less@V?$basic_string@_WU?$char_traits@_W@std@@V?$allocator@_W@2@@std@@@2@V?$allocator@U?$pair@$$CBV?$basic_string@_WU?$char_traits@_W@std@@V?$allocator@_W@2@@std@@V?$shared_ptr@VNameValue@yloader@@@2@@std@@@2@@std@@QEAA@AEBV?$allocator@U?$pair@$$CBV?$basic_string@_WU?$char_traits@_W@std@@V?$allocator@_W@2@@std@@V?$shared_ptr@VNameValue@yloader@@@2@@std@@@1@@Z 000000018002a8c0     namevalue.obj
 0002:000058c0       $unwind$??0?$multimap@V?$basic_string@_WU?$char_traits@_W@std@@V?$allocator@_W@2@@std@@V?$shared_ptr@VNameValue@yloader@@@2@U?$less@V?$basic_string@_WU?$char_traits@_W@std@@V?$allocator@_W@2@@std@@@2@V?$allocator@U?$pair@$$CBV?$basic_string@_WU?$char_traits@_W@std@@V?$allocator@_W@2@@std@@V?$shared_ptr@VNameValue@yloader@@@2@@std@@@2@@std@@QEAA@XZ 000000018002a8c0     namevalue.obj
 0002:000058c0       $unwind$??1?$_Temporary_owner@V?$basic_string@_WU?$char_traits@_W@std@@V?$allocator@_W@2@@std@@@std@@QEAA@XZ 000000018002a8c0     namevalue.obj
 0002:000058c0       $unwind$??1?$_Temporary_owner@VNameValue@yloader@@@std@@QEAA@XZ 000000018002a8c0     namevalue.obj
 0002:000058c0       $unwind$??1?$_Tree_temp_node@V?$allocator@U?$_Tree_node@U?$pair@$$CBV?$basic_string@_WU?$char_traits@_W@std@@V?$allocator@_W@2@@std@@V?$shared_ptr@VNameValue@yloader@@@2@@std@@PEAX@std@@@std@@@std@@QEAA@XZ 000000018002a8c0     namevalue.obj
 0002:000058c0       $unwind$??1?$shared_ptr@V?$basic_string@_WU?$char_traits@_W@std@@V?$allocator@_W@2@@std@@@std@@QEAA@XZ 000000018002a8c0     namevalue.obj
 0002:000058c0       $unwind$??1?$shared_ptr@VNameValue@yloader@@@std@@QEAA@XZ 000000018002a8c0     namevalue.obj
 0002:000058c0       $unwind$??1NameValueMap@yloader@@QEAA@XZ 000000018002a8c0     namevalue.obj
 0002:000058c0       $unwind$??_G?$_Ref_count@V?$basic_string@_WU?$char_traits@_W@std@@V?$allocator@_W@2@@std@@@std@@UEAAPEAXI@Z 000000018002a8c0     namevalue.obj
 0002:000058c0       $unwind$??_G?$_Ref_count@VNameValue@yloader@@@std@@UEAAPEAXI@Z 000000018002a8c0     namevalue.obj
 0002:000058c0       $unwind$?_Alloc_sentinel_and_proxy@?$_Tree@V?$_Tmap_traits@V?$basic_string@_WU?$char_traits@_W@std@@V?$allocator@_W@2@@std@@V?$shared_ptr@VNameValue@yloader@@@2@U?$less@V?$basic_string@_WU?$char_traits@_W@std@@V?$allocator@_W@2@@std@@@2@V?$allocator@U?$pair@$$CBV?$basic_string@_WU?$char_traits@_W@std@@V?$allocator@_W@2@@std@@V?$shared_ptr@VNameValue@yloader@@@2@@std@@@2@$00@std@@@std@@IEAAXXZ 000000018002a8c0     namevalue.obj
 0002:000058c0       $unwind$?_Destroy@?$_Ref_count@V?$basic_string@_WU?$char_traits@_W@std@@V?$allocator@_W@2@@std@@@std@@EEAAXXZ 000000018002a8c0     namevalue.obj
 0002:000058c0       $unwind$?_Destroy@?$_Ref_count@VNameValue@yloader@@@std@@EEAAXXZ 000000018002a8c0     namevalue.obj
 0002:000058c0       $unwind$?_Tidy@?$vector@V?$shared_ptr@VNameValue@yloader@@@std@@V?$allocator@V?$shared_ptr@VNameValue@yloader@@@std@@@2@@std@@AEAAXXZ 000000018002a8c0     namevalue.obj
 0002:000058c0       $unwind$?erase@?$_Tree@V?$_Tmap_traits@V?$basic_string@_WU?$char_traits@_W@std@@V?$allocator@_W@2@@std@@V?$shared_ptr@VNameValue@yloader@@@2@U?$less@V?$basic_string@_WU?$char_traits@_W@std@@V?$allocator@_W@2@@std@@@2@V?$allocator@U?$pair@$$CBV?$basic_string@_WU?$char_traits@_W@std@@V?$allocator@_W@2@@std@@V?$shared_ptr@VNameValue@yloader@@@2@@std@@@2@$00@std@@@std@@QEAA?AV?$_Tree_iterator@V?$_Tree_val@U?$_Tree_simple_types@U?$pair@$$CBV?$basic_string@_WU?$char_traits@_W@std@@V?$allocator@_W@2@@std@@V?$shared_ptr@VNameValue@yloader@@@2@@std@@@std@@@std@@@2@V?$_Tree_const_iterator@V?$_Tree_val@U?$_Tree_simple_types@U?$pair@$$CBV?$basic_string@_WU?$char_traits@_W@std@@V?$allocator@_W@2@@std@@V?$shared_ptr@VNameValue@yloader@@@2@@std@@@std@@@std@@@2@0@Z 000000018002a8c0     namevalue.obj
 0002:000058c0       $unwind$?extract@?$_Tree@V?$_Tmap_traits@V?$basic_string@_WU?$char_traits@_W@std@@V?$allocator@_W@2@@std@@V?$shared_ptr@VNameValue@yloader@@@2@U?$less@V?$basic_string@_WU?$char_traits@_W@std@@V?$allocator@_W@2@@std@@@2@V?$allocator@U?$pair@$$CBV?$basic_string@_WU?$char_traits@_W@std@@V?$allocator@_W@2@@std@@V?$shared_ptr@VNameValue@yloader@@@2@@std@@@2@$00@std@@@std@@QEAA?AV?$_Node_handle@U?$_Tree_node@U?$pair@$$CBV?$basic_string@_WU?$char_traits@_W@std@@V?$allocator@_W@2@@std@@V?$shared_ptr@VNameValue@yloader@@@2@@std@@PEAX@std@@V?$allocator@U?$pair@$$CBV?$basic_string@_WU?$char_traits@_W@std@@V?$allocator@_W@2@@std@@V?$shared_ptr@VNameValue@yloader@@@2@@std@@@2@U_Node_handle_map_base@2@V?$basic_string@_WU?$char_traits@_W@std@@V?$allocator@_W@2@@2@V?$shared_ptr@VNameValue@yloader@@@2@@2@V?$_Tree_const_iterator@V?$_Tree_val@U?$_Tree_simple_types@U?$pair@$$CBV?$basic_string@_WU?$char_traits@_W@std@@V?$allocator@_W@2@@std@@V?$shared_ptr@VNameValue@yloader@@@2@@std@@@std@@@std@@@2@@Z 000000018002a8c0     namevalue.obj
 0002:000058c0       $unwind$?insert@?$_Tree@V?$_Tmap_traits@V?$basic_string@_WU?$char_traits@_W@std@@V?$allocator@_W@2@@std@@V?$shared_ptr@VNameValue@yloader@@@2@U?$less@V?$basic_string@_WU?$char_traits@_W@std@@V?$allocator@_W@2@@std@@@2@V?$allocator@U?$pair@$$CBV?$basic_string@_WU?$char_traits@_W@std@@V?$allocator@_W@2@@std@@V?$shared_ptr@VNameValue@yloader@@@2@@std@@@2@$00@std@@@std@@QEAA?AV?$_Tree_iterator@V?$_Tree_val@U?$_Tree_simple_types@U?$pair@$$CBV?$basic_string@_WU?$char_traits@_W@std@@V?$allocator@_W@2@@std@@V?$shared_ptr@VNameValue@yloader@@@2@@std@@@std@@@std@@@2@V?$_Tree_const_iterator@V?$_Tree_val@U?$_Tree_simple_types@U?$pair@$$CBV?$basic_string@_WU?$char_traits@_W@std@@V?$allocator@_W@2@@std@@V?$shared_ptr@VNameValue@yloader@@@2@@std@@@std@@@std@@@2@AEBU?$pair@$$CBV?$basic_string@_WU?$char_traits@_W@std@@V?$allocator@_W@2@@std@@V?$shared_ptr@VNameValue@yloader@@@2@@2@@Z 000000018002a8c0     namevalue.obj
 0002:000058c0       $unwind$__raise_securityfailure 000000018002a8c0     MSVCRT:gs_report.obj
 0002:000058c0       $unwind$??2@YAPEAX_K@Z     000000018002a8c0     MSVCRT:new_scalar.obj
 0002:000058c0       $unwind$??_Gtype_info@@UEAAPEAXI@Z 000000018002a8c0     MSVCRT:std_type_info_static.obj
 0002:000058c0       $unwind$_Init_thread_abort 000000018002a8c0     MSVCRT:thread_safe_statics.obj
 0002:000058c0       $unwind$_Init_thread_footer 000000018002a8c0     MSVCRT:thread_safe_statics.obj
 0002:000058c0       $unwind$_Init_thread_header 000000018002a8c0     MSVCRT:thread_safe_statics.obj
 0002:000058c0       $unwind$_Init_thread_wait  000000018002a8c0     MSVCRT:thread_safe_statics.obj
 0002:000058c0       $unwind$__scrt_initialize_crt 000000018002a8c0     MSVCRT:utility.obj
 0002:000058c0       $unwind$__scrt_initialize_onexit_tables 000000018002a8c0     MSVCRT:utility.obj
 0002:000058c0       $unwind$__scrt_release_startup_lock 000000018002a8c0     MSVCRT:utility.obj
 0002:000058c0       $unwind$__scrt_uninitialize_crt 000000018002a8c0     MSVCRT:utility.obj
 0002:000058c0       $unwind$_onexit            000000018002a8c0     MSVCRT:utility.obj
 0002:000058c0       $unwind$??__F_Fac_tidy_reg@std@@YAXXZ 000000018002a8c0     msvcprt:locale0_implib.obj
 0002:000058c0       $unwind$?_Facet_Register@std@@YAXPEAV_Facet_base@1@@Z 000000018002a8c0     msvcprt:locale0_implib.obj
 0002:000058c0       $unwind$?name_once_mutex@detail@boost@@YAXPEADPEAX@Z 000000018002a8c0     libboost_thread-vc142-mt-x64-1_80:thread.obj
 0002:000058c8       $unwind$??0?$pair@$$CBDU?$string_parse_tree@D@date_time@boost@@@std@@QEAA@$$QEAU01@@Z 000000018002a8c8     misc.obj
 0002:000058c8       $unwind$??0?$wrapexcept@Vbad_format_string@io@boost@@@boost@@QEAA@AEBVbad_format_string@io@1@@Z 000000018002a8c8     misc.obj
 0002:000058c8       $unwind$??0?$wrapexcept@Vbad_lexical_cast@boost@@@boost@@QEAA@AEBVbad_lexical_cast@1@@Z 000000018002a8c8     misc.obj
 0002:000058c8       $unwind$??0?$wrapexcept@Vtoo_few_args@io@boost@@@boost@@QEAA@AEBVtoo_few_args@io@1@@Z 000000018002a8c8     misc.obj
 0002:000058c8       $unwind$??0?$wrapexcept@Vtoo_many_args@io@boost@@@boost@@QEAA@AEBVtoo_many_args@io@1@@Z 000000018002a8c8     misc.obj
 0002:000058c8       $unwind$??0bad_alloc_@exception_detail@boost@@QEAA@AEBU012@@Z 000000018002a8c8     misc.obj
 0002:000058c8       $unwind$??0bad_exception_@exception_detail@boost@@QEAA@AEBU012@@Z 000000018002a8c8     misc.obj
 0002:000058c8       $unwind$??0bad_format_string@io@boost@@QEAA@AEBV012@@Z 000000018002a8c8     misc.obj
 0002:000058c8       $unwind$??0bad_lexical_cast@boost@@QEAA@AEBV01@@Z 000000018002a8c8     misc.obj
 0002:000058c8       $unwind$??0exception@boost@@QEAA@AEBV01@@Z 000000018002a8c8     misc.obj
 0002:000058c8       $unwind$??0too_few_args@io@boost@@QEAA@AEBV012@@Z 000000018002a8c8     misc.obj
 0002:000058c8       $unwind$??0too_many_args@io@boost@@QEAA@AEBV012@@Z 000000018002a8c8     misc.obj
 0002:000058c8       $unwind$??1?$_Uninitialized_backout_al@V?$allocator@U?$format_item@_WU?$char_traits@_W@std@@V?$allocator@_W@2@@detail@io@boost@@@std@@@std@@QEAA@XZ 000000018002a8c8     misc.obj
 0002:000058c8       $unwind$??1?$token_iterator@Voffset_separator@boost@@V?$_String_const_iterator@V?$_String_val@U?$_Simple_types@D@std@@@std@@@std@@V?$basic_string@DU?$char_traits@D@std@@V?$allocator@D@2@@4@@boost@@QEAA@XZ 000000018002a8c8     misc.obj
 0002:000058c8       $unwind$??1DateException@yloader@@QEAA@XZ 000000018002a8c8     misc.obj
 0002:000058c8       $unwind$??_G?$basic_altstringbuf@_WU?$char_traits@_W@std@@V?$allocator@_W@2@@io@boost@@UEAAPEAXI@Z 000000018002a8c8     misc.obj
 0002:000058c8       $unwind$??_G?$basic_stringbuf@DU?$char_traits@D@std@@V?$allocator@D@2@@std@@UEAAPEAXI@Z 000000018002a8c8     misc.obj
 0002:000058c8       $unwind$??_G?$basic_stringbuf@_WU?$char_traits@_W@std@@V?$allocator@_W@2@@std@@UEAAPEAXI@Z 000000018002a8c8     misc.obj
 0002:000058c8       $unwind$??_G?$clone_impl@Ubad_alloc_@exception_detail@boost@@@exception_detail@boost@@UEAAPEAXI@Z 000000018002a8c8     misc.obj
 0002:000058c8       $unwind$??_G?$clone_impl@Ubad_exception_@exception_detail@boost@@@exception_detail@boost@@UEAAPEAXI@Z 000000018002a8c8     misc.obj
 0002:000058c8       $unwind$??_G?$numpunct@D@std@@MEAAPEAXI@Z 000000018002a8c8     misc.obj
 0002:000058c8       $unwind$??_G?$numpunct@_W@std@@MEAAPEAXI@Z 000000018002a8c8     misc.obj
 0002:000058c8       $unwind$??_Gbad_alloc@std@@UEAAPEAXI@Z 000000018002a8c8     misc.obj
 0002:000058c8       $unwind$??_Gbad_array_new_length@std@@UEAAPEAXI@Z 000000018002a8c8     misc.obj
 0002:000058c8       $unwind$??_Gbad_cast@std@@UEAAPEAXI@Z 000000018002a8c8     misc.obj
 0002:000058c8       $unwind$??_Gbad_day_of_month@gregorian@boost@@UEAAPEAXI@Z 000000018002a8c8     misc.obj
 0002:000058c8       $unwind$??_Gbad_exception@std@@UEAAPEAXI@Z 000000018002a8c8     misc.obj
 0002:000058c8       $unwind$??_Gbad_format_string@io@boost@@UEAAPEAXI@Z 000000018002a8c8     misc.obj
 0002:000058c8       $unwind$??_Gbad_lexical_cast@boost@@UEAAPEAXI@Z 000000018002a8c8     misc.obj
 0002:000058c8       $unwind$??_Gbad_month@gregorian@boost@@UEAAPEAXI@Z 000000018002a8c8     misc.obj
 0002:000058c8       $unwind$??_Gbad_year@gregorian@boost@@UEAAPEAXI@Z 000000018002a8c8     misc.obj
 0002:000058c8       $unwind$??_Gexception@std@@UEAAPEAXI@Z 000000018002a8c8     misc.obj
 0002:000058c8       $unwind$??_Gformat_error@io@boost@@UEAAPEAXI@Z 000000018002a8c8     misc.obj
 0002:000058c8       $unwind$??_Glogic_error@std@@UEAAPEAXI@Z 000000018002a8c8     misc.obj
 0002:000058c8       $unwind$??_Gout_of_range@std@@UEAAPEAXI@Z 000000018002a8c8     misc.obj
 0002:000058c8       $unwind$??_Gruntime_error@std@@UEAAPEAXI@Z 000000018002a8c8     misc.obj
 0002:000058c8       $unwind$??_Gtoo_few_args@io@boost@@UEAAPEAXI@Z 000000018002a8c8     misc.obj
 0002:000058c8       $unwind$??_Gtoo_many_args@io@boost@@UEAAPEAXI@Z 000000018002a8c8     misc.obj
 0002:000058c8       $unwind$?create_time@?$second_clock@Vptime@posix_time@boost@@@date_time@boost@@CA?AVptime@posix_time@3@PEAUtm@@@Z 000000018002a8c8     misc.obj
 0002:000058c8       $unwind$?makeMaxDate@DateAbstr@yloader@@SA?AV?$shared_ptr@VDateAbstr@yloader@@@std@@XZ 000000018002a8c8     misc.obj
 0002:000058c8       $unwind$?makeMaxDateTime@DateTimeAbstr@yloader@@SA?AV?$shared_ptr@VDateTimeAbstr@yloader@@@std@@XZ 000000018002a8c8     misc.obj
 0002:000058c8       $unwind$??$_Copy@U_Copy_tag@?$_Tree@V?$_Tmap_traits@V?$basic_string@_WU?$char_traits@_W@std@@V?$allocator@_W@2@@std@@V?$shared_ptr@VNameValue@yloader@@@2@U?$less@V?$basic_string@_WU?$char_traits@_W@std@@V?$allocator@_W@2@@std@@@2@V?$allocator@U?$pair@$$CBV?$basic_string@_WU?$char_traits@_W@std@@V?$allocator@_W@2@@std@@V?$shared_ptr@VNameValue@yloader@@@2@@std@@@2@$00@std@@@std@@@?$_Tree@V?$_Tmap_traits@V?$basic_string@_WU?$char_traits@_W@std@@V?$allocator@_W@2@@std@@V?$shared_ptr@VNameValue@yloader@@@2@U?$less@V?$basic_string@_WU?$char_traits@_W@std@@V?$allocator@_W@2@@std@@@2@V?$allocator@U?$pair@$$CBV?$basic_string@_WU?$char_traits@_W@std@@V?$allocator@_W@2@@std@@V?$shared_ptr@VNameValue@yloader@@@2@@std@@@2@$00@std@@@std@@IEAAXAEBV01@U_Copy_tag@01@@Z 000000018002a8c8     namevalue.obj
 0002:000058c8       $unwind$??$_Copy@U_Move_tag@?$_Tree@V?$_Tmap_traits@V?$basic_string@_WU?$char_traits@_W@std@@V?$allocator@_W@2@@std@@V?$shared_ptr@VNameValue@yloader@@@2@U?$less@V?$basic_string@_WU?$char_traits@_W@std@@V?$allocator@_W@2@@std@@@2@V?$allocator@U?$pair@$$CBV?$basic_string@_WU?$char_traits@_W@std@@V?$allocator@_W@2@@std@@V?$shared_ptr@VNameValue@yloader@@@2@@std@@@2@$00@std@@@std@@@?$_Tree@V?$_Tmap_traits@V?$basic_string@_WU?$char_traits@_W@std@@V?$allocator@_W@2@@std@@V?$shared_ptr@VNameValue@yloader@@@2@U?$less@V?$basic_string@_WU?$char_traits@_W@std@@V?$allocator@_W@2@@std@@@2@V?$allocator@U?$pair@$$CBV?$basic_string@_WU?$char_traits@_W@std@@V?$allocator@_W@2@@std@@V?$shared_ptr@VNameValue@yloader@@@2@@std@@@2@$00@std@@@std@@IEAAXAEBV01@U_Move_tag@01@@Z 000000018002a8c8     namevalue.obj
 0002:000058c8       $unwind$??0?$_Tree@V?$_Tmap_traits@V?$basic_string@_WU?$char_traits@_W@std@@V?$allocator@_W@2@@std@@V?$shared_ptr@VNameValue@yloader@@@2@U?$less@V?$basic_string@_WU?$char_traits@_W@std@@V?$allocator@_W@2@@std@@@2@V?$allocator@U?$pair@$$CBV?$basic_string@_WU?$char_traits@_W@std@@V?$allocator@_W@2@@std@@V?$shared_ptr@VNameValue@yloader@@@2@@std@@@2@$00@std@@@std@@QEAA@$$QEAV01@@Z 000000018002a8c8     namevalue.obj
 0002:000058c8       $unwind$??0?$_Tree@V?$_Tmap_traits@V?$basic_string@_WU?$char_traits@_W@std@@V?$allocator@_W@2@@std@@V?$shared_ptr@VNameValue@yloader@@@2@U?$less@V?$basic_string@_WU?$char_traits@_W@std@@V?$allocator@_W@2@@std@@@2@V?$allocator@U?$pair@$$CBV?$basic_string@_WU?$char_traits@_W@std@@V?$allocator@_W@2@@std@@V?$shared_ptr@VNameValue@yloader@@@2@@std@@@2@$00@std@@@std@@QEAA@$$QEAV01@AEBV?$allocator@U?$pair@$$CBV?$basic_string@_WU?$char_traits@_W@std@@V?$allocator@_W@2@@std@@V?$shared_ptr@VNameValue@yloader@@@2@@std@@@1@@Z 000000018002a8c8     namevalue.obj
 0002:000058c8       $unwind$??0?$multimap@V?$basic_string@_WU?$char_traits@_W@std@@V?$allocator@_W@2@@std@@V?$shared_ptr@VNameValue@yloader@@@2@U?$less@V?$basic_string@_WU?$char_traits@_W@std@@V?$allocator@_W@2@@std@@@2@V?$allocator@U?$pair@$$CBV?$basic_string@_WU?$char_traits@_W@std@@V?$allocator@_W@2@@std@@V?$shared_ptr@VNameValue@yloader@@@2@@std@@@2@@std@@QEAA@$$QEAV01@@Z 000000018002a8c8     namevalue.obj
 0002:000058c8       $unwind$??0?$multimap@V?$basic_string@_WU?$char_traits@_W@std@@V?$allocator@_W@2@@std@@V?$shared_ptr@VNameValue@yloader@@@2@U?$less@V?$basic_string@_WU?$char_traits@_W@std@@V?$allocator@_W@2@@std@@@2@V?$allocator@U?$pair@$$CBV?$basic_string@_WU?$char_traits@_W@std@@V?$allocator@_W@2@@std@@V?$shared_ptr@VNameValue@yloader@@@2@@std@@@2@@std@@QEAA@$$QEAV01@AEBV?$allocator@U?$pair@$$CBV?$basic_string@_WU?$char_traits@_W@std@@V?$allocator@_W@2@@std@@V?$shared_ptr@VNameValue@yloader@@@2@@std@@@1@@Z 000000018002a8c8     namevalue.obj
 0002:000058c8       $unwind$??0NameValueMap@yloader@@QEAA@XZ 000000018002a8c8     namevalue.obj
 0002:000058c8       $unwind$??1?$pair@V?$basic_string@_WU?$char_traits@_W@std@@V?$allocator@_W@2@@std@@V12@@std@@QEAA@XZ 000000018002a8c8     namevalue.obj
 0002:000058c8       $unwind$??4?$_Tree@V?$_Tmap_traits@V?$basic_string@_WU?$char_traits@_W@std@@V?$allocator@_W@2@@std@@V?$shared_ptr@VNameValue@yloader@@@2@U?$less@V?$basic_string@_WU?$char_traits@_W@std@@V?$allocator@_W@2@@std@@@2@V?$allocator@U?$pair@$$CBV?$basic_string@_WU?$char_traits@_W@std@@V?$allocator@_W@2@@std@@V?$shared_ptr@VNameValue@yloader@@@2@@std@@@2@$00@std@@@std@@QEAAAEAV01@$$QEAV01@@Z 000000018002a8c8     namevalue.obj
 0002:000058c8       $unwind$??4?$multimap@V?$basic_string@_WU?$char_traits@_W@std@@V?$allocator@_W@2@@std@@V?$shared_ptr@VNameValue@yloader@@@2@U?$less@V?$basic_string@_WU?$char_traits@_W@std@@V?$allocator@_W@2@@std@@@2@V?$allocator@U?$pair@$$CBV?$basic_string@_WU?$char_traits@_W@std@@V?$allocator@_W@2@@std@@V?$shared_ptr@VNameValue@yloader@@@2@@std@@@2@@std@@QEAAAEAV01@$$QEAV01@@Z 000000018002a8c8     namevalue.obj
 0002:000058c8       $unwind$?_Buy_raw@?$vector@V?$shared_ptr@VNameValue@yloader@@@std@@V?$allocator@V?$shared_ptr@VNameValue@yloader@@@std@@@2@@std@@AEAAX_K@Z 000000018002a8c8     namevalue.obj
 0002:000058c8       $unwind$?_Erase_unchecked@?$_Tree@V?$_Tmap_traits@V?$basic_string@_WU?$char_traits@_W@std@@V?$allocator@_W@2@@std@@V?$shared_ptr@VNameValue@yloader@@@2@U?$less@V?$basic_string@_WU?$char_traits@_W@std@@V?$allocator@_W@2@@std@@@2@V?$allocator@U?$pair@$$CBV?$basic_string@_WU?$char_traits@_W@std@@V?$allocator@_W@2@@std@@V?$shared_ptr@VNameValue@yloader@@@2@@std@@@2@$00@std@@@std@@AEAAPEAU?$_Tree_node@U?$pair@$$CBV?$basic_string@_WU?$char_traits@_W@std@@V?$allocator@_W@2@@std@@V?$shared_ptr@VNameValue@yloader@@@2@@std@@PEAX@2@V?$_Tree_unchecked_const_iterator@V?$_Tree_val@U?$_Tree_simple_types@U?$pair@$$CBV?$basic_string@_WU?$char_traits@_W@std@@V?$allocator@_W@2@@std@@V?$shared_ptr@VNameValue@yloader@@@2@@std@@@std@@@std@@U_Iterator_base0@2@@2@@Z 000000018002a8c8     namevalue.obj
 0002:000058c8       $unwind$?_Move_assign@?$_Tree@V?$_Tmap_traits@V?$basic_string@_WU?$char_traits@_W@std@@V?$allocator@_W@2@@std@@V?$shared_ptr@VNameValue@yloader@@@2@U?$less@V?$basic_string@_WU?$char_traits@_W@std@@V?$allocator@_W@2@@std@@@2@V?$allocator@U?$pair@$$CBV?$basic_string@_WU?$char_traits@_W@std@@V?$allocator@_W@2@@std@@V?$shared_ptr@VNameValue@yloader@@@2@@std@@@2@$00@std@@@std@@AEAAXAEAV12@U?$integral_constant@_N$00@2@@Z 000000018002a8c8     namevalue.obj
 0002:000058c8       $unwind$?_Move_assign@?$_Tree@V?$_Tmap_traits@V?$basic_string@_WU?$char_traits@_W@std@@V?$allocator@_W@2@@std@@V?$shared_ptr@VNameValue@yloader@@@2@U?$less@V?$basic_string@_WU?$char_traits@_W@std@@V?$allocator@_W@2@@std@@@2@V?$allocator@U?$pair@$$CBV?$basic_string@_WU?$char_traits@_W@std@@V?$allocator@_W@2@@std@@V?$shared_ptr@VNameValue@yloader@@@2@@std@@@2@$00@std@@@std@@AEAAXAEAV12@U?$integral_constant@_N$0A@@2@@Z 000000018002a8c8     namevalue.obj
 0002:000058c8       $unwind$?_Move_assign@?$_Tree@V?$_Tmap_traits@V?$basic_string@_WU?$char_traits@_W@std@@V?$allocator@_W@2@@std@@V?$shared_ptr@VNameValue@yloader@@@2@U?$less@V?$basic_string@_WU?$char_traits@_W@std@@V?$allocator@_W@2@@std@@@2@V?$allocator@U?$pair@$$CBV?$basic_string@_WU?$char_traits@_W@std@@V?$allocator@_W@2@@std@@V?$shared_ptr@VNameValue@yloader@@@2@@std@@@2@$00@std@@@std@@AEAAXAEAV12@U_Equal_allocators@2@@Z 000000018002a8c8     namevalue.obj
 0002:000058c8       $unwind$_RTC_Initialize    000000018002a8c8     MSVCRT:initsect.obj
 0002:000058c8       $unwind$_RTC_Terminate     000000018002a8c8     MSVCRT:initsect.obj
 0002:000058c8       $unwind$?__scrt_initialize_thread_safe_statics@@YAHXZ 000000018002a8c8     MSVCRT:thread_safe_statics.obj
 0002:000058d4       $unwind$??$lexical_cast@FV?$basic_string@DU?$char_traits@D@std@@V?$allocator@D@2@@std@@@boost@@YAFAEBV?$basic_string@DU?$char_traits@D@std@@V?$allocator@D@2@@std@@@Z 000000018002a8d4     misc.obj
 0002:000058d4       $unwind$??$lexical_cast@GV?$basic_string@DU?$char_traits@D@std@@V?$allocator@D@2@@std@@@boost@@YAGAEBV?$basic_string@DU?$char_traits@D@std@@V?$allocator@D@2@@std@@@Z 000000018002a8d4     misc.obj
 0002:000058d4       $unwind$??$lexical_cast@HV?$basic_string@DU?$char_traits@D@std@@V?$allocator@D@2@@std@@@boost@@YAHAEBV?$basic_string@DU?$char_traits@D@std@@V?$allocator@D@2@@std@@@Z 000000018002a8d4     misc.obj
 0002:000058d4       $unwind$?_Throw_bad_array_new_length@std@@YAXXZ 000000018002a8d4     misc.obj
 0002:000058d4       $unwind$?_Throw_bad_cast@std@@YAXXZ 000000018002a8d4     misc.obj
 0002:000058d4       $unwind$?__scrt_throw_std_bad_alloc@@YAXXZ 000000018002a8d4     MSVCRT:throw_bad_alloc.obj
 0002:000058d4       $unwind$?__scrt_throw_std_bad_array_new_length@@YAXXZ 000000018002a8d4     MSVCRT:throw_bad_alloc.obj
 0002:000058dc       $unwind$??1locale@std@@QEAA@XZ 000000018002a8dc     misc.obj
 0002:000058dc       $unwind$??__E?e@?$exception_ptr_static_exception_object@Ubad_alloc_@exception_detail@boost@@@exception_detail@boost@@2Vexception_ptr@3@B@@YAXXZ 000000018002a8dc     misc.obj
 0002:000058dc       $unwind$??__E?e@?$exception_ptr_static_exception_object@Ubad_exception_@exception_detail@boost@@@exception_detail@boost@@2Vexception_ptr@3@B@@YAXXZ 000000018002a8dc     misc.obj
 0002:000058dc       $unwind$??__E?mx_@?$stdcat_mx_holder@X@detail@system@boost@@2Vmutex@std@@A@@YAXXZ 000000018002a8dc     misc.obj
 0002:000058dc       $unwind$??__Em@yloader@@YAXXZ 000000018002a8dc     misc.obj
 0002:000058dc       $unwind$??__Fmonth_map@?6???$month_str_to_ushort@Vgreg_month@gregorian@boost@@@date_time@boost@@YAGAEBV?$basic_string@DU?$char_traits@D@std@@V?$allocator@D@2@@std@@@Z@YAXXZ 000000018002a8dc     misc.obj
 0002:000058dc       $unwind$?_Throw_tree_length_error@std@@YAXXZ 000000018002a8dc     misc.obj
 0002:000058dc       $unwind$?_Xlen@?$vector@_NV?$allocator@_N@std@@@std@@QEBAXXZ 000000018002a8dc     misc.obj
 0002:000058dc       $unwind$?_Xlen_string@std@@YAXXZ 000000018002a8dc     misc.obj
 0002:000058dc       $unwind$?_Xlength@?$vector@HV?$allocator@H@std@@@std@@CAXXZ 000000018002a8dc     misc.obj
 0002:000058dc       $unwind$?_Xlength@?$vector@U?$format_item@_WU?$char_traits@_W@std@@V?$allocator@_W@2@@detail@io@boost@@V?$allocator@U?$format_item@_WU?$char_traits@_W@std@@V?$allocator@_W@2@@detail@io@boost@@@std@@@std@@CAXXZ 000000018002a8dc     misc.obj
 0002:000058dc       $unwind$?_Xlength@?$vector@V?$basic_string@DU?$char_traits@D@std@@V?$allocator@D@2@@std@@V?$allocator@V?$basic_string@DU?$char_traits@D@std@@V?$allocator@D@2@@std@@@2@@std@@CAXXZ 000000018002a8dc     misc.obj
 0002:000058dc       $unwind$?_Xlength@?$vector@V?$basic_string@_WU?$char_traits@_W@std@@V?$allocator@_W@2@@std@@V?$allocator@V?$basic_string@_WU?$char_traits@_W@std@@V?$allocator@_W@2@@std@@@2@@std@@CAXXZ 000000018002a8dc     misc.obj
 0002:000058dc       $unwind$?_Xran@?$_String_val@U?$_Simple_types@D@std@@@std@@SAXXZ 000000018002a8dc     misc.obj
 0002:000058dc       $unwind$?_Xran@?$_String_val@U?$_Simple_types@_W@std@@@std@@SAXXZ 000000018002a8dc     misc.obj
 0002:000058dc       $unwind$?allocate@?$allocator@U?$format_item@_WU?$char_traits@_W@std@@V?$allocator@_W@2@@detail@io@boost@@@std@@QEAAPEAU?$format_item@_WU?$char_traits@_W@std@@V?$allocator@_W@2@@detail@io@boost@@_K@Z 000000018002a8dc     misc.obj
 0002:000058dc       $unwind$?day@DateImpl@@UEBAGXZ 000000018002a8dc     misc.obj
 0002:000058dc       $unwind$?deallocate@?$allocator@U?$format_item@_WU?$char_traits@_W@std@@V?$allocator@_W@2@@detail@io@boost@@@std@@QEAAXQEAU?$format_item@_WU?$char_traits@_W@std@@V?$allocator@_W@2@@detail@io@boost@@_K@Z 000000018002a8dc     misc.obj
 0002:000058dc       $unwind$?deallocate@?$allocator@V?$basic_string@DU?$char_traits@D@std@@V?$allocator@D@2@@std@@@std@@QEAAXQEAV?$basic_string@DU?$char_traits@D@std@@V?$allocator@D@2@@2@_K@Z 000000018002a8dc     misc.obj
 0002:000058dc       $unwind$?get_local_deleter@?$sp_counted_impl_pd@PEAV?$basic_altstringbuf@_WU?$char_traits@_W@std@@V?$allocator@_W@2@@io@boost@@VNo_Op@?$basic_oaltstringstream@_WU?$char_traits@_W@std@@V?$allocator@_W@2@@23@@detail@boost@@UEAAPEAXAEBVtype_info@@@Z 000000018002a8dc     misc.obj
 0002:000058dc       $unwind$?is_negative@TimeDurationImpl@@UEBA_NXZ 000000018002a8dc     misc.obj
 0002:000058dc       $unwind$?month@DateImpl@@UEBAGXZ 000000018002a8dc     misc.obj
 0002:000058dc       $unwind$?week_number@DateImpl@@UEBAHXZ 000000018002a8dc     misc.obj
 0002:000058dc       $unwind$?year@DateImpl@@UEBAGXZ 000000018002a8dc     misc.obj
 0002:000058dc       $unwind$?_Check_grow_by_1@?$_Tree@V?$_Tmap_traits@V?$basic_string@_WU?$char_traits@_W@std@@V?$allocator@_W@2@@std@@V?$shared_ptr@VNameValue@yloader@@@2@U?$less@V?$basic_string@_WU?$char_traits@_W@std@@V?$allocator@_W@2@@std@@@2@V?$allocator@U?$pair@$$CBV?$basic_string@_WU?$char_traits@_W@std@@V?$allocator@_W@2@@std@@V?$shared_ptr@VNameValue@yloader@@@2@@std@@@2@$00@std@@@std@@IEAAXXZ 000000018002a8dc     namevalue.obj
 0002:000058dc       $unwind$?_Xlength@?$vector@V?$shared_ptr@VNameValue@yloader@@@std@@V?$allocator@V?$shared_ptr@VNameValue@yloader@@@std@@@2@@std@@CAXXZ 000000018002a8dc     namevalue.obj
 0002:000058dc       $unwind$__scrt_initialize_default_local_stdio_options 000000018002a8dc     MSVCRT:default_local_stdio_options.obj
 0002:000058dc       $unwind$?dllmain_crt_dispatch@@YAHQEAUHINSTANCE__@@KQEAX@Z 000000018002a8dc     MSVCRT:dll_dllmain.obj
 0002:000058dc       $unwind$__GSHandlerCheck   000000018002a8dc     MSVCRT:gshandler.obj
 0002:000058dc       $unwind$?__scrt_uninitialize_thread_safe_statics@@YAXXZ 000000018002a8dc     MSVCRT:thread_safe_statics.obj
 0002:000058dc       $unwind$_Init_thread_notify 000000018002a8dc     MSVCRT:thread_safe_statics.obj
 0002:000058dc       $unwind$__scrt_acquire_startup_lock 000000018002a8dc     MSVCRT:utility.obj
 0002:000058dc       $unwind$__scrt_dllmain_after_initialize_c 000000018002a8dc     MSVCRT:utility.obj
 0002:000058dc       $unwind$__scrt_dllmain_before_initialize_c 000000018002a8dc     MSVCRT:utility.obj
 0002:000058dc       $unwind$__scrt_dllmain_crt_thread_attach 000000018002a8dc     MSVCRT:utility.obj
 0002:000058dc       $unwind$__scrt_dllmain_crt_thread_detach 000000018002a8dc     MSVCRT:utility.obj
 0002:000058dc       $unwind$__scrt_dllmain_uninitialize_c 000000018002a8dc     MSVCRT:utility.obj
 0002:000058dc       $unwind$__scrt_dllmain_uninitialize_critical 000000018002a8dc     MSVCRT:utility.obj
 0002:000058dc       $unwind$atexit             000000018002a8dc     MSVCRT:utility.obj
 0002:000058dc       $unwind$?create_current_thread_tls_key@?A0x651aaad3@boost@@YAXXZ 000000018002a8dc     libboost_thread-vc142-mt-x64-1_80:thread.obj
 0002:000058dc       $unwind$?on_process_exit@boost@@YAXXZ 000000018002a8dc     libboost_thread-vc142-mt-x64-1_80:thread.obj
 0002:000058dc       $unwind$?on_process_init@?A0xb3d7cfe5@@YAXXZ 000000018002a8dc     libboost_thread-vc142-mt-x64-1_80:tss_pe.obj
 0002:000058e4       $unwind$??0bad_day_of_month@gregorian@boost@@QEAA@AEBV?$basic_string@DU?$char_traits@D@std@@V?$allocator@D@2@@std@@@Z 000000018002a8e4     misc.obj
 0002:000058e4       $unwind$??0runtime_error@std@@QEAA@PEBD@Z 000000018002a8e4     misc.obj
 0002:000058e4       $unwind$?to_epoch_time@DateTimeImpl@@UEBA_JXZ 000000018002a8e4     misc.obj
 0002:000058e4       $unwind$?equal_range@?$_Tree@V?$_Tmap_traits@V?$basic_string@_WU?$char_traits@_W@std@@V?$allocator@_W@2@@std@@V?$shared_ptr@VNameValue@yloader@@@2@U?$less@V?$basic_string@_WU?$char_traits@_W@std@@V?$allocator@_W@2@@std@@@2@V?$allocator@U?$pair@$$CBV?$basic_string@_WU?$char_traits@_W@std@@V?$allocator@_W@2@@std@@V?$shared_ptr@VNameValue@yloader@@@2@@std@@@2@$00@std@@@std@@QEAA?AU?$pair@V?$_Tree_iterator@V?$_Tree_val@U?$_Tree_simple_types@U?$pair@$$CBV?$basic_string@_WU?$char_traits@_W@std@@V?$allocator@_W@2@@std@@V?$shared_ptr@VNameValue@yloader@@@2@@std@@@std@@@std@@@std@@V12@@2@AEBV?$basic_string@_WU?$char_traits@_W@std@@V?$allocator@_W@2@@2@@Z 000000018002a8e4     namevalue.obj
 0002:000058e4       $unwind$?equal_range@?$_Tree@V?$_Tmap_traits@V?$basic_string@_WU?$char_traits@_W@std@@V?$allocator@_W@2@@std@@V?$shared_ptr@VNameValue@yloader@@@2@U?$less@V?$basic_string@_WU?$char_traits@_W@std@@V?$allocator@_W@2@@std@@@2@V?$allocator@U?$pair@$$CBV?$basic_string@_WU?$char_traits@_W@std@@V?$allocator@_W@2@@std@@V?$shared_ptr@VNameValue@yloader@@@2@@std@@@2@$00@std@@@std@@QEBA?AU?$pair@V?$_Tree_const_iterator@V?$_Tree_val@U?$_Tree_simple_types@U?$pair@$$CBV?$basic_string@_WU?$char_traits@_W@std@@V?$allocator@_W@2@@std@@V?$shared_ptr@VNameValue@yloader@@@2@@std@@@std@@@std@@@std@@V12@@2@AEBV?$basic_string@_WU?$char_traits@_W@std@@V?$allocator@_W@2@@2@@Z 000000018002a8e4     namevalue.obj
 0002:000058ec       $unwind$?name@locale@std@@QEBA?AV?$basic_string@DU?$char_traits@D@std@@V?$allocator@D@2@@2@XZ 000000018002a8ec     misc.obj
 0002:00005908       $cppxdata$?name@locale@std@@QEBA?AV?$basic_string@DU?$char_traits@D@std@@V?$allocator@D@2@@2@XZ 000000018002a908     misc.obj
 0002:00005911       $stateUnwindMap$??$?H_WU?$char_traits@_W@std@@V?$allocator@_W@1@@std@@YA?AV?$basic_string@_WU?$char_traits@_W@std@@V?$allocator@_W@2@@0@$$QEAV10@QEB_W@Z 000000018002a911     misc.obj
 0002:00005911       $stateUnwindMap$?name@locale@std@@QEBA?AV?$basic_string@DU?$char_traits@D@std@@V?$allocator@D@2@@2@XZ 000000018002a911     misc.obj
 0002:00005918       $ip2state$?name@locale@std@@QEBA?AV?$basic_string@DU?$char_traits@D@std@@V?$allocator@D@2@@2@XZ 000000018002a918     misc.obj
 0002:0000591c       $unwind$??8locale@std@@QEBA_NAEBV01@@Z 000000018002a91c     misc.obj
 0002:0000593c       $cppxdata$??8locale@std@@QEBA_NAEBV01@@Z 000000018002a93c     misc.obj
 0002:00005945       $stateUnwindMap$??8locale@std@@QEBA_NAEBV01@@Z 000000018002a945     misc.obj
 0002:00005950       $ip2state$??8locale@std@@QEBA_NAEBV01@@Z 000000018002a950     misc.obj
 0002:0000595c       $unwind$?dtor$0@?0???0?$basic_ostringstream@_WU?$char_traits@_W@std@@V?$allocator@_W@2@@std@@QEAA@XZ@4HA 000000018002a95c     misc.obj
 0002:0000595c       $unwind$?dtor$0@?0???0?$clone_impl@Ubad_alloc_@exception_detail@boost@@@exception_detail@boost@@QEAA@AEBV012@@Z@4HA 000000018002a95c     misc.obj
 0002:0000595c       $unwind$?dtor$0@?0???0?$clone_impl@Ubad_exception_@exception_detail@boost@@@exception_detail@boost@@QEAA@AEBV012@@Z@4HA 000000018002a95c     misc.obj
 0002:0000595c       $unwind$?dtor$0@?0???8locale@std@@QEBA_NAEBV01@@Z@4HA 000000018002a95c     misc.obj
 0002:0000595c       $unwind$?dtor$0@?0??_Getcat@?$numpunct@D@std@@SA_KPEAPEBVfacet@locale@2@PEBV42@@Z@4HA 000000018002a95c     misc.obj
 0002:0000595c       $unwind$?dtor$0@?0??_Getcat@?$numpunct@_W@std@@SA_KPEAPEBVfacet@locale@2@PEBV42@@Z@4HA 000000018002a95c     misc.obj
 0002:0000595c       $unwind$?dtor$0@?0??clone@?$clone_impl@Ubad_alloc_@exception_detail@boost@@@exception_detail@boost@@EEBAPEBVclone_base@23@XZ@4HA 000000018002a95c     misc.obj
 0002:0000595c       $unwind$?dtor$0@?0??clone@?$clone_impl@Ubad_exception_@exception_detail@boost@@@exception_detail@boost@@EEBAPEBVclone_base@23@XZ@4HA 000000018002a95c     misc.obj
 0002:0000595c       $unwind$?dtor$0@?0??clone@?$wrapexcept@Ubad_day_of_month@gregorian@boost@@@boost@@UEBAPEBVclone_base@exception_detail@2@XZ@4HA 000000018002a95c     misc.obj
 0002:0000595c       $unwind$?dtor$0@?0??clone@?$wrapexcept@Ubad_month@gregorian@boost@@@boost@@UEBAPEBVclone_base@exception_detail@2@XZ@4HA 000000018002a95c     misc.obj
 0002:0000595c       $unwind$?dtor$0@?0??clone@?$wrapexcept@Ubad_year@gregorian@boost@@@boost@@UEBAPEBVclone_base@exception_detail@2@XZ@4HA 000000018002a95c     misc.obj
 0002:0000595c       $unwind$?dtor$0@?0??clone@?$wrapexcept@Vbad_format_string@io@boost@@@boost@@UEBAPEBVclone_base@exception_detail@2@XZ@4HA 000000018002a95c     misc.obj
 0002:0000595c       $unwind$?dtor$0@?0??clone@?$wrapexcept@Vbad_lexical_cast@boost@@@boost@@UEBAPEBVclone_base@exception_detail@2@XZ@4HA 000000018002a95c     misc.obj
