 misc

 Timestamp is 667c5c79 (Wed Jun 26 12:22:49 2024)

 Preferred load address is 10000000

 Start         Length     Name                   Class
 0001:00000000 000000a0H .text$di                CODE
 0001:000000a0 00020290H .text$mn                CODE
 0001:00020330 00002960H .text$x                 CODE
 0001:00022c90 00000172H .text$yd                CODE
 0002:00000000 00000298H .idata$5                DATA
 0002:00000298 00000004H .00cfg                  DATA
 0002:0000029c 00000004H .CRT$XCA                DATA
 0002:000002a0 00000004H .CRT$XCL                DATA
 0002:000002a4 00000018H .CRT$XCU                DATA
 0002:000002bc 00000004H .CRT$XCZ                DATA
 0002:000002c0 00000004H .CRT$XIA                DATA
 0002:000002c4 00000004H .CRT$XIC                DATA
 0002:000002c8 00000004H .CRT$XIU                DATA
 0002:000002cc 00000004H .CRT$XIZ                DATA
 0002:000002d0 00000004H .CRT$XLA                DATA
 0002:000002d4 00000004H .CRT$XLC                DATA
 0002:000002d8 00000004H .CRT$XLZ                DATA
 0002:000002dc 00000004H .CRT$XPA                DATA
 0002:000002e0 00000004H .CRT$XPZ                DATA
 0002:000002e4 00000004H .CRT$XTA                DATA
 0002:000002e8 00000004H .CRT$XTU                DATA
 0002:000002ec 00000004H .CRT$XTZ                DATA
 0002:000002f0 00000000H .gfids$y                DATA
 0002:000002f0 00001450H .rdata                  DATA
 0002:00001740 00000000H .rdata$CastGuardVftablesA DATA
 0002:00001740 00000000H .rdata$CastGuardVftablesC DATA
 0002:00001740 00000018H .rdata$T                DATA
 0002:00001758 00001c94H .rdata$r                DATA
 0002:000033ec 000002d0H .rdata$sxdata           DATA
 0002:000036bc 00000044H .rdata$voltmd           DATA
 0002:00003700 00000414H .rdata$zzzdbg           DATA
 0002:00003b14 00000004H .rtc$IAA                DATA
 0002:00003b18 00000004H .rtc$IZZ                DATA
 0002:00003b1c 00000004H .rtc$TAA                DATA
 0002:00003b20 00000004H .rtc$TZZ                DATA
 0002:00003b24 00000004H .tls                    DATA
 0002:00003b28 00000004H .tls$                   DATA
 0002:00003b2c 00000004H .tls$ZZZ                DATA
 0002:00003b30 00003e80H .xdata$x                DATA
 0002:000079b0 0000ce50H .edata                  DATA
 0002:00014800 000000b4H .idata$2                DATA
 0002:000148b4 00000014H .idata$3                DATA
 0002:000148c8 00000298H .idata$4                DATA
 0002:00014b60 00001760H .idata$6                DATA
 0003:00000000 00000030H .data                   DATA
 0003:00000030 00000898H .data$r                 DATA
 0003:000008c8 00000a60H .data$rs                DATA
 0003:00001328 000005b0H .bss                    DATA
 0004:00000000 000000a0H .rsrc$01                DATA
 0004:000000a0 000004d8H .rsrc$02                DATA

  Address         Publics by Value              Rva+Base       Lib:Object

 0000:00000000       ___arm64x_native_entrypoint 00000000     <absolute>
 0000:00000000       ___guard_longjmp_table     00000000     <absolute>
 0000:00000000       ___arm64x_extra_rfe_table  00000000     <absolute>
 0000:00000000       ___arm64x_redirection_metadata 00000000     <absolute>
 0000:00000000       ___guard_eh_cont_table     00000000     <absolute>
 0000:00000000       ___guard_eh_cont_count     00000000     <absolute>
 0000:00000000       ___guard_iat_count         00000000     <absolute>
 0000:00000000       ___hybrid_code_map_count   00000000     <absolute>
 0000:00000000       ___x64_code_ranges_to_entry_points 00000000     <absolute>
 0000:00000000       ___x64_code_ranges_to_entry_points_count 00000000     <absolute>
 0000:00000000       ___guard_iat_table         00000000     <absolute>
 0000:00000000       ___guard_fids_count        00000000     <absolute>
 0000:00000000       ___hybrid_code_map         00000000     <absolute>
 0000:00000000       ___arm64x_extra_rfe_table_size 00000000     <absolute>
 0000:00000000       ___guard_longjmp_count     00000000     <absolute>
 0000:00000000       ___guard_check_icall_a64n_fptr 00000000     <absolute>
 0000:00000000       ___arm64x_redirection_metadata_count 00000000     <absolute>
 0000:00000000       ___hybrid_auxiliary_iat    00000000     <absolute>
 0000:00000000       ___dynamic_value_reloc_table 00000000     <absolute>
 0000:00000000       ___AbsoluteZero            00000000     <absolute>
 0000:00000000       ___enclave_config          00000000     <absolute>
 0000:00000000       ___guard_fids_table        00000000     <absolute>
 0000:00000000       ___hybrid_auxiliary_iat_copy 00000000     <absolute>
 0000:0000002c       __tls_array                0000002c     <absolute>
 0000:000000b4       ___safe_se_handler_count   000000b4     <absolute>
 0000:00000100       ___guard_flags             00000100     <absolute>
 0000:00000000       ___ImageBase               10000000     <linker-defined>
 0001:000000a0       ___local_stdio_printf_options 100010a0 f i misc.obj
 0001:000000b0       ??0exception@std@@QAE@ABV01@@Z 100010b0 f i misc.obj
 0001:000000e0       ?what@exception@std@@UBEPBDXZ 100010e0 f i misc.obj
 0001:000000f0       ??_Gbad_alloc@std@@UAEPAXI@Z 100010f0 f i misc.obj
 0001:000000f0       ??_Ebad_day_of_month@gregorian@boost@@UAEPAXI@Z 100010f0 f i * CIL library *:* CIL module *
 0001:000000f0       ??_Ebad_year@gregorian@boost@@UAEPAXI@Z 100010f0 f i * CIL library *:* CIL module *
 0001:000000f0       ??_Gbad_month@gregorian@boost@@UAEPAXI@Z 100010f0 f i misc.obj
 0001:000000f0       ??_Gruntime_error@std@@UAEPAXI@Z 100010f0 f i misc.obj
 0001:000000f0       ??_Gout_of_range@std@@UAEPAXI@Z 100010f0 f i misc.obj
 0001:000000f0       ??_Gbad_exception@std@@UAEPAXI@Z 100010f0 f i misc.obj
 0001:000000f0       ??_Ebad_array_new_length@std@@UAEPAXI@Z 100010f0 f i * CIL library *:* CIL module *
 0001:000000f0       ??_Eformat_error@io@boost@@UAEPAXI@Z 100010f0 f i * CIL library *:* CIL module *
 0001:000000f0       ??_Ebad_exception@std@@UAEPAXI@Z 100010f0 f i * CIL library *:* CIL module *
 0001:000000f0       ??_Gbad_day_of_month@gregorian@boost@@UAEPAXI@Z 100010f0 f i misc.obj
 0001:000000f0       ??_Ebad_alloc@std@@UAEPAXI@Z 100010f0 f i * CIL library *:* CIL module *
 0001:000000f0       ??_Ebad_month@gregorian@boost@@UAEPAXI@Z 100010f0 f i * CIL library *:* CIL module *
 0001:000000f0       ??_Eout_of_range@std@@UAEPAXI@Z 100010f0 f i * CIL library *:* CIL module *
 0001:000000f0       ??_Gformat_error@io@boost@@UAEPAXI@Z 100010f0 f i misc.obj
 0001:000000f0       ??_Gbad_year@gregorian@boost@@UAEPAXI@Z 100010f0 f i misc.obj
 0001:000000f0       ??_Eruntime_error@std@@UAEPAXI@Z 100010f0 f i * CIL library *:* CIL module *
 0001:000000f0       ??_Ebad_cast@std@@UAEPAXI@Z 100010f0 f i * CIL library *:* CIL module *
 0001:000000f0       ??_Glogic_error@std@@UAEPAXI@Z 100010f0 f i misc.obj
 0001:000000f0       ??_Gbad_cast@std@@UAEPAXI@Z 100010f0 f i misc.obj
 0001:000000f0       ??_Gexception@std@@UAEPAXI@Z 100010f0 f i misc.obj
 0001:000000f0       ??_Eexception@std@@UAEPAXI@Z 100010f0 f i * CIL library *:* CIL module *
 0001:000000f0       ??_Gbad_array_new_length@std@@UAEPAXI@Z 100010f0 f i misc.obj
 0001:000000f0       ??_Elogic_error@std@@UAEPAXI@Z 100010f0 f i * CIL library *:* CIL module *
 0001:00000120       ??0bad_alloc@std@@QAE@XZ   10001120 f i misc.obj
 0001:00000140       ??1bad_format_string@io@boost@@UAE@XZ 10001140 f i misc.obj
 0001:00000140       ??1runtime_error@std@@UAE@XZ 10001140 f i misc.obj
 0001:00000140       ??1bad_year@gregorian@boost@@UAE@XZ 10001140 f i misc.obj
 0001:00000140       ??1bad_cast@std@@UAE@XZ    10001140 f i misc.obj
 0001:00000140       ??1bad_lexical_cast@boost@@UAE@XZ 10001140 f i misc.obj
 0001:00000140       ??1bad_month@gregorian@boost@@UAE@XZ 10001140 f i misc.obj
 0001:00000140       ??1bad_alloc@std@@UAE@XZ   10001140 f i misc.obj
 0001:00000140       ??1bad_day_of_month@gregorian@boost@@UAE@XZ 10001140 f i misc.obj
 0001:00000140       ??1too_many_args@io@boost@@UAE@XZ 10001140 f i misc.obj
 0001:00000140       ??1too_few_args@io@boost@@UAE@XZ 10001140 f i misc.obj
 0001:00000140       ??1bad_array_new_length@std@@UAE@XZ 10001140 f i misc.obj
 0001:00000160       ??0bad_array_new_length@std@@QAE@XZ 10001160 f i misc.obj
 0001:00000180       ?_Throw_bad_array_new_length@std@@YAXXZ 10001180 f i misc.obj
 0001:000001a0       ??0bad_array_new_length@std@@QAE@ABV01@@Z 100011a0 f i misc.obj
 0001:000001e0       ??0bad_alloc@std@@QAE@ABV01@@Z 100011e0 f i misc.obj
 0001:00000220       ?_Xlen_string@std@@YAXXZ   10001220 f i misc.obj
 0001:00000230       ??0runtime_error@std@@QAE@PBD@Z 10001230 f i misc.obj
 0001:00000280       ??0runtime_error@std@@QAE@ABV01@@Z 10001280 f i misc.obj
 0001:000002c0       ??0bad_cast@std@@QAE@XZ    100012c0 f i misc.obj
 0001:000002e0       ?_Throw_bad_cast@std@@YAXXZ 100012e0 f i misc.obj
 0001:00000300       ??0bad_cast@std@@QAE@ABV01@@Z 10001300 f i misc.obj
 0001:00000340       ?get_deleter@?$sp_counted_impl_p@V?$clone_impl@Ubad_exception_@exception_detail@boost@@@exception_detail@boost@@@detail@boost@@UAEPAXABVtype_info@@@Z 10001340 f i misc.obj
 0001:00000340       ?get_local_deleter@?$sp_counted_impl_p@V?$clone_impl@Ubad_exception_@exception_detail@boost@@@exception_detail@boost@@@detail@boost@@UAEPAXABVtype_info@@@Z 10001340 f i misc.obj
 0001:00000340       ?_Get_deleter@_Ref_count_base@std@@UBEPAXABVtype_info@@@Z 10001340 f i misc.obj
 0001:00000340       ?get_deleter@?$sp_counted_impl_p@V?$clone_impl@Ubad_alloc_@exception_detail@boost@@@exception_detail@boost@@@detail@boost@@UAEPAXABVtype_info@@@Z 10001340 f i misc.obj
 0001:00000340       ?get_local_deleter@?$sp_counted_impl_p@V?$clone_impl@Ubad_alloc_@exception_detail@boost@@@exception_detail@boost@@@detail@boost@@UAEPAXABVtype_info@@@Z 10001340 f i misc.obj
 0001:00000350       ??1locale@std@@QAE@XZ      10001350 f i misc.obj
 0001:00000370       ?name@locale@std@@QBE?AV?$basic_string@DU?$char_traits@D@std@@V?$allocator@D@2@@2@XZ 10001370 f i misc.obj
 0001:00000500       ??8locale@std@@QBE_NABV01@@Z 10001500 f i misc.obj
 0001:000006d0       ??$_Maklocstr@_W@std@@YAPA_WPBDPA_WABU_Cvtvec@@@Z 100016d0 f i misc.obj
 0001:00000790       ??1clone_base@exception_detail@boost@@UAE@XZ 10001790 f i misc.obj
 0001:000007a0       ??_Eclone_base@exception_detail@boost@@UAEPAXI@Z 100017a0 f i * CIL library *:* CIL module *
 0001:000007a0       ??_Gclone_base@exception_detail@boost@@UAEPAXI@Z 100017a0 f i misc.obj
 0001:000007d0       ?copy_boost_exception@exception_detail@boost@@YAXPAVexception@2@PBV32@@Z 100017d0 f i misc.obj
 0001:000008a0       ??0bad_day_of_month@gregorian@boost@@QAE@XZ 100018a0 f i misc.obj
 0001:00000990       ??0bad_day_of_month@gregorian@boost@@QAE@ABV?$basic_string@DU?$char_traits@D@std@@V?$allocator@D@2@@std@@@Z 10001990 f i misc.obj
 0001:000009e0       ??0bad_year@gregorian@boost@@QAE@XZ 100019e0 f i misc.obj
 0001:00000ad0       ??0bad_month@gregorian@boost@@QAE@XZ 10001ad0 f i misc.obj
 0001:00000bc0       ??Zdate_duration@gregorian@boost@@QAEAAV012@ABV012@@Z 10001bc0 f i misc.obj
 0001:00000c70       ??Ydate_duration@gregorian@boost@@QAEAAV012@ABV012@@Z 10001c70 f i misc.obj
 0001:00000d20       ??_0date_duration@gregorian@boost@@QAEAAV012@H@Z 10001d20 f i misc.obj
 0001:00000e00       ??0date@gregorian@boost@@QAE@Vgreg_year@12@Vgreg_month@12@Vgreg_day@12@@Z 10001e00 f i misc.obj
 0001:00000f10       ??0date@gregorian@boost@@QAE@W4special_values@date_time@2@@Z 10001f10 f i misc.obj
 0001:00000fd0       ?localtime@c_time@date_time@boost@@SAPAUtm@@PB_JPAU4@@Z 10001fd0 f i misc.obj
 0001:00001030       ??0time_duration@posix_time@boost@@QAE@_J000@Z 10002030 f i misc.obj
 0001:00001180       ??0time_duration@posix_time@boost@@QAE@W4special_values@date_time@2@@Z 10002180 f i misc.obj
 0001:00001200       ??0ptime@posix_time@boost@@QAE@Vdate@gregorian@2@@Z 10002200 f i misc.obj
 0001:00001240       ??0ptime@posix_time@boost@@QAE@XZ 10002240 f i misc.obj
 0001:00001280       ?_Throw_tree_length_error@std@@YAXXZ 10002280 f i misc.obj
 0001:00001290       ?what@bad_lexical_cast@boost@@UBEPBDXZ 10002290 f i misc.obj
 0001:000012a0       ??0bad_lexical_cast@boost@@QAE@ABVtype_info@@0@Z 100022a0 f i misc.obj
 0001:000012d0       ??_Etoo_few_args@io@boost@@UAEPAXI@Z 100022d0 f i * CIL library *:* CIL module *
 0001:000012d0       ??_Gbad_lexical_cast@boost@@UAEPAXI@Z 100022d0 f i misc.obj
 0001:000012d0       ??_Gtoo_many_args@io@boost@@UAEPAXI@Z 100022d0 f i misc.obj
 0001:000012d0       ??_Ebad_format_string@io@boost@@UAEPAXI@Z 100022d0 f i * CIL library *:* CIL module *
 0001:000012d0       ??_Ebad_lexical_cast@boost@@UAEPAXI@Z 100022d0 f i * CIL library *:* CIL module *
 0001:000012d0       ??_Gtoo_few_args@io@boost@@UAEPAXI@Z 100022d0 f i misc.obj
 0001:000012d0       ??_Gbad_format_string@io@boost@@UAEPAXI@Z 100022d0 f i misc.obj
 0001:000012d0       ??_Etoo_many_args@io@boost@@UAEPAXI@Z 100022d0 f i * CIL library *:* CIL module *
 0001:00001300       ?destroy@sp_counted_base@detail@boost@@UAEXXZ 10002300 f i misc.obj
 0001:00001310       ??_Esp_counted_base@detail@boost@@UAEPAXI@Z 10002310 f i * CIL library *:* CIL module *
 0001:00001310       ??_Gsp_counted_base@detail@boost@@UAEPAXI@Z 10002310 f i misc.obj
 0001:00001340       ??1shared_count@detail@boost@@QAE@XZ 10002340 f i misc.obj
 0001:00001380       ?dispose@?$sp_counted_impl_pd@PAV?$basic_altstringbuf@_WU?$char_traits@_W@std@@V?$allocator@_W@2@@io@boost@@VNo_Op@?$basic_oaltstringstream@_WU?$char_traits@_W@std@@V?$allocator@_W@2@@23@@detail@boost@@UAEXXZ 10002380 f i misc.obj
 0001:00001380       ?on_process_enter@boost@@YAXXZ 10002380 f i libboost_thread-vc142-mt-x32-1_80:thread.obj
 0001:00001380       @_guard_check_icall_nop@4  10002380 f i MSVCRT:guard_support.obj
 0001:00001380       ??$call_put_head@_WU?$char_traits@_W@std@@$$CBV?$basic_string@_WU?$char_traits@_W@std@@V?$allocator@_W@2@@2@@detail@io@boost@@YAXAAV?$basic_ostream@_WU?$char_traits@_W@std@@@std@@PBX@Z 10002380 f i misc.obj
 0001:00001380       ??$call_put_head@_WU?$char_traits@_W@std@@$$CBI@detail@io@boost@@YAXAAV?$basic_ostream@_WU?$char_traits@_W@std@@@std@@PBX@Z 10002380 f i misc.obj
 0001:00001380       ?sp_enable_shared_from_this@detail@boost@@YAXZZ 10002380 f i misc.obj
 0001:00001380       ?tss_cleanup_implemented@boost@@YAXXZ 10002380 f i libboost_thread-vc142-mt-x32-1_80:tss_pe.obj
 0001:00001390       ?split@date_time@boost@@YA_NABV?$basic_string@DU?$char_traits@D@std@@V?$allocator@D@2@@std@@DAAV34@1@Z 10002390 f i misc.obj
 0001:00001530       ??1bad_alloc_@exception_detail@boost@@UAE@XZ 10002530 f i misc.obj
 0001:000015b0       ??_Gbad_alloc_@exception_detail@boost@@UAEPAXI@Z 100025b0 f i misc.obj
 0001:000015b0       ??_Ebad_alloc_@exception_detail@boost@@UAEPAXI@Z 100025b0 f i * CIL library *:* CIL module *
 0001:00001640       ??1bad_exception_@exception_detail@boost@@UAE@XZ 10002640 f i misc.obj
 0001:000016c0       ??_Gbad_exception_@exception_detail@boost@@UAEPAXI@Z 100026c0 f i misc.obj
 0001:000016c0       ??_Ebad_exception_@exception_detail@boost@@UAEPAXI@Z 100026c0 f i * CIL library *:* CIL module *
 0001:00001750       ??0exception@boost@@QAE@ABV01@@Z 10002750 f i misc.obj
 0001:000017a0       ?s2ws@yloader@@YA?AV?$basic_string@_WU?$char_traits@_W@std@@V?$allocator@_W@2@@std@@PBD@Z 100027a0 f i misc.obj
 0001:00001930       ?ws2s@yloader@@YA?AV?$basic_string@DU?$char_traits@D@std@@V?$allocator@D@2@@std@@ABV?$basic_string@_WU?$char_traits@_W@std@@V?$allocator@_W@2@@3@@Z 10002930 f i misc.obj
 0001:00001ac0       ??_GTimeDurationAbstr@yloader@@UAEPAXI@Z 10002ac0 f i misc.obj
 0001:00001ac0       ??_ETimeDurationAbstr@yloader@@UAEPAXI@Z 10002ac0 f i * CIL library *:* CIL module *
 0001:00001af0       ??_EDateDurationAbstr@yloader@@UAEPAXI@Z 10002af0 f i * CIL library *:* CIL module *
 0001:00001af0       ??_GDateDurationAbstr@yloader@@UAEPAXI@Z 10002af0 f i misc.obj
 0001:00001b20       ??1DateAbstr@yloader@@UAE@XZ 10002b20 f i misc.obj
 0001:00001b30       ??_EDateAbstr@yloader@@UAEPAXI@Z 10002b30 f i * CIL library *:* CIL module *
 0001:00001b30       ??_GDateAbstr@yloader@@UAEPAXI@Z 10002b30 f i misc.obj
 0001:00001b60       ??1DateTimeAbstr@yloader@@UAE@XZ 10002b60 f i misc.obj
 0001:00001b70       ??_GDateTimeAbstr@yloader@@UAEPAXI@Z 10002b70 f i misc.obj
 0001:00001b70       ??_EDateTimeAbstr@yloader@@UAEPAXI@Z 10002b70 f i * CIL library *:* CIL module *
 0001:00001ba0       ??_D?$basic_ostringstream@_WU?$char_traits@_W@std@@V?$allocator@_W@2@@std@@QAEXXZ 10002ba0 f i misc.obj
 0001:00001be0       ??0DateException@yloader@@QAE@ABV?$basic_string@_WU?$char_traits@_W@std@@V?$allocator@_W@2@@std@@0@Z 10002be0 f i misc.obj
 0001:00001c40       ??_ETimerAbstr@yloader@@UAEPAXI@Z 10002c40 f i * CIL library *:* CIL module *
 0001:00001c40       ??_GTimerAbstr@yloader@@UAEPAXI@Z 10002c40 f i misc.obj
 0001:00001c70       ??0VersionException@yloader@@QAE@ABV01@@Z 10002c70 f i misc.obj
 0001:00001c70       ??0VersionException@yloader@@QAE@ABV?$basic_string@_WU?$char_traits@_W@std@@V?$allocator@_W@2@@std@@@Z 10002c70 f i misc.obj
 0001:00001c90       ?major@Version@yloader@@QBEIXZ 10002c90 f i misc.obj
 0001:00001ca0       ?size@?$_Tree@V?$_Tmap_traits@V?$basic_string@_WU?$char_traits@_W@std@@V?$allocator@_W@2@@std@@V?$shared_ptr@VNameValue@yloader@@@2@U?$less@V?$basic_string@_WU?$char_traits@_W@std@@V?$allocator@_W@2@@std@@@2@V?$allocator@U?$pair@$$CBV?$basic_string@_WU?$char_traits@_W@std@@V?$allocator@_W@2@@std@@V?$shared_ptr@VNameValue@yloader@@@2@@std@@@2@$00@std@@@std@@QBEIXZ 10002ca0 f i namevalue.obj
 0001:00001ca0       ?days@DateDurationImpl@@UBEJXZ 10002ca0 f i misc.obj
 0001:00001ca0       ?minor@Version@yloader@@QBEIXZ 10002ca0 f i misc.obj
 0001:00001cb0       ?revision@Version@yloader@@QBEIXZ 10002cb0 f i misc.obj
 0001:00001cc0       ?build@Version@yloader@@QBEIXZ 10002cc0 f i misc.obj
 0001:00001cd0       ??OVersion@yloader@@QAE_NABV01@@Z 10002cd0 f i misc.obj
 0001:00001d10       ??BVersion@yloader@@QBE_NXZ 10002d10 f i misc.obj
 0001:00001d20       ?toShortString@Version@yloader@@QBE?AV?$basic_string@_WU?$char_traits@_W@std@@V?$allocator@_W@2@@std@@XZ 10002d20 f i misc.obj
 0001:00001df0       ?toString@Version@yloader@@QBE?AV?$basic_string@_WU?$char_traits@_W@std@@V?$allocator@_W@2@@std@@XZ 10002df0 f i misc.obj
 0001:00001f40       ??4Version@yloader@@QAEAAV01@ABV01@@Z 10002f40 f i misc.obj
 0001:00001f50       ??4Version@yloader@@QAEAAV01@$$QAV01@@Z 10002f50 f i misc.obj
 0001:00001f70       ?what@format_error@io@boost@@UBEPBDXZ 10002f70 f i misc.obj
 0001:00001f80       ??0bad_format_string@io@boost@@QAE@II@Z 10002f80 f i misc.obj
 0001:00001fb0       ?what@bad_format_string@io@boost@@UBEPBDXZ 10002fb0 f i misc.obj
 0001:00001fc0       ??0too_few_args@io@boost@@QAE@II@Z 10002fc0 f i misc.obj
 0001:00001ff0       ?what@too_few_args@io@boost@@UBEPBDXZ 10002ff0 f i misc.obj
 0001:00002000       ??0too_many_args@io@boost@@QAE@II@Z 10003000 f i misc.obj
 0001:00002030       ?what@too_many_args@io@boost@@UBEPBDXZ 10003030 f i misc.obj
 0001:00002040       _DllMain@12                10003040 f   misc.obj
 0001:00002050       ?tsprint@yloader@@YAAAV?$basic_ostream@_WU?$char_traits@_W@std@@@std@@ABV?$basic_string@_WU?$char_traits@_W@std@@V?$allocator@_W@2@@3@AAV23@@Z 10003050 f   misc.obj
 0001:000020e0       ?tsprint@yloader@@YAAAV?$basic_ostream@_WU?$char_traits@_W@std@@@std@@ABV?$basic_ostringstream@_WU?$char_traits@_W@std@@V?$allocator@_W@2@@3@AAV23@@Z 100030e0 f   misc.obj
 0001:00002190       ?is_negative@DateDurationImpl@@UBE_NXZ 10003190 f i misc.obj
 0001:000021b0       ??8DateDurationImpl@@UBE_NABVDateDurationAbstr@yloader@@@Z 100031b0 f i misc.obj
 0001:00002230       ??9DateDurationImpl@@UBE_NABVDateDurationAbstr@yloader@@@Z 10003230 f i misc.obj
 0001:000022b0       ??ODateDurationImpl@@UBE_NABVDateDurationAbstr@yloader@@@Z 100032b0 f i misc.obj
 0001:00002360       ??MDateDurationImpl@@UBE_NABVDateDurationAbstr@yloader@@@Z 10003360 f i misc.obj
 0001:000023e0       ??PDateDurationImpl@@UBE_NABVDateDurationAbstr@yloader@@@Z 100033e0 f i misc.obj
 0001:00002460       ??NDateDurationImpl@@UBE_NABVDateDurationAbstr@yloader@@@Z 10003460 f i misc.obj
 0001:00002510       ??HDateDurationImpl@@UBE?AV?$shared_ptr@VDateDurationAbstr@yloader@@@std@@ABVDateDurationAbstr@yloader@@@Z 10003510 f i misc.obj
 0001:000025d0       ??GDateDurationImpl@@UBE?AV?$shared_ptr@VDateDurationAbstr@yloader@@@std@@ABVDateDurationAbstr@yloader@@@Z 100035d0 f i misc.obj
 0001:00002690       ??KDateDurationImpl@@UAE?AV?$shared_ptr@VDateDurationAbstr@yloader@@@std@@H@Z 10003690 f i misc.obj
 0001:00002730       ??ZDateDurationImpl@@UAE?AV?$shared_ptr@VDateDurationAbstr@yloader@@@std@@ABVDateDurationAbstr@yloader@@@Z 10003730 f i misc.obj
 0001:000027f0       ??YDateDurationImpl@@UAE?AV?$shared_ptr@VDateDurationAbstr@yloader@@@std@@ABVDateDurationAbstr@yloader@@@Z 100037f0 f i misc.obj
 0001:000028b0       ??_0DateDurationImpl@@UAE?AV?$shared_ptr@VDateDurationAbstr@yloader@@@std@@H@Z 100038b0 f i misc.obj
 0001:00002950       ??_GDateDurationImpl@@UAEPAXI@Z 10003950 f i misc.obj
 0001:00002950       ??_EDateDurationImpl@@UAEPAXI@Z 10003950 f i * CIL library *:* CIL module *
 0001:00002980       ?to_simple_string@DateImpl@@UBE?AV?$basic_string@_WU?$char_traits@_W@std@@V?$allocator@_W@2@@std@@XZ 10003980 f i misc.obj
 0001:000029a0       ?to_iso_string@DateImpl@@UBE?AV?$basic_string@_WU?$char_traits@_W@std@@V?$allocator@_W@2@@std@@XZ 100039a0 f i misc.obj
 0001:000029c0       ?to_iso_extended_string@DateImpl@@UBE?AV?$basic_string@_WU?$char_traits@_W@std@@V?$allocator@_W@2@@std@@XZ 100039c0 f i misc.obj
 0001:00002b00       ?year@DateImpl@@UBEGXZ     10003b00 f i misc.obj
 0001:00002b20       ?month@DateImpl@@UBEGXZ    10003b20 f i misc.obj
 0001:00002b40       ?day@DateImpl@@UBEGXZ      10003b40 f i misc.obj
 0001:00002b60       ?is_infinity@DateImpl@@UBE_NXZ 10003b60 f i misc.obj
 0001:00002b80       ?empty@?$_Tree@V?$_Tmap_traits@V?$basic_string@_WU?$char_traits@_W@std@@V?$allocator@_W@2@@std@@V?$shared_ptr@VNameValue@yloader@@@2@U?$less@V?$basic_string@_WU?$char_traits@_W@std@@V?$allocator@_W@2@@std@@@2@V?$allocator@U?$pair@$$CBV?$basic_string@_WU?$char_traits@_W@std@@V?$allocator@_W@2@@std@@V?$shared_ptr@VNameValue@yloader@@@2@@std@@@2@$00@std@@@std@@QBE_NXZ 10003b80 f i namevalue.obj
 0001:00002b80       ?is_neg_infinity@DateImpl@@UBE_NXZ 10003b80 f i misc.obj
 0001:00002b90       ?is_pos_infinity@DateImpl@@UBE_NXZ 10003b90 f i misc.obj
 0001:00002ba0       ?is_not_a_date@DateImpl@@UBE_NXZ 10003ba0 f i misc.obj
 0001:00002bb0       ?is_special@DateImpl@@UBE_NXZ 10003bb0 f i misc.obj
 0001:00002bd0       ?week_number@DateImpl@@UBEHXZ 10003bd0 f i misc.obj
 0001:00002d00       ??8DateImpl@@UBE_NABVDateAbstr@yloader@@@Z 10003d00 f i misc.obj
 0001:00002d80       ??9DateImpl@@UBE_NABVDateAbstr@yloader@@@Z 10003d80 f i misc.obj
 0001:00002e00       ??ODateImpl@@UBE_NABVDateAbstr@yloader@@@Z 10003e00 f i misc.obj
 0001:00002e80       ??MDateImpl@@UBE_NABVDateAbstr@yloader@@@Z 10003e80 f i misc.obj
 0001:00002f00       ??PDateImpl@@UBE_NABVDateAbstr@yloader@@@Z 10003f00 f i misc.obj
 0001:00002f80       ??NDateImpl@@UBE_NABVDateAbstr@yloader@@@Z 10003f80 f i misc.obj
 0001:00003000       ??GDateImpl@@UBE?AV?$shared_ptr@VDateAbstr@yloader@@@std@@ABVDateDurationAbstr@yloader@@@Z 10004000 f i misc.obj
 0001:000030c0       ??HDateImpl@@UBE?AV?$shared_ptr@VDateAbstr@yloader@@@std@@ABVDateDurationAbstr@yloader@@@Z 100040c0 f i misc.obj
 0001:00003180       ??GDateImpl@@UBE?AV?$shared_ptr@VDateDurationAbstr@yloader@@@std@@ABVDateAbstr@yloader@@@Z 10004180 f i misc.obj
 0001:000032b0       ??ZDateImpl@@UAE?AV?$shared_ptr@VDateAbstr@yloader@@@std@@ABVDateDurationAbstr@yloader@@@Z 100042b0 f i misc.obj
 0001:00003370       ??YDateImpl@@UAE?AV?$shared_ptr@VDateAbstr@yloader@@@std@@ABVDateDurationAbstr@yloader@@@Z 10004370 f i misc.obj
 0001:00003430       ??_EDateImpl@@UAEPAXI@Z    10004430 f i * CIL library *:* CIL module *
 0001:00003430       ??_GDateImpl@@UAEPAXI@Z    10004430 f i misc.obj
 0001:00003460       ??0Date@yloader@@QAE@ABV?$basic_string@_WU?$char_traits@_W@std@@V?$allocator@_W@2@@std@@W4DateFormat@1@0@Z 10004460 f   misc.obj
 0001:000034c0       ?parse@Date@yloader@@AAEXABV?$basic_string@_WU?$char_traits@_W@std@@V?$allocator@_W@2@@std@@W4DateFormat@2@0@Z 100044c0 f   misc.obj
 0001:000040d0       ??0?$basic_string@_WU?$char_traits@_W@std@@V?$allocator@_W@2@@std@@QAE@QB_W@Z 100050d0 f i misc.obj
 0001:00004160       ?assign@?$basic_string@_WU?$char_traits@_W@std@@V?$allocator@_W@2@@std@@QAEAAV12@QB_WI@Z 10005160 f i misc.obj
 0001:000042a0       ??1VersionException@yloader@@QAE@XZ 100052a0 f i misc.obj
 0001:000042a0       ??1?$basic_string@_WU?$char_traits@_W@std@@V?$allocator@_W@2@@std@@QAE@XZ 100052a0 f i misc.obj
 0001:000042a0       ??1?$CIsFromString@_W@@QAE@XZ 100052a0 f i misc.obj
 0001:00004300       ??1?$CTokenizer@_WV?$CIsFromString@_W@@@@QAE@XZ 10005300 f i misc.obj
 0001:00004310       ??1?$pair@V?$basic_string@_WU?$char_traits@_W@std@@V?$allocator@_W@2@@std@@V12@@std@@QAE@XZ 10005310 f i namevalue.obj
 0001:00004310       ??1DateException@yloader@@QAE@XZ 10005310 f i misc.obj
 0001:000043b0       ??0DateException@yloader@@QAE@ABV01@@Z 100053b0 f i misc.obj
 0001:00004410       ?hours@TimeDurationImpl@@UBEJXZ 10005410 f i misc.obj
 0001:00004430       ?minutes@TimeDurationImpl@@UBEJXZ 10005430 f i misc.obj
 0001:00004450       ?seconds@TimeDurationImpl@@UBEJXZ 10005450 f i misc.obj
 0001:00004470       ?total_seconds@TimeDurationImpl@@UBEJXZ 10005470 f i misc.obj
 0001:00004490       ?fractional_seconds@TimeDurationImpl@@UBEJXZ 10005490 f i misc.obj
 0001:000044b0       ?is_negative@TimeDurationImpl@@UBE_NXZ 100054b0 f i misc.obj
 0001:000044d0       ??8TimeDurationImpl@@UBE_NABVTimeDurationAbstr@yloader@@@Z 100054d0 f i misc.obj
 0001:00004550       ??9TimeDurationImpl@@UBE_NABVTimeDurationAbstr@yloader@@@Z 10005550 f i misc.obj
 0001:000045d0       ??OTimeDurationImpl@@UBE_NABVTimeDurationAbstr@yloader@@@Z 100055d0 f i misc.obj
 0001:00004650       ??MTimeDurationImpl@@UBE_NABVTimeDurationAbstr@yloader@@@Z 10005650 f i misc.obj
 0001:000046d0       ??PTimeDurationImpl@@UBE_NABVTimeDurationAbstr@yloader@@@Z 100056d0 f i misc.obj
 0001:00004750       ??NTimeDurationImpl@@UBE_NABVTimeDurationAbstr@yloader@@@Z 10005750 f i misc.obj
 0001:000047d0       ??HTimeDurationImpl@@UBE?AV?$shared_ptr@VTimeDurationAbstr@yloader@@@std@@ABVTimeDurationAbstr@yloader@@@Z 100057d0 f i misc.obj
 0001:00004890       ??GTimeDurationImpl@@UBE?AV?$shared_ptr@VTimeDurationAbstr@yloader@@@std@@ABVTimeDurationAbstr@yloader@@@Z 10005890 f i misc.obj
 0001:00004950       ??KTimeDurationImpl@@UAE?AV?$shared_ptr@VTimeDurationAbstr@yloader@@@std@@H@Z 10005950 f i misc.obj
 0001:000049f0       ??DTimeDurationImpl@@UAE?AV?$shared_ptr@VTimeDurationAbstr@yloader@@@std@@H@Z 100059f0 f i misc.obj
 0001:00004a90       ??ZTimeDurationImpl@@UAE?AV?$shared_ptr@VTimeDurationAbstr@yloader@@@std@@ABVTimeDurationAbstr@yloader@@@Z 10005a90 f i misc.obj
 0001:00004b50       ??YTimeDurationImpl@@UAE?AV?$shared_ptr@VTimeDurationAbstr@yloader@@@std@@ABVTimeDurationAbstr@yloader@@@Z 10005b50 f i misc.obj
 0001:00004c10       ??_0TimeDurationImpl@@UAE?AV?$shared_ptr@VTimeDurationAbstr@yloader@@@std@@H@Z 10005c10 f i misc.obj
 0001:00004cb0       ??XTimeDurationImpl@@UAE?AV?$shared_ptr@VTimeDurationAbstr@yloader@@@std@@H@Z 10005cb0 f i misc.obj
 0001:00004d50       ??_ETimeDurationImpl@@UAEPAXI@Z 10005d50 f i * CIL library *:* CIL module *
 0001:00004d50       ??_GTimeDurationImpl@@UAEPAXI@Z 10005d50 f i misc.obj
 0001:00004d80       ??0DateTimeImpl@@QAE@ABVDateImpl@@ABVTimeDurationImpl@@@Z 10005d80 f i misc.obj
 0001:00004dd0       ??MDateTimeImpl@@UBE_NABVDateTimeAbstr@yloader@@@Z 10005dd0 f i misc.obj
 0001:00004e50       ??ODateTimeImpl@@UBE_NABVDateTimeAbstr@yloader@@@Z 10005e50 f i misc.obj
 0001:00004ed0       ??PDateTimeImpl@@UBE_NABVDateTimeAbstr@yloader@@@Z 10005ed0 f i misc.obj
 0001:00004f50       ??NDateTimeImpl@@UBE_NABVDateTimeAbstr@yloader@@@Z 10005f50 f i misc.obj
 0001:00004fd0       ??8DateTimeImpl@@UBE_NABVDateTimeAbstr@yloader@@@Z 10005fd0 f i misc.obj
 0001:00005050       ??9DateTimeImpl@@UBE_NABVDateTimeAbstr@yloader@@@Z 10006050 f i misc.obj
 0001:000050d0       ?to_simple_string@DateTimeImpl@@UBE?AV?$basic_string@_WU?$char_traits@_W@std@@V?$allocator@_W@2@@std@@XZ 100060d0 f i misc.obj
 0001:000050f0       ?to_iso_string@DateTimeImpl@@UBE?AV?$basic_string@_WU?$char_traits@_W@std@@V?$allocator@_W@2@@std@@XZ 100060f0 f i misc.obj
 0001:00005110       ?to_epoch_time@DateTimeImpl@@UBE_JXZ 10006110 f i misc.obj
 0001:000051a0       ?date@DateTimeImpl@@UBE?AV?$shared_ptr@VDateAbstr@yloader@@@std@@XZ 100061a0 f i misc.obj
 0001:00005260       ?time_of_day@DateTimeImpl@@UBE?AV?$shared_ptr@VTimeDurationAbstr@yloader@@@std@@XZ 10006260 f i misc.obj
 0001:00005340       ?is_not_a_date_time@DateTimeImpl@@UBE_NXZ 10006340 f i misc.obj
 0001:00005370       ?is_infinity@DateTimeImpl@@UBE_NXZ 10006370 f i misc.obj
 0001:000053a0       ?is_pos_infinity@DateTimeImpl@@UBE_NXZ 100063a0 f i misc.obj
 0001:000053d0       ?is_neg_infinity@DateTimeImpl@@UBE_NXZ 100063d0 f i misc.obj
 0001:00005400       ?is_special@DateTimeImpl@@UBE_NXZ 10006400 f i misc.obj
 0001:00005440       ??GDateTimeImpl@@UBE?AV?$shared_ptr@VTimeDurationAbstr@yloader@@@std@@ABVDateTimeAbstr@yloader@@@Z 10006440 f i misc.obj
 0001:00005500       ??HDateTimeImpl@@UBE?AV?$shared_ptr@VDateTimeAbstr@yloader@@@std@@ABVDateDurationAbstr@yloader@@@Z 10006500 f i misc.obj
 0001:000055c0       ??YDateTimeImpl@@UAE?AV?$shared_ptr@VDateTimeAbstr@yloader@@@std@@ABVDateDurationAbstr@yloader@@@Z 100065c0 f i misc.obj
 0001:00005680       ??GDateTimeImpl@@UBE?AV?$shared_ptr@VDateTimeAbstr@yloader@@@std@@ABVDateDurationAbstr@yloader@@@Z 10006680 f i misc.obj
 0001:00005740       ??ZDateTimeImpl@@UAE?AV?$shared_ptr@VDateTimeAbstr@yloader@@@std@@ABVDateDurationAbstr@yloader@@@Z 10006740 f i misc.obj
 0001:00005800       ??HDateTimeImpl@@UBE?AV?$shared_ptr@VDateTimeAbstr@yloader@@@std@@ABVTimeDurationAbstr@yloader@@@Z 10006800 f i misc.obj
 0001:000058c0       ??YDateTimeImpl@@UAE?AV?$shared_ptr@VDateTimeAbstr@yloader@@@std@@ABVTimeDurationAbstr@yloader@@@Z 100068c0 f i misc.obj
 0001:00005980       ??GDateTimeImpl@@UBE?AV?$shared_ptr@VDateTimeAbstr@yloader@@@std@@ABVTimeDurationAbstr@yloader@@@Z 10006980 f i misc.obj
 0001:00005a40       ??ZDateTimeImpl@@UAE?AV?$shared_ptr@VDateTimeAbstr@yloader@@@std@@ABVTimeDurationAbstr@yloader@@@Z 10006a40 f i misc.obj
 0001:00005b00       ??_GDateTimeImpl@@UAEPAXI@Z 10006b00 f i misc.obj
 0001:00005b00       ??_EDateTimeImpl@@UAEPAXI@Z 10006b00 f i * CIL library *:* CIL module *
 0001:00005b30       ?localTimeSubSec@DateTimeAbstr@yloader@@SA?AV?$shared_ptr@VDateTimeAbstr@yloader@@@std@@XZ 10006b30 f   misc.obj
 0001:00005b90       ?localTimeSec@DateTimeAbstr@yloader@@SA?AV?$shared_ptr@VDateTimeAbstr@yloader@@@std@@XZ 10006b90 f   misc.obj
 0001:00005c60       ?universalTime@DateTimeAbstr@yloader@@SA?AV?$shared_ptr@VDateTimeAbstr@yloader@@@std@@XZ 10006c60 f   misc.obj
 0001:00005d30       ?make@DateDurationAbstr@yloader@@SA?AV?$shared_ptr@VDateDurationAbstr@yloader@@@std@@J@Z 10006d30 f   misc.obj
 0001:00005d80       ?make@DateDurationAbstr@yloader@@SA?AV?$shared_ptr@VDateDurationAbstr@yloader@@@std@@XZ 10006d80 f   misc.obj
 0001:00005dd0       ?makeFromIsoString@DateTimeAbstr@yloader@@SA?AV?$shared_ptr@VDateTimeAbstr@yloader@@@std@@ABV?$basic_string@_WU?$char_traits@_W@std@@V?$allocator@_W@2@@4@@Z 10006dd0 f   misc.obj
 0001:00005ec0       ?makeFromDelimitedString@DateTimeAbstr@yloader@@SA?AV?$shared_ptr@VDateTimeAbstr@yloader@@@std@@ABV?$basic_string@_WU?$char_traits@_W@std@@V?$allocator@_W@2@@4@@Z 10006ec0 f   misc.obj
 0001:00005fb0       ?makeFromIsoExtendedString@DateTimeAbstr@yloader@@SA?AV?$shared_ptr@VDateTimeAbstr@yloader@@@std@@ABV?$basic_string@_WU?$char_traits@_W@std@@V?$allocator@_W@2@@4@@Z 10006fb0 f   misc.obj
 0001:000060a0       ?makeFromNonDelimitedString@DateTimeAbstr@yloader@@SA?AV?$shared_ptr@VDateTimeAbstr@yloader@@@std@@ABV?$basic_string@_WU?$char_traits@_W@std@@V?$allocator@_W@2@@4@@Z 100070a0 f   misc.obj
 0001:000062f0       ?makeFromUnixTime@DateTimeAbstr@yloader@@SA?AV?$shared_ptr@VDateTimeAbstr@yloader@@@std@@_J@Z 100072f0 f   misc.obj
 0001:000063e0       ?make@TimeDurationAbstr@yloader@@SA?AV?$shared_ptr@VTimeDurationAbstr@yloader@@@std@@JJJJ@Z 100073e0 f   misc.obj
 0001:00006460       ?make@DateAbstr@yloader@@SA?AV?$shared_ptr@VDateAbstr@yloader@@@std@@III@Z 10007460 f   misc.obj
 0001:000065a0       ?make@DateAbstr@yloader@@SA?AV?$shared_ptr@VDateAbstr@yloader@@@std@@XZ 100075a0 f   misc.obj
 0001:000065f0       ?make@DateTimeAbstr@yloader@@SA?AV?$shared_ptr@VDateTimeAbstr@yloader@@@std@@ABVDateAbstr@2@ABVTimeDurationAbstr@2@@Z 100075f0 f   misc.obj
 0001:000066e0       ?make@DateTimeAbstr@yloader@@SA?AV?$shared_ptr@VDateTimeAbstr@yloader@@@std@@XZ 100076e0 f   misc.obj
 0001:00006790       ?make@DateTimeAbstr@yloader@@SA?AV?$shared_ptr@VDateTimeAbstr@yloader@@@std@@ABVDateAbstr@2@@Z 10007790 f   misc.obj
 0001:00006860       ?make@DateTimeAbstr@yloader@@SA?AV?$shared_ptr@VDateTimeAbstr@yloader@@@std@@ABV12@@Z 10007860 f   misc.obj
 0001:00006930       ?makePosInfinity@DateAbstr@yloader@@SA?AV?$shared_ptr@VDateAbstr@yloader@@@std@@XZ 10007930 f   misc.obj
 0001:00006990       ?makeNegInfinity@DateAbstr@yloader@@SA?AV?$shared_ptr@VDateAbstr@yloader@@@std@@XZ 10007990 f   misc.obj
 0001:000069f0       ?makeMaxDate@DateAbstr@yloader@@SA?AV?$shared_ptr@VDateAbstr@yloader@@@std@@XZ 100079f0 f   misc.obj
 0001:00006a80       ?makeMinDate@DateAbstr@yloader@@SA?AV?$shared_ptr@VDateAbstr@yloader@@@std@@XZ 10007a80 f   misc.obj
 0001:00006b00       ?makeNotADate@DateAbstr@yloader@@SA?AV?$shared_ptr@VDateAbstr@yloader@@@std@@XZ 10007b00 f   misc.obj
 0001:00006b60       ?makePosInfinity@DateTimeAbstr@yloader@@SA?AV?$shared_ptr@VDateTimeAbstr@yloader@@@std@@XZ 10007b60 f   misc.obj
 0001:00006bd0       ?makeNegInfinity@DateTimeAbstr@yloader@@SA?AV?$shared_ptr@VDateTimeAbstr@yloader@@@std@@XZ 10007bd0 f   misc.obj
 0001:00006c40       ?makeMaxDateTime@DateTimeAbstr@yloader@@SA?AV?$shared_ptr@VDateTimeAbstr@yloader@@@std@@XZ 10007c40 f   misc.obj
 0001:00006cb0       ?makeMinDateTime@DateTimeAbstr@yloader@@SA?AV?$shared_ptr@VDateTimeAbstr@yloader@@@std@@XZ 10007cb0 f   misc.obj
 0001:00006d20       ?makeNotADateTime@DateTimeAbstr@yloader@@SA?AV?$shared_ptr@VDateTimeAbstr@yloader@@@std@@XZ 10007d20 f   misc.obj
 0001:00006d80       ?make@DateAbstr@yloader@@SA?AV?$shared_ptr@VDateAbstr@yloader@@@std@@ABV12@@Z 10007d80 f   misc.obj
 0001:00006e50       ?make@TimeDurationAbstr@yloader@@SA?AV?$shared_ptr@VTimeDurationAbstr@yloader@@@std@@ABV12@@Z 10007e50 f   misc.obj
 0001:00006f20       ?restart@TimerImpl@@UAEXXZ 10007f20 f i misc.obj
 0001:00006f40       ?elapsed@TimerImpl@@UBENXZ 10007f40 f i misc.obj
 0001:00006f90       ?stop@TimerImpl@@UAEXXZ    10007f90 f i misc.obj
 0001:00006fc0       ?isStopped@TimerImpl@@UBE_NXZ 10007fc0 f i misc.obj
 0001:00006fd0       ??_GTimerImpl@@UAEPAXI@Z   10007fd0 f i misc.obj
 0001:00006fd0       ??_ETimerImpl@@UAEPAXI@Z   10007fd0 f i * CIL library *:* CIL module *
 0001:00007000       ?make@TimerAbstr@yloader@@SAPAV12@XZ 10008000 f   misc.obj
 0001:00007040       ??0Version@yloader@@QAE@XZ 10008040 f   misc.obj
 0001:00007060       ??0Version@yloader@@QAE@ABV?$basic_string@_WU?$char_traits@_W@std@@V?$allocator@_W@2@@std@@@Z 10008060 f   misc.obj
 0001:000070a0       ??0Version@yloader@@QAE@PB_W@Z 100080a0 f   misc.obj
 0001:000070d0       ??0Version@yloader@@QAE@IIII@Z 100080d0 f   misc.obj
 0001:000070f0       ?parse@Version@yloader@@AAEXPB_W@Z 100080f0 f   misc.obj
 0001:00007420       ??0Seconds@yloader@@QAE@N@Z 10008420 f   misc.obj
 0001:00007470       ?cmdLineSplitter@yloader@@YA?AV?$vector@V?$basic_string@DU?$char_traits@D@std@@V?$allocator@D@2@@std@@V?$allocator@V?$basic_string@DU?$char_traits@D@std@@V?$allocator@D@2@@std@@@2@@std@@ABV?$basic_string@_WU?$char_traits@_W@std@@V?$allocator@_W@2@@3@@Z 10008470 f   misc.obj
 0001:000079f0       ?toString@Date@yloader@@QBE?AV?$basic_string@_WU?$char_traits@_W@std@@V?$allocator@_W@2@@std@@W4DateFormat@2@ABV34@@Z 100089f0 f   misc.obj
 0001:00007d30       ??1?$vector@V?$basic_string@DU?$char_traits@D@std@@V?$allocator@D@2@@std@@V?$allocator@V?$basic_string@DU?$char_traits@D@std@@V?$allocator@D@2@@std@@@2@@std@@QAE@XZ 10008d30 f i misc.obj
 0001:00007d40       ??0?$CTokenizer@_WV?$CIsFromString@_W@@@@QAE@ABV?$basic_string@_WU?$char_traits@_W@std@@V?$allocator@_W@2@@std@@ABV?$CIsFromString@_W@@V?$optional@I@2@@Z 10008d40 f i misc.obj
 0001:00008100       ??1?$scoped_lock@Vmutex@std@@@std@@QAE@XZ 10009100 f i misc.obj
 0001:00008110       ??1?$basic_altstringbuf@_WU?$char_traits@_W@std@@V?$allocator@_W@2@@io@boost@@UAE@XZ 10009110 f i misc.obj
 0001:000081c0       ??1?$vector@V?$basic_string@_WU?$char_traits@_W@std@@V?$allocator@_W@2@@std@@V?$allocator@V?$basic_string@_WU?$char_traits@_W@std@@V?$allocator@_W@2@@std@@@2@@std@@QAE@XZ 100091c0 f i misc.obj
 0001:00008240       ??1?$shared_ptr@VDateAbstr@yloader@@@std@@QAE@XZ 10009240 f i misc.obj
 0001:00008240       ??1?$shared_ptr@VNameValue@yloader@@@std@@QAE@XZ 10009240 f i namevalue.obj
 0001:00008240       ??1?$shared_ptr@V?$basic_string@_WU?$char_traits@_W@std@@V?$allocator@_W@2@@std@@@std@@QAE@XZ 10009240 f i namevalue.obj
 0001:00008240       ??1?$shared_ptr@$$BY0A@_W@std@@QAE@XZ 10009240 f i misc.obj
 0001:00008240       ??1?$shared_ptr@$$BY0A@D@std@@QAE@XZ 10009240 f i misc.obj
 0001:00008270       ?seekpos@?$basic_stringbuf@_WU?$char_traits@_W@std@@V?$allocator@_W@2@@std@@MAE?AV?$fpos@U_Mbstatet@@@2@V32@H@Z 10009270 f i misc.obj
 0001:00008390       ?seekoff@?$basic_stringbuf@_WU?$char_traits@_W@std@@V?$allocator@_W@2@@std@@MAE?AV?$fpos@U_Mbstatet@@@2@_JHH@Z 10009390 f i misc.obj
 0001:00008540       ?underflow@?$basic_stringbuf@_WU?$char_traits@_W@std@@V?$allocator@_W@2@@std@@MAEGXZ 10009540 f i misc.obj
 0001:000085a0       ?pbackfail@?$basic_stringbuf@_WU?$char_traits@_W@std@@V?$allocator@_W@2@@std@@MAEGG@Z 100095a0 f i misc.obj
 0001:00008600       ?overflow@?$basic_stringbuf@_WU?$char_traits@_W@std@@V?$allocator@_W@2@@std@@MAEGG@Z 10009600 f i misc.obj
 0001:000087f0       ??1?$basic_stringbuf@_WU?$char_traits@_W@std@@V?$allocator@_W@2@@std@@UAE@XZ 100097f0 f i misc.obj
 0001:000088a0       ?str@?$basic_ostringstream@_WU?$char_traits@_W@std@@V?$allocator@_W@2@@std@@QGBE?AV?$basic_string@_WU?$char_traits@_W@std@@V?$allocator@_W@2@@2@XZ 100098a0 f i misc.obj
 0001:00008980       ??0?$basic_ostringstream@_WU?$char_traits@_W@std@@V?$allocator@_W@2@@std@@QAE@XZ 10009980 f i misc.obj
 0001:00008a30       ??Z?$base_time@Vptime@posix_time@boost@@V?$counted_time_system@U?$counted_time_rep@Vmillisec_posix_time_system_config@posix_time@boost@@@date_time@boost@@@date_time@3@@date_time@boost@@QAE?AVptime@posix_time@2@ABVtime_duration@42@@Z 10009a30 f i misc.obj
 0001:00008a70       ??G?$base_time@Vptime@posix_time@boost@@V?$counted_time_system@U?$counted_time_rep@Vmillisec_posix_time_system_config@posix_time@boost@@@date_time@boost@@@date_time@3@@date_time@boost@@QBE?AVptime@posix_time@2@ABVtime_duration@42@@Z 10009a70 f i misc.obj
 0001:00008aa0       ??Y?$base_time@Vptime@posix_time@boost@@V?$counted_time_system@U?$counted_time_rep@Vmillisec_posix_time_system_config@posix_time@boost@@@date_time@boost@@@date_time@3@@date_time@boost@@QAE?AVptime@posix_time@2@ABVtime_duration@42@@Z 10009aa0 f i misc.obj
 0001:00008ae0       ??H?$base_time@Vptime@posix_time@boost@@V?$counted_time_system@U?$counted_time_rep@Vmillisec_posix_time_system_config@posix_time@boost@@@date_time@boost@@@date_time@3@@date_time@boost@@QBE?AVptime@posix_time@2@ABVtime_duration@42@@Z 10009ae0 f i misc.obj
 0001:00008b20       ??Z?$base_time@Vptime@posix_time@boost@@V?$counted_time_system@U?$counted_time_rep@Vmillisec_posix_time_system_config@posix_time@boost@@@date_time@boost@@@date_time@3@@date_time@boost@@QAE?AVptime@posix_time@2@ABVdate_duration@gregorian@2@@Z 10009b20 f i misc.obj
 0001:00008b80       ??G?$base_time@Vptime@posix_time@boost@@V?$counted_time_system@U?$counted_time_rep@Vmillisec_posix_time_system_config@posix_time@boost@@@date_time@boost@@@date_time@3@@date_time@boost@@QBE?AVptime@posix_time@2@ABVdate_duration@gregorian@2@@Z 10009b80 f i misc.obj
 0001:00008ce0       ??Y?$base_time@Vptime@posix_time@boost@@V?$counted_time_system@U?$counted_time_rep@Vmillisec_posix_time_system_config@posix_time@boost@@@date_time@boost@@@date_time@3@@date_time@boost@@QAE?AVptime@posix_time@2@ABVdate_duration@gregorian@2@@Z 10009ce0 f i misc.obj
 0001:00008d40       ??H?$base_time@Vptime@posix_time@boost@@V?$counted_time_system@U?$counted_time_rep@Vmillisec_posix_time_system_config@posix_time@boost@@@date_time@boost@@@date_time@3@@date_time@boost@@QBE?AVptime@posix_time@2@ABVdate_duration@gregorian@2@@Z 10009d40 f i misc.obj
 0001:00008eb0       ?time_of_day@?$base_time@Vptime@posix_time@boost@@V?$counted_time_system@U?$counted_time_rep@Vmillisec_posix_time_system_config@posix_time@boost@@@date_time@boost@@@date_time@3@@date_time@boost@@QBE?AVtime_duration@posix_time@3@XZ 10009eb0 f i misc.obj
 0001:00008f80       ?is_equal@?$counted_time_system@U?$counted_time_rep@Vmillisec_posix_time_system_config@posix_time@boost@@@date_time@boost@@@date_time@boost@@SA_NABU?$counted_time_rep@Vmillisec_posix_time_system_config@posix_time@boost@@@23@0@Z 10009f80 f i misc.obj
 0001:00008fa0       ??X?$time_duration@V0posix_time@boost@@V?$time_resolution_traits@Utime_resolution_traits_adapted64_impl@date_time@boost@@$04$0PECEA@$05_J@date_time@2@@date_time@boost@@QAE?AVtime_duration@posix_time@2@H@Z 10009fa0 f i misc.obj
 0001:00009020       ??D?$time_duration@V0posix_time@boost@@V?$time_resolution_traits@Utime_resolution_traits_adapted64_impl@date_time@boost@@$04$0PECEA@$05_J@date_time@2@@date_time@boost@@QBE?AVtime_duration@posix_time@2@H@Z 1000a020 f i misc.obj
 0001:000090a0       ??_0?$time_duration@V0posix_time@boost@@V?$time_resolution_traits@Utime_resolution_traits_adapted64_impl@date_time@boost@@$04$0PECEA@$05_J@date_time@2@@date_time@boost@@QAE?AVtime_duration@posix_time@2@H@Z 1000a0a0 f i misc.obj
 0001:00009120       ??Y?$time_duration@V0posix_time@boost@@V?$time_resolution_traits@Utime_resolution_traits_adapted64_impl@date_time@boost@@$04$0PECEA@$05_J@date_time@2@@date_time@boost@@QAE?AVtime_duration@posix_time@2@ABV342@@Z 1000a120 f i misc.obj
 0001:00009160       ??Z?$time_duration@V0posix_time@boost@@V?$time_resolution_traits@Utime_resolution_traits_adapted64_impl@date_time@boost@@$04$0PECEA@$05_J@date_time@2@@date_time@boost@@QAE?AVtime_duration@posix_time@2@ABV342@@Z 1000a160 f i misc.obj
 0001:000091a0       ??K?$time_duration@V0posix_time@boost@@V?$time_resolution_traits@Utime_resolution_traits_adapted64_impl@date_time@boost@@$04$0PECEA@$05_J@date_time@2@@date_time@boost@@QBE?AVtime_duration@posix_time@2@H@Z 1000a1a0 f i misc.obj
 0001:00009230       ??H?$time_duration@V0posix_time@boost@@V?$time_resolution_traits@Utime_resolution_traits_adapted64_impl@date_time@boost@@$04$0PECEA@$05_J@date_time@2@@date_time@boost@@QBE?AVtime_duration@posix_time@2@ABV342@@Z 1000a230 f i misc.obj
 0001:00009260       ??G?$time_duration@V0posix_time@boost@@V?$time_resolution_traits@Utime_resolution_traits_adapted64_impl@date_time@boost@@$04$0PECEA@$05_J@date_time@2@@date_time@boost@@QBE?AVtime_duration@posix_time@2@ABV342@@Z 1000a260 f i misc.obj
 0001:00009290       ?seekpos@?$basic_stringbuf@DU?$char_traits@D@std@@V?$allocator@D@2@@std@@MAE?AV?$fpos@U_Mbstatet@@@2@V32@H@Z 1000a290 f i misc.obj
 0001:000093a0       ?seekoff@?$basic_stringbuf@DU?$char_traits@D@std@@V?$allocator@D@2@@std@@MAE?AV?$fpos@U_Mbstatet@@@2@_JHH@Z 1000a3a0 f i misc.obj
 0001:00009530       ?underflow@?$basic_stringbuf@DU?$char_traits@D@std@@V?$allocator@D@2@@std@@MAEHXZ 1000a530 f i misc.obj
 0001:00009590       ?pbackfail@?$basic_stringbuf@DU?$char_traits@D@std@@V?$allocator@D@2@@std@@MAEHH@Z 1000a590 f i misc.obj
 0001:000095e0       ?overflow@?$basic_stringbuf@DU?$char_traits@D@std@@V?$allocator@D@2@@std@@MAEHH@Z 1000a5e0 f i misc.obj
 0001:000097a0       ??1?$basic_stringbuf@DU?$char_traits@D@std@@V?$allocator@D@2@@std@@UAE@XZ 1000a7a0 f i misc.obj
 0001:00009850       ??H?$date@V0gregorian@boost@@Vgregorian_calendar@12@Vdate_duration@12@@date_time@boost@@QBE?AVdate@gregorian@2@ABVdate_duration@42@@Z 1000a850 f i misc.obj
 0001:00009950       ??G?$date@V0gregorian@boost@@Vgregorian_calendar@12@Vdate_duration@12@@date_time@boost@@QBE?AVdate@gregorian@2@ABVdate_duration@42@@Z 1000a950 f i misc.obj
 0001:00009a50       ??1?$refcount_ptr@Uerror_info_container@exception_detail@boost@@@exception_detail@boost@@QAE@XZ 1000aa50 f i misc.obj
 0001:00009ab0       ?do_truename@?$numpunct@_W@std@@MBE?AV?$basic_string@_WU?$char_traits@_W@std@@V?$allocator@_W@2@@2@XZ 1000aab0 f i misc.obj
 0001:00009b40       ?do_falsename@?$numpunct@_W@std@@MBE?AV?$basic_string@_WU?$char_traits@_W@std@@V?$allocator@_W@2@@2@XZ 1000ab40 f i misc.obj
 0001:00009bd0       ?do_grouping@?$numpunct@D@std@@MBE?AV?$basic_string@DU?$char_traits@D@std@@V?$allocator@D@2@@2@XZ 1000abd0 f i misc.obj
 0001:00009bd0       ?do_grouping@?$numpunct@_W@std@@MBE?AV?$basic_string@DU?$char_traits@D@std@@V?$allocator@D@2@@2@XZ 1000abd0 f i misc.obj
 0001:00009c50       ?do_thousands_sep@?$numpunct@_W@std@@MBE_WXZ 1000ac50 f i misc.obj
 0001:00009c60       ?do_decimal_point@?$numpunct@_W@std@@MBE_WXZ 1000ac60 f i misc.obj
 0001:00009c70       ?do_truename@?$numpunct@D@std@@MBE?AV?$basic_string@DU?$char_traits@D@std@@V?$allocator@D@2@@2@XZ 1000ac70 f i misc.obj
 0001:00009cf0       ?do_falsename@?$numpunct@D@std@@MBE?AV?$basic_string@DU?$char_traits@D@std@@V?$allocator@D@2@@2@XZ 1000acf0 f i misc.obj
 0001:00009d70       ?do_thousands_sep@?$numpunct@D@std@@MBEDXZ 1000ad70 f i misc.obj
 0001:00009d80       ?do_decimal_point@?$numpunct@D@std@@MBEDXZ 1000ad80 f i misc.obj
 0001:00009d90       ?substr@?$basic_string@_WU?$char_traits@_W@std@@V?$allocator@_W@2@@std@@QBE?AV12@II@Z 1000ad90 f i misc.obj
 0001:00009e20       ??0?$basic_string@_WU?$char_traits@_W@std@@V?$allocator@_W@2@@std@@QAE@ABV01@@Z 1000ae20 f i misc.obj
 0001:00009ef0       ??1?$parse_match_result@D@date_time@boost@@QAE@XZ 1000aef0 f i misc.obj
 0001:00009ef0       ??1?$basic_string@DU?$char_traits@D@std@@V?$allocator@D@2@@std@@QAE@XZ 1000aef0 f i misc.obj
 0001:00009ef0       ??1?$pair@$$CBV?$basic_string@DU?$char_traits@D@std@@V?$allocator@D@2@@std@@G@std@@QAE@XZ 1000aef0 f i misc.obj
 0001:00009f40       ??4?$basic_string@DU?$char_traits@D@std@@V?$allocator@D@2@@std@@QAEAAV01@$$QAV01@@Z 1000af40 f i misc.obj
 0001:0000a000       ??0?$basic_string@DU?$char_traits@D@std@@V?$allocator@D@2@@std@@QAE@QBD@Z 1000b000 f i misc.obj
 0001:0000a080       ??0?$basic_string@DU?$char_traits@D@std@@V?$allocator@D@2@@std@@QAE@ABV01@@Z 1000b080 f i misc.obj
 0001:0000a140       ??_E?$basic_altstringbuf@_WU?$char_traits@_W@std@@V?$allocator@_W@2@@io@boost@@UAEPAXI@Z 1000b140 f i * CIL library *:* CIL module *
 0001:0000a140       ??_G?$basic_altstringbuf@_WU?$char_traits@_W@std@@V?$allocator@_W@2@@io@boost@@UAEPAXI@Z 1000b140 f i misc.obj
 0001:0000a160       ??_E?$basic_stringbuf@_WU?$char_traits@_W@std@@V?$allocator@_W@2@@std@@UAEPAXI@Z 1000b160 f i * CIL library *:* CIL module *
 0001:0000a160       ??_G?$basic_stringbuf@_WU?$char_traits@_W@std@@V?$allocator@_W@2@@std@@UAEPAXI@Z 1000b160 f i misc.obj
 0001:0000a180       ??_E?$basic_ostringstream@_WU?$char_traits@_W@std@@V?$allocator@_W@2@@std@@UAEPAXI@Z 1000b180 f i * CIL library *:* CIL module *
 0001:0000a180       ??_G?$basic_ostringstream@_WU?$char_traits@_W@std@@V?$allocator@_W@2@@std@@UAEPAXI@Z 1000b180 f i misc.obj
 0001:0000a1e0       ??0clone_base@exception_detail@boost@@QAE@ABV012@@Z 1000b1e0 f i misc.obj
 0001:0000a1f0       ??_E?$basic_stringbuf@DU?$char_traits@D@std@@V?$allocator@D@2@@std@@UAEPAXI@Z 1000b1f0 f i * CIL library *:* CIL module *
 0001:0000a1f0       ??_G?$basic_stringbuf@DU?$char_traits@D@std@@V?$allocator@D@2@@std@@UAEPAXI@Z 1000b1f0 f i misc.obj
 0001:0000a210       ??_E?$numpunct@_W@std@@MAEPAXI@Z 1000b210 f i * CIL library *:* CIL module *
 0001:0000a210       ??_G?$numpunct@_W@std@@MAEPAXI@Z 1000b210 f i misc.obj
 0001:0000a260       ??_G?$numpunct@D@std@@MAEPAXI@Z 1000b260 f i misc.obj
 0001:0000a260       ??_E?$numpunct@D@std@@MAEPAXI@Z 1000b260 f i * CIL library *:* CIL module *
 0001:0000a2b0       ??1sentry@?$basic_ostream@_WU?$char_traits@_W@std@@@std@@QAE@XZ 1000b2b0 f i misc.obj
 0001:0000a320       ?_Tidy@?$vector@V?$basic_string@DU?$char_traits@D@std@@V?$allocator@D@2@@std@@V?$allocator@V?$basic_string@DU?$char_traits@D@std@@V?$allocator@D@2@@std@@@2@@std@@AAEXXZ 1000b320 f i misc.obj
 0001:0000a3a0       ?create_time@?$second_clock@Vptime@posix_time@boost@@@date_time@boost@@CA?AVptime@posix_time@3@PAUtm@@@Z 1000b3a0 f i misc.obj
 0001:0000a4b0       ?create_time@?$microsec_clock@Vptime@posix_time@boost@@@date_time@boost@@CA?AVptime@posix_time@3@P6APAUtm@@PB_JPAU6@@Z@Z 1000b4b0 f i misc.obj
 0001:0000a6f0       ?subtract_times@?$counted_time_system@U?$counted_time_rep@Vmillisec_posix_time_system_config@posix_time@boost@@@date_time@boost@@@date_time@boost@@SA?AVtime_duration@posix_time@3@ABU?$counted_time_rep@Vmillisec_posix_time_system_config@posix_time@boost@@@23@0@Z 1000b6f0 f i misc.obj
 0001:0000a810       ?add_time_duration@?$counted_time_system@U?$counted_time_rep@Vmillisec_posix_time_system_config@posix_time@boost@@@date_time@boost@@@date_time@boost@@SA?AU?$counted_time_rep@Vmillisec_posix_time_system_config@posix_time@boost@@@23@ABU423@Vtime_duration@posix_time@3@@Z 1000b810 f i misc.obj
 0001:0000a8c0       ?subtract_time_duration@?$counted_time_system@U?$counted_time_rep@Vmillisec_posix_time_system_config@posix_time@boost@@@date_time@boost@@@date_time@boost@@SA?AU?$counted_time_rep@Vmillisec_posix_time_system_config@posix_time@boost@@@23@ABU423@ABVtime_duration@posix_time@3@@Z 1000b8c0 f i misc.obj
 0001:0000a970       ?is_less@?$counted_time_system@U?$counted_time_rep@Vmillisec_posix_time_system_config@posix_time@boost@@@date_time@boost@@@date_time@boost@@SA_NABU?$counted_time_rep@Vmillisec_posix_time_system_config@posix_time@boost@@@23@0@Z 1000b970 f i misc.obj
 0001:0000a9a0       ?get_time_rep@?$counted_time_system@U?$counted_time_rep@Vmillisec_posix_time_system_config@posix_time@boost@@@date_time@boost@@@date_time@boost@@SA?AU?$counted_time_rep@Vmillisec_posix_time_system_config@posix_time@boost@@@23@W4special_values@23@@Z 1000b9a0 f i misc.obj
 0001:0000ab70       ??M?$int_adapter@_J@date_time@boost@@QBE_NABH@Z 1000bb70 f i misc.obj
 0001:0000aba0       ?size@?$basic_string@_WU?$char_traits@_W@std@@V?$allocator@_W@2@@std@@QBEIXZ 1000bba0 f i misc.obj
 0001:0000abb0       ?assign@?$basic_string@DU?$char_traits@D@std@@V?$allocator@D@2@@std@@QAEAAV12@QBDI@Z 1000bbb0 f i misc.obj
 0001:0000ace0       ??1_Sentry_base@?$basic_ostream@_WU?$char_traits@_W@std@@@std@@QAE@XZ 1000bce0 f i misc.obj
 0001:0000ad30       ?_Destroy@?$vector@V?$basic_string@DU?$char_traits@D@std@@V?$allocator@D@2@@std@@V?$allocator@V?$basic_string@DU?$char_traits@D@std@@V?$allocator@D@2@@std@@@2@@std@@AAEXPAV?$basic_string@DU?$char_traits@D@std@@V?$allocator@D@2@@2@0@Z 1000bd30 f i misc.obj
 0001:0000ad50       ?deallocate@?$allocator@V?$basic_string@DU?$char_traits@D@std@@V?$allocator@D@2@@std@@@std@@QAEXQAV?$basic_string@DU?$char_traits@D@std@@V?$allocator@D@2@@2@I@Z 1000bd50 f i misc.obj
 0001:0000ad90       ?date@?$counted_time_rep@Vmillisec_posix_time_system_config@posix_time@boost@@@date_time@boost@@QBE?AV0gregorian@3@XZ 1000bd90 f i misc.obj
 0001:0000ae70       ??0?$counted_time_rep@Vmillisec_posix_time_system_config@posix_time@boost@@@date_time@boost@@QAE@ABVdate@gregorian@2@ABVtime_duration@posix_time@2@@Z 1000be70 f i misc.obj
 0001:0000b000       ?compare@?$int_adapter@J@date_time@boost@@ABEHABV123@@Z 1000c000 f i misc.obj
 0001:0000b0b0       ?on_error@?$simple_exception_policy@G$00$0M@Ubad_month@gregorian@boost@@@CV@boost@@SAXGGW4violation_enum@23@@Z 1000c0b0 f i misc.obj
 0001:0000b0f0       ?on_error@?$simple_exception_policy@G$0FHI@$0CHAP@Ubad_year@gregorian@boost@@@CV@boost@@SAXGGW4violation_enum@23@@Z 1000c0f0 f i misc.obj
 0001:0000b130       ?on_error@?$simple_exception_policy@G$00$0BP@Ubad_day_of_month@gregorian@boost@@@CV@boost@@SAXGGW4violation_enum@23@@Z 1000c130 f i misc.obj
 0001:0000b170       ?mult_div_specials@?$int_adapter@_J@date_time@boost@@ABE?AV123@ABH@Z 1000c170 f i misc.obj
 0001:0000b250       ?compare@?$int_adapter@_J@date_time@boost@@ABEHABV123@@Z 1000c250 f i misc.obj
 0001:0000b3a0       ?_Xran@?$_String_val@U?$_Simple_types@_W@std@@@std@@SAXXZ 1000c3a0 f i misc.obj
 0001:0000b3a0       ?_Xran@?$_String_val@U?$_Simple_types@D@std@@@std@@SAXXZ 1000c3a0 f i misc.obj
 0001:0000b3b0       ?day_number@?$gregorian_calendar_base@U?$year_month_day_base@Vgreg_year@gregorian@boost@@Vgreg_month@23@Vgreg_day@23@@date_time@boost@@I@date_time@boost@@SAIABU?$year_month_day_base@Vgreg_year@gregorian@boost@@Vgreg_month@23@Vgreg_day@23@@23@@Z 1000c3b0 f i misc.obj
 0001:0000b440       ?from_day_number@?$gregorian_calendar_base@U?$year_month_day_base@Vgreg_year@gregorian@boost@@Vgreg_month@23@Vgreg_day@23@@date_time@boost@@I@date_time@boost@@SA?AU?$year_month_day_base@Vgreg_year@gregorian@boost@@Vgreg_month@23@Vgreg_day@23@@23@I@Z 1000c440 f i misc.obj
 0001:0000b550       ??$throw_exception@Ubad_day_of_month@gregorian@boost@@@boost@@YAXABUbad_day_of_month@gregorian@0@@Z 1000c550 f i misc.obj
 0001:0000b580       ??$throw_exception@Vruntime_error@std@@@boost@@YAXABVruntime_error@std@@@Z 1000c580 f i misc.obj
 0001:0000b5b0       ??$to_simple_string_type@_W@gregorian@boost@@YA?AV?$basic_string@_WU?$char_traits@_W@std@@V?$allocator@_W@2@@std@@ABVdate@01@@Z 1000c5b0 f i misc.obj
 0001:0000b6e0       ??$to_iso_string_type@_W@gregorian@boost@@YA?AV?$basic_string@_WU?$char_traits@_W@std@@V?$allocator@_W@2@@std@@ABVdate@01@@Z 1000c6e0 f i misc.obj
 0001:0000b810       ??$tolower@D@std@@YADDABVlocale@0@@Z 1000c810 f i misc.obj
 0001:0000b910       ??$parse_date@Vdate@gregorian@boost@@@date_time@boost@@YA?AVdate@gregorian@1@ABV?$basic_string@DU?$char_traits@D@std@@V?$allocator@D@2@@std@@H@Z 1000c910 f i misc.obj
 0001:0000bdd0       ??$parse_undelimited_date@Vdate@gregorian@boost@@@date_time@boost@@YA?AVdate@gregorian@1@ABV?$basic_string@DU?$char_traits@D@std@@V?$allocator@D@2@@std@@@Z 1000cdd0 f i misc.obj
 0001:0000c090       ??$to_simple_string_type@_W@posix_time@boost@@YA?AV?$basic_string@_WU?$char_traits@_W@std@@V?$allocator@_W@2@@std@@Vtime_duration@01@@Z 1000d090 f i misc.obj
 0001:0000c3b0       ??$to_iso_string_type@_W@posix_time@boost@@YA?AV?$basic_string@_WU?$char_traits@_W@std@@V?$allocator@_W@2@@std@@Vtime_duration@01@@Z 1000d3b0 f i misc.obj
 0001:0000c6c0       ??$to_simple_string_type@_W@posix_time@boost@@YA?AV?$basic_string@_WU?$char_traits@_W@std@@V?$allocator@_W@2@@std@@Vptime@01@@Z 1000d6c0 f i misc.obj
 0001:0000c8e0       ??$to_iso_string_type@_W@posix_time@boost@@YA?AV?$basic_string@_WU?$char_traits@_W@std@@V?$allocator@_W@2@@std@@Vptime@01@@Z 1000d8e0 f i misc.obj
 0001:0000cb00       ??$parse_delimited_time@Vptime@posix_time@boost@@@date_time@boost@@YA?AVptime@posix_time@1@ABV?$basic_string@DU?$char_traits@D@std@@V?$allocator@D@2@@std@@D@Z 1000db00 f i misc.obj
 0001:0000cc50       ??$parse_iso_time@Vptime@posix_time@boost@@@date_time@boost@@YA?AVptime@posix_time@1@ABV?$basic_string@DU?$char_traits@D@std@@V?$allocator@D@2@@std@@D@Z 1000dc50 f i misc.obj
 0001:0000d140       ??$?H_WU?$char_traits@_W@std@@V?$allocator@_W@1@@std@@YA?AV?$basic_string@_WU?$char_traits@_W@std@@V?$allocator@_W@2@@0@$$QAV10@0@Z 1000e140 f i misc.obj
 0001:0000d160       ??$?H_WU?$char_traits@_W@std@@V?$allocator@_W@1@@std@@YA?AV?$basic_string@_WU?$char_traits@_W@std@@V?$allocator@_W@2@@0@$$QAV10@QB_W@Z 1000e160 f i misc.obj
 0001:0000d250       ??$?6_WU?$char_traits@_W@std@@@std@@YAAAV?$basic_ostream@_WU?$char_traits@_W@std@@@0@AAV10@PB_W@Z 1000e250 f i misc.obj
 0001:0000d470       ??$?6_WU?$char_traits@_W@std@@@std@@YAAAV?$basic_ostream@_WU?$char_traits@_W@std@@@0@AAV10@_W@Z 1000e470 f i misc.obj
 0001:0000d6a0       ??$throw_exception@Vbad_format_string@io@boost@@@boost@@YAXABVbad_format_string@io@0@@Z 1000e6a0 f i misc.obj
 0001:0000d6d0       ?seekoff@?$basic_altstringbuf@_WU?$char_traits@_W@std@@V?$allocator@_W@2@@io@boost@@MAE?AV?$fpos@U_Mbstatet@@@std@@_JHH@Z 1000e6d0 f i misc.obj
 0001:0000d840       ?seekpos@?$basic_altstringbuf@_WU?$char_traits@_W@std@@V?$allocator@_W@2@@io@boost@@MAE?AV?$fpos@U_Mbstatet@@@std@@V45@H@Z 1000e840 f i misc.obj
 0001:0000d9b0       ?underflow@?$basic_altstringbuf@_WU?$char_traits@_W@std@@V?$allocator@_W@2@@io@boost@@MAEGXZ 1000e9b0 f i misc.obj
 0001:0000da20       ?pbackfail@?$basic_altstringbuf@_WU?$char_traits@_W@std@@V?$allocator@_W@2@@io@boost@@MAEGG@Z 1000ea20 f i misc.obj
 0001:0000da80       ?overflow@?$basic_altstringbuf@_WU?$char_traits@_W@std@@V?$allocator@_W@2@@io@boost@@MAEGG@Z 1000ea80 f i misc.obj
 0001:0000dd40       ??$format@V?$basic_string@_WU?$char_traits@_W@std@@V?$allocator@_W@2@@std@@@yloader@@YA?AV?$basic_string@_WU?$char_traits@_W@std@@V?$allocator@_W@2@@std@@ABV12@V12@@Z 1000ed40 f i misc.obj
 0001:0000de30       ??$_Emplace_reallocate@V?$basic_string@DU?$char_traits@D@std@@V?$allocator@D@2@@std@@@?$vector@V?$basic_string@DU?$char_traits@D@std@@V?$allocator@D@2@@std@@V?$allocator@V?$basic_string@DU?$char_traits@D@std@@V?$allocator@D@2@@std@@@2@@std@@QAEPAV?$basic_string@DU?$char_traits@D@std@@V?$allocator@D@2@@1@QAV21@$$QAV21@@Z 1000ee30 f i misc.obj
 0001:0000dfd0       ??$use_facet@V?$ctype@_W@std@@@std@@YAABV?$ctype@_W@0@ABVlocale@0@@Z 1000efd0 f i misc.obj
 0001:0000e0c0       ??$?H_J@?$int_adapter@_J@date_time@boost@@QBE?AV012@ABV012@@Z 1000f0c0 f i misc.obj
 0001:0000e200       ??$?G_J@?$int_adapter@_J@date_time@boost@@QBE?AV012@ABV012@@Z 1000f200 f i misc.obj
 0001:0000e340       ??$use_facet@V?$numpunct@D@std@@@std@@YAABV?$numpunct@D@0@ABVlocale@0@@Z 1000f340 f i misc.obj
 0001:0000e430       ??$_Traits_find_last_not_of@U?$char_traits@_W@std@@@std@@YAIQB_WII0IU?$integral_constant@_N$00@0@@Z 1000f430 f i misc.obj
 0001:0000e5a0       ??$_Traits_find_first_not_of@U?$char_traits@_W@std@@@std@@YAIQB_WII0IU?$integral_constant@_N$00@0@@Z 1000f5a0 f i misc.obj
 0001:0000e700       ??$_Reallocate_grow_by@V<lambda_1>@?1??append@?$basic_string@_WU?$char_traits@_W@std@@V?$allocator@_W@2@@std@@QAEAAV34@QB_WI@Z@PB_WI@?$basic_string@_WU?$char_traits@_W@std@@V?$allocator@_W@2@@std@@AAEAAV01@IV<lambda_1>@?1??append@01@QAEAAV01@QB_WI@Z@PB_WI@Z 1000f700 f i misc.obj
 0001:0000e880       ??$_Traits_compare@U?$char_traits@D@std@@@std@@YAHQBDI0I@Z 1000f880 f i misc.obj
 0001:0000e900       ??$_Emplace_reallocate@V?$basic_string@_WU?$char_traits@_W@std@@V?$allocator@_W@2@@std@@@?$vector@V?$basic_string@_WU?$char_traits@_W@std@@V?$allocator@_W@2@@std@@V?$allocator@V?$basic_string@_WU?$char_traits@_W@std@@V?$allocator@_W@2@@std@@@2@@std@@QAEPAV?$basic_string@_WU?$char_traits@_W@std@@V?$allocator@_W@2@@1@QAV21@$$QAV21@@Z 1000f900 f i misc.obj
 0001:0000eb20       ??$_Reallocate_grow_by@V<lambda_1>@?1??push_back@?$basic_string@_WU?$char_traits@_W@std@@V?$allocator@_W@2@@std@@QAEX_W@Z@_W@?$basic_string@_WU?$char_traits@_W@std@@V?$allocator@_W@2@@std@@AAEAAV01@IV<lambda_1>@?1??push_back@01@QAEX_W@Z@_W@Z 1000fb20 f i misc.obj
 0001:0000ec80       ??$_Reallocate_grow_by@V<lambda_1>@?1??insert@?$basic_string@_WU?$char_traits@_W@std@@V?$allocator@_W@2@@std@@QAEAAV34@IQB_WI@Z@IPB_WI@?$basic_string@_WU?$char_traits@_W@std@@V?$allocator@_W@2@@std@@AAEAAV01@IV<lambda_1>@?1??insert@01@QAEAAV01@IQB_WI@Z@IPB_WI@Z 1000fc80 f i misc.obj
 0001:0000ee00       ??$_Reallocate_grow_by@V<lambda_1>@?1??append@?$basic_string@_WU?$char_traits@_W@std@@V?$allocator@_W@2@@std@@QAEAAV34@I_W@Z@I_W@?$basic_string@_WU?$char_traits@_W@std@@V?$allocator@_W@2@@std@@AAEAAV01@IV<lambda_1>@?1??append@01@QAEAAV01@I_W@Z@I_W@Z 1000fe00 f i misc.obj
 0001:0000efa0       ??$_Reallocate_grow_by@V<lambda_1>@?1??push_back@?$basic_string@DU?$char_traits@D@std@@V?$allocator@D@2@@std@@QAEXD@Z@D@?$basic_string@DU?$char_traits@D@std@@V?$allocator@D@2@@std@@AAEAAV01@IV<lambda_1>@?1??push_back@01@QAEXD@Z@D@Z 1000ffa0 f i misc.obj
 0001:0000f0d0       ??$_Destroy_range@V?$allocator@V?$basic_string@DU?$char_traits@D@std@@V?$allocator@D@2@@std@@@std@@@std@@YAXPAV?$basic_string@DU?$char_traits@D@std@@V?$allocator@D@2@@0@QAV10@AAV?$allocator@V?$basic_string@DU?$char_traits@D@std@@V?$allocator@D@2@@std@@@0@@Z 100100d0 f i misc.obj
 0001:0000f140       ??$_Destroy_range@V?$allocator@V?$basic_string@_WU?$char_traits@_W@std@@V?$allocator@_W@2@@std@@@std@@@std@@YAXPAV?$basic_string@_WU?$char_traits@_W@std@@V?$allocator@_W@2@@0@QAV10@AAV?$allocator@V?$basic_string@_WU?$char_traits@_W@std@@V?$allocator@_W@2@@std@@@0@@Z 10010140 f i misc.obj
 0001:0000f1b0       ??$throw_exception@Ubad_month@gregorian@boost@@@boost@@YAXABUbad_month@gregorian@0@@Z 100101b0 f i misc.obj
 0001:0000f1e0       ??$throw_exception@Ubad_year@gregorian@boost@@@boost@@YAXABUbad_year@gregorian@0@@Z 100101e0 f i misc.obj
 0001:0000f210       ??1?$wrapexcept@Ubad_month@gregorian@boost@@@boost@@UAE@XZ 10010210 f i misc.obj
 0001:0000f210       ??1?$wrapexcept@Ubad_day_of_month@gregorian@boost@@@boost@@UAE@XZ 10010210 f i misc.obj
 0001:0000f210       ??1?$wrapexcept@Vruntime_error@std@@@boost@@UAE@XZ 10010210 f i misc.obj
 0001:0000f210       ??1?$wrapexcept@Ubad_year@gregorian@boost@@@boost@@UAE@XZ 10010210 f i misc.obj
 0001:0000f290       ??0?$wrapexcept@Ubad_day_of_month@gregorian@boost@@@boost@@QAE@ABU01@@Z 10010290 f i misc.obj
 0001:0000f350       ??0bad_day_of_month@gregorian@boost@@QAE@ABU012@@Z 10010350 f i misc.obj
 0001:0000f390       ??0out_of_range@std@@QAE@ABV01@@Z 10010390 f i misc.obj
 0001:0000f3d0       ??0logic_error@std@@QAE@ABV01@@Z 100103d0 f i misc.obj
 0001:0000f410       ??0?$wrapexcept@Vruntime_error@std@@@boost@@QAE@ABU01@@Z 10010410 f i misc.obj
 0001:0000f4d0       ??1?$char_separator@DU?$char_traits@D@std@@@boost@@QAE@XZ 100104d0 f i misc.obj
 0001:0000f560       ??1?$tokenizer@V?$char_separator@DU?$char_traits@D@std@@@boost@@V?$_String_const_iterator@V?$_String_val@U?$_Simple_types@D@std@@@std@@@std@@V?$basic_string@DU?$char_traits@D@std@@V?$allocator@D@2@@4@@boost@@QAE@XZ 10010560 f i misc.obj
 0001:0000f570       ??1?$token_iterator@V?$char_separator@DU?$char_traits@D@std@@@boost@@V?$_String_const_iterator@V?$_String_val@U?$_Simple_types@D@std@@@std@@@std@@V?$basic_string@DU?$char_traits@D@std@@V?$allocator@D@2@@4@@boost@@QAE@XZ 10010570 f i misc.obj
 0001:0000f5d0       ??1?$vector@_NV?$allocator@_N@std@@@std@@QAE@XZ 100105d0 f i misc.obj
 0001:0000f5d0       ??1offset_separator@boost@@QAE@XZ 100105d0 f i misc.obj
 0001:0000f630       ??1?$tokenizer@Voffset_separator@boost@@V?$_String_const_iterator@V?$_String_val@U?$_Simple_types@D@std@@@std@@@std@@V?$basic_string@DU?$char_traits@D@std@@V?$allocator@D@2@@4@@boost@@QAE@XZ 10010630 f i misc.obj
 0001:0000f690       ??1?$token_iterator@Voffset_separator@boost@@V?$_String_const_iterator@V?$_String_val@U?$_Simple_types@D@std@@@std@@@std@@V?$basic_string@DU?$char_traits@D@std@@V?$allocator@D@2@@4@@boost@@QAE@XZ 10010690 f i misc.obj
 0001:0000f730       ??1?$string_parse_tree@D@date_time@boost@@QAE@XZ 10010730 f i misc.obj
 0001:0000f730       ??1?$multimap@DU?$string_parse_tree@D@date_time@boost@@U?$less@D@std@@V?$allocator@U?$pair@$$CBDU?$string_parse_tree@D@date_time@boost@@@std@@@5@@std@@QAE@XZ 10010730 f i misc.obj
 0001:0000f730       ??1?$special_values_parser@Vdate@gregorian@boost@@D@date_time@boost@@QAE@XZ 10010730 f i misc.obj
 0001:0000f740       ??_D?$basic_stringstream@DU?$char_traits@D@std@@V?$allocator@D@2@@std@@QAEXXZ 10010740 f i misc.obj
 0001:0000f780       ??1?$wrapexcept@Vbad_format_string@io@boost@@@boost@@UAE@XZ 10010780 f i misc.obj
 0001:0000f780       ??1?$wrapexcept@Vtoo_many_args@io@boost@@@boost@@UAE@XZ 10010780 f i misc.obj
 0001:0000f780       ??1?$wrapexcept@Vtoo_few_args@io@boost@@@boost@@UAE@XZ 10010780 f i misc.obj
 0001:0000f780       ??1?$wrapexcept@Vbad_lexical_cast@boost@@@boost@@UAE@XZ 10010780 f i misc.obj
 0001:0000f800       ??0?$wrapexcept@Vbad_format_string@io@boost@@@boost@@QAE@ABU01@@Z 10010800 f i misc.obj
 0001:0000f8d0       ??0bad_format_string@io@boost@@QAE@ABV012@@Z 100108d0 f i misc.obj
 0001:0000f910       ??0format_error@io@boost@@QAE@ABV012@@Z 10010910 f i misc.obj
 0001:0000f950       ??1?$basic_format@_WU?$char_traits@_W@std@@V?$allocator@_W@2@@boost@@QAE@XZ 10010950 f i misc.obj
 0001:0000fa30       ??1?$optional@Vlocale@std@@@boost@@QAE@XZ 10010a30 f i misc.obj
 0001:0000fa60       ??0?$wrapexcept@Ubad_month@gregorian@boost@@@boost@@QAE@ABU01@@Z 10010a60 f i misc.obj
 0001:0000fb20       ??0bad_month@gregorian@boost@@QAE@ABU012@@Z 10010b20 f i misc.obj
 0001:0000fb60       ??0?$wrapexcept@Ubad_year@gregorian@boost@@@boost@@QAE@ABU01@@Z 10010b60 f i misc.obj
 0001:0000fc20       ??0bad_year@gregorian@boost@@QAE@ABU012@@Z 10010c20 f i misc.obj
 0001:0000fc60       ??_E?$wrapexcept@Ubad_day_of_month@gregorian@boost@@@boost@@UAEPAXI@Z 10010c60 f i * CIL library *:* CIL module *
 0001:0000fc60       ??_G?$wrapexcept@Ubad_month@gregorian@boost@@@boost@@UAEPAXI@Z 10010c60 f i misc.obj
 0001:0000fc60       ??_G?$wrapexcept@Vruntime_error@std@@@boost@@UAEPAXI@Z 10010c60 f i misc.obj
 0001:0000fc60       ??_G?$wrapexcept@Ubad_year@gregorian@boost@@@boost@@UAEPAXI@Z 10010c60 f i misc.obj
 0001:0000fc60       ??_E?$wrapexcept@Ubad_year@gregorian@boost@@@boost@@UAEPAXI@Z 10010c60 f i * CIL library *:* CIL module *
 0001:0000fc60       ??_E?$wrapexcept@Ubad_month@gregorian@boost@@@boost@@UAEPAXI@Z 10010c60 f i * CIL library *:* CIL module *
 0001:0000fc60       ??_E?$wrapexcept@Vruntime_error@std@@@boost@@UAEPAXI@Z 10010c60 f i * CIL library *:* CIL module *
 0001:0000fc60       ??_G?$wrapexcept@Ubad_day_of_month@gregorian@boost@@@boost@@UAEPAXI@Z 10010c60 f i misc.obj
 0001:0000fcf0       ??_E?$wrapexcept@Vbad_lexical_cast@boost@@@boost@@UAEPAXI@Z 10010cf0 f i * CIL library *:* CIL module *
 0001:0000fcf0       ??_E?$wrapexcept@Vtoo_few_args@io@boost@@@boost@@UAEPAXI@Z 10010cf0 f i * CIL library *:* CIL module *
 0001:0000fcf0       ??_G?$wrapexcept@Vtoo_few_args@io@boost@@@boost@@UAEPAXI@Z 10010cf0 f i misc.obj
 0001:0000fcf0       ??_G?$wrapexcept@Vbad_format_string@io@boost@@@boost@@UAEPAXI@Z 10010cf0 f i misc.obj
 0001:0000fcf0       ??_G?$wrapexcept@Vtoo_many_args@io@boost@@@boost@@UAEPAXI@Z 10010cf0 f i misc.obj
 0001:0000fcf0       ??_E?$wrapexcept@Vbad_format_string@io@boost@@@boost@@UAEPAXI@Z 10010cf0 f i * CIL library *:* CIL module *
 0001:0000fcf0       ??_E?$wrapexcept@Vtoo_many_args@io@boost@@@boost@@UAEPAXI@Z 10010cf0 f i * CIL library *:* CIL module *
 0001:0000fcf0       ??_G?$wrapexcept@Vbad_lexical_cast@boost@@@boost@@UAEPAXI@Z 10010cf0 f i misc.obj
 0001:0000fd80       ?rethrow@?$wrapexcept@Ubad_year@gregorian@boost@@@boost@@UBEXXZ 10010d80 f i misc.obj
 0001:0000fdb0       ?clone@?$wrapexcept@Ubad_year@gregorian@boost@@@boost@@UBEPBVclone_base@exception_detail@2@XZ 10010db0 f i misc.obj
 0001:0000fe30       ??0?$wrapexcept@Ubad_year@gregorian@boost@@@boost@@QAE@ABUbad_year@gregorian@1@@Z 10010e30 f i misc.obj
 0001:0000fea0       ?rethrow@?$wrapexcept@Ubad_month@gregorian@boost@@@boost@@UBEXXZ 10010ea0 f i misc.obj
 0001:0000fed0       ?clone@?$wrapexcept@Ubad_month@gregorian@boost@@@boost@@UBEPBVclone_base@exception_detail@2@XZ 10010ed0 f i misc.obj
 0001:0000ff50       ??0?$wrapexcept@Ubad_month@gregorian@boost@@@boost@@QAE@ABUbad_month@gregorian@1@@Z 10010f50 f i misc.obj
 0001:0000ffc0       ?_Delete_this@?$_Ref_count_obj2@VDateImpl@@@std@@EAEXXZ 10010fc0 f i misc.obj
 0001:0000ffc0       ?_Delete_this@?$_Ref_count_obj2@VTimeDurationImpl@@@std@@EAEXXZ 10010fc0 f i misc.obj
 0001:0000ffc0       ?_Delete_this@?$_Ref_count_resource@PA_WU?$default_delete@$$BY0A@_W@std@@@std@@EAEXXZ 10010fc0 f i misc.obj
 0001:0000ffc0       ?_Delete_this@?$_Ref_count_obj2@VDateTimeImpl@@@std@@EAEXXZ 10010fc0 f i misc.obj
 0001:0000ffc0       ?_Delete_this@?$_Ref_count@VDateImpl@@@std@@EAEXXZ 10010fc0 f i misc.obj
 0001:0000ffc0       ?_Delete_this@?$_Ref_count@V?$basic_string@_WU?$char_traits@_W@std@@V?$allocator@_W@2@@std@@@std@@EAEXXZ 10010fc0 f i namevalue.obj
 0001:0000ffc0       ?_Delete_this@?$_Ref_count@VTimeDurationImpl@@@std@@EAEXXZ 10010fc0 f i misc.obj
 0001:0000ffc0       ?_Delete_this@?$_Ref_count@VNameValue@yloader@@@std@@EAEXXZ 10010fc0 f i namevalue.obj
 0001:0000ffc0       ?_Delete_this@?$_Ref_count_resource@PADU?$default_delete@$$BY0A@D@std@@@std@@EAEXXZ 10010fc0 f i misc.obj
 0001:0000ffc0       ?_Delete_this@?$_Ref_count@VDateTimeImpl@@@std@@EAEXXZ 10010fc0 f i misc.obj
 0001:0000ffc0       ?_Delete_this@?$_Ref_count_obj2@VDateDurationImpl@@@std@@EAEXXZ 10010fc0 f i misc.obj
 0001:0000ffd0       ?_Destroy@?$_Ref_count@VTimeDurationImpl@@@std@@EAEXXZ 10010fd0 f i misc.obj
 0001:0000ffd0       ?dispose@?$sp_counted_impl_p@V?$clone_impl@Ubad_exception_@exception_detail@boost@@@exception_detail@boost@@@detail@boost@@UAEXXZ 10010fd0 f i misc.obj
 0001:0000ffd0       ?_Destroy@?$_Ref_count@VDateImpl@@@std@@EAEXXZ 10010fd0 f i misc.obj
 0001:0000ffd0       ?dispose@?$sp_counted_impl_p@V?$clone_impl@Ubad_alloc_@exception_detail@boost@@@exception_detail@boost@@@detail@boost@@UAEXXZ 10010fd0 f i misc.obj
 0001:0000ffd0       ?_Destroy@?$_Ref_count@VDateTimeImpl@@@std@@EAEXXZ 10010fd0 f i misc.obj
 0001:0000ffe0       ??1?$unique_ptr@V_Facet_base@std@@U?$default_delete@V_Facet_base@std@@@2@@std@@QAE@XZ 10010fe0 f i misc.obj
 0001:0000ffe0       ??1?$_Temporary_owner@VDateTimeImpl@@@std@@QAE@XZ 10010fe0 f i misc.obj
 0001:0000ffe0       ??1?$_Temporary_owner@VTimeDurationImpl@@@std@@QAE@XZ 10010fe0 f i misc.obj
 0001:0000ffe0       ??1?$_Temporary_owner@VDateImpl@@@std@@QAE@XZ 10010fe0 f i misc.obj
 0001:0000fff0       ?_Destroy@?$_Ref_count_obj2@VDateTimeImpl@@@std@@EAEXXZ 10010ff0 f i misc.obj
 0001:0000fff0       ?_Destroy@?$_Ref_count_obj2@VTimeDurationImpl@@@std@@EAEXXZ 10010ff0 f i misc.obj
 0001:00010000       ?_Destroy@?$_Ref_count_obj2@VDateImpl@@@std@@EAEXXZ 10011000 f i misc.obj
 0001:00010000       ?_Destroy@?$_Ref_count_obj2@VDateDurationImpl@@@std@@EAEXXZ 10011000 f i misc.obj
 0001:00010010       ?rethrow@?$wrapexcept@Vbad_format_string@io@boost@@@boost@@UBEXXZ 10011010 f i misc.obj
 0001:00010040       ?clone@?$wrapexcept@Vbad_format_string@io@boost@@@boost@@UBEPBVclone_base@exception_detail@2@XZ 10011040 f i misc.obj
 0001:000100c0       ??0?$wrapexcept@Vbad_format_string@io@boost@@@boost@@QAE@ABVbad_format_string@io@1@@Z 100110c0 f i misc.obj
 0001:00010140       ??0?$special_values_parser@Vdate@gregorian@boost@@D@date_time@boost@@QAE@XZ 10011140 f i misc.obj
 0001:00010440       ??1?$_Tree@V?$_Tmap_traits@DU?$string_parse_tree@D@date_time@boost@@U?$less@D@std@@V?$allocator@U?$pair@$$CBDU?$string_parse_tree@D@date_time@boost@@@std@@@5@$00@std@@@std@@QAE@XZ 10011440 f i misc.obj
 0001:00010490       ?rethrow@?$wrapexcept@Vruntime_error@std@@@boost@@UBEXXZ 10011490 f i misc.obj
 0001:000104c0       ?clone@?$wrapexcept@Vruntime_error@std@@@boost@@UBEPBVclone_base@exception_detail@2@XZ 100114c0 f i misc.obj
 0001:00010540       ??0?$wrapexcept@Vruntime_error@std@@@boost@@QAE@ABVruntime_error@std@@@Z 10011540 f i misc.obj
 0001:000105b0       ?rethrow@?$wrapexcept@Ubad_day_of_month@gregorian@boost@@@boost@@UBEXXZ 100115b0 f i misc.obj
 0001:000105e0       ?clone@?$wrapexcept@Ubad_day_of_month@gregorian@boost@@@boost@@UBEPBVclone_base@exception_detail@2@XZ 100115e0 f i misc.obj
 0001:00010660       ??0?$wrapexcept@Ubad_day_of_month@gregorian@boost@@@boost@@QAE@ABUbad_day_of_month@gregorian@1@@Z 10011660 f i misc.obj
 0001:000106d0       ?_Xlength@?$vector@U?$format_item@_WU?$char_traits@_W@std@@V?$allocator@_W@2@@detail@io@boost@@V?$allocator@U?$format_item@_WU?$char_traits@_W@std@@V?$allocator@_W@2@@detail@io@boost@@@std@@@std@@CAXXZ 100116d0 f i misc.obj
 0001:000106d0       ?_Xlength@?$vector@V?$basic_string@_WU?$char_traits@_W@std@@V?$allocator@_W@2@@std@@V?$allocator@V?$basic_string@_WU?$char_traits@_W@std@@V?$allocator@_W@2@@std@@@2@@std@@CAXXZ 100116d0 f i misc.obj
 0001:000106d0       ?_Xlength@?$vector@V?$basic_string@DU?$char_traits@D@std@@V?$allocator@D@2@@std@@V?$allocator@V?$basic_string@DU?$char_traits@D@std@@V?$allocator@D@2@@std@@@2@@std@@CAXXZ 100116d0 f i misc.obj
 0001:000106d0       ?_Xlength@?$vector@V?$shared_ptr@VNameValue@yloader@@@std@@V?$allocator@V?$shared_ptr@VNameValue@yloader@@@std@@@2@@std@@CAXXZ 100116d0 f i namevalue.obj
 0001:000106e0       ?_Change_array@?$vector@V?$basic_string@DU?$char_traits@D@std@@V?$allocator@D@2@@std@@V?$allocator@V?$basic_string@DU?$char_traits@D@std@@V?$allocator@D@2@@std@@@2@@std@@AAEXQAV?$basic_string@DU?$char_traits@D@std@@V?$allocator@D@2@@2@II@Z 100116e0 f i misc.obj
 0001:00010770       ??1?$vector@U?$format_item@_WU?$char_traits@_W@std@@V?$allocator@_W@2@@detail@io@boost@@V?$allocator@U?$format_item@_WU?$char_traits@_W@std@@V?$allocator@_W@2@@detail@io@boost@@@std@@@std@@QAE@XZ 10011770 f i misc.obj
 0001:00010800       ?end@?$tokenizer@Voffset_separator@boost@@V?$_String_const_iterator@V?$_String_val@U?$_Simple_types@D@std@@@std@@@std@@V?$basic_string@DU?$char_traits@D@std@@V?$allocator@D@2@@4@@boost@@QBE?AV?$token_iterator@Voffset_separator@boost@@V?$_String_const_iterator@V?$_String_val@U?$_Simple_types@D@std@@@std@@@std@@V?$basic_string@DU?$char_traits@D@std@@V?$allocator@D@2@@4@@2@XZ 10011800 f i misc.obj
 0001:000108a0       ?begin@?$tokenizer@Voffset_separator@boost@@V?$_String_const_iterator@V?$_String_val@U?$_Simple_types@D@std@@@std@@@std@@V?$basic_string@DU?$char_traits@D@std@@V?$allocator@D@2@@4@@boost@@QBE?AV?$token_iterator@Voffset_separator@boost@@V?$_String_const_iterator@V?$_String_val@U?$_Simple_types@D@std@@@std@@@std@@V?$basic_string@DU?$char_traits@D@std@@V?$allocator@D@2@@4@@2@XZ 100118a0 f i misc.obj
 0001:00010940       ?_Getcat@?$numpunct@_W@std@@SAIPAPBVfacet@locale@2@PBV42@@Z 10011940 f i misc.obj
 0001:00010b20       ?_Getcat@?$numpunct@D@std@@SAIPAPBVfacet@locale@2@PBV42@@Z 10011b20 f i misc.obj
 0001:00010d00       ??0?$basic_string@_WU?$char_traits@_W@std@@V?$allocator@_W@2@@std@@QAE@U_String_constructor_concat_tag@1@AAV01@1@Z 10011d00 f i misc.obj
 0001:00010f40       ??0?$basic_string@_WU?$char_traits@_W@std@@V?$allocator@_W@2@@std@@QAE@U_String_constructor_concat_tag@1@ABV01@QB_WI2I@Z 10011f40 f i misc.obj
 0001:00011030       ??_G?$_Ref_count@VDateTimeImpl@@@std@@UAEPAXI@Z 10012030 f i misc.obj
 0001:00011030       ??_E?$_Ref_count@VTimeDurationImpl@@@std@@UAEPAXI@Z 10012030 f i * CIL library *:* CIL module *
 0001:00011030       ??_G?$_Ref_count_resource@PADU?$default_delete@$$BY0A@D@std@@@std@@UAEPAXI@Z 10012030 f i misc.obj
 0001:00011030       ??_E?$_Ref_count@VNameValue@yloader@@@std@@UAEPAXI@Z 10012030 f i * CIL library *:* CIL module *
 0001:00011030       ??_E?$_Ref_count@VDateTimeImpl@@@std@@UAEPAXI@Z 10012030 f i * CIL library *:* CIL module *
 0001:00011030       ??_G?$_Ref_count@V?$basic_string@_WU?$char_traits@_W@std@@V?$allocator@_W@2@@std@@@std@@UAEPAXI@Z 10012030 f i namevalue.obj
 0001:00011030       ??_E?$_Ref_count@V?$basic_string@_WU?$char_traits@_W@std@@V?$allocator@_W@2@@std@@@std@@UAEPAXI@Z 10012030 f i * CIL library *:* CIL module *
 0001:00011030       ??_E?$_Ref_count_resource@PA_WU?$default_delete@$$BY0A@_W@std@@@std@@UAEPAXI@Z 10012030 f i * CIL library *:* CIL module *
 0001:00011030       ??_G?$_Ref_count@VDateImpl@@@std@@UAEPAXI@Z 10012030 f i misc.obj
 0001:00011030       ??_E?$_Ref_count@VDateImpl@@@std@@UAEPAXI@Z 10012030 f i * CIL library *:* CIL module *
 0001:00011030       ??_G?$_Ref_count_resource@PA_WU?$default_delete@$$BY0A@_W@std@@@std@@UAEPAXI@Z 10012030 f i misc.obj
 0001:00011030       ??_E?$_Ref_count_resource@PADU?$default_delete@$$BY0A@D@std@@@std@@UAEPAXI@Z 10012030 f i * CIL library *:* CIL module *
 0001:00011030       ??_G?$_Ref_count@VTimeDurationImpl@@@std@@UAEPAXI@Z 10012030 f i misc.obj
 0001:00011030       ??_G?$_Ref_count@VNameValue@yloader@@@std@@UAEPAXI@Z 10012030 f i namevalue.obj
 0001:00011050       ??_E?$_Ref_count_obj2@VDateTimeImpl@@@std@@UAEPAXI@Z 10012050 f i * CIL library *:* CIL module *
 0001:00011050       ??_G?$_Ref_count_obj2@VDateTimeImpl@@@std@@UAEPAXI@Z 10012050 f i misc.obj
 0001:00011080       ??_G?$_Ref_count_obj2@VTimeDurationImpl@@@std@@UAEPAXI@Z 10012080 f i misc.obj
 0001:00011080       ??_E?$_Ref_count_obj2@VTimeDurationImpl@@@std@@UAEPAXI@Z 10012080 f i * CIL library *:* CIL module *
 0001:000110b0       ??_E?$_Ref_count_obj2@VDateImpl@@@std@@UAEPAXI@Z 100120b0 f i * CIL library *:* CIL module *
 0001:000110b0       ??_G?$_Ref_count_obj2@VDateImpl@@@std@@UAEPAXI@Z 100120b0 f i misc.obj
 0001:000110e0       ??_E?$_Ref_count_obj2@VDateDurationImpl@@@std@@UAEPAXI@Z 100120e0 f i * CIL library *:* CIL module *
 0001:000110e0       ??_G?$_Ref_count_obj2@VDateDurationImpl@@@std@@UAEPAXI@Z 100120e0 f i misc.obj
 0001:00011110       ??0bad_exception@std@@QAE@ABV01@@Z 10012110 f i misc.obj
 0001:00011150       ??_G?$basic_stringstream@DU?$char_traits@D@std@@V?$allocator@D@2@@std@@UAEPAXI@Z 10012150 f i misc.obj
 0001:00011150       ??_E?$basic_stringstream@DU?$char_traits@D@std@@V?$allocator@D@2@@std@@UAEPAXI@Z 10012150 f i * CIL library *:* CIL module *
 0001:000111b0       ??1deleter@?$wrapexcept@Vtoo_many_args@io@boost@@@boost@@QAE@XZ 100121b0 f i misc.obj
 0001:000111b0       ??1deleter@?$wrapexcept@Ubad_day_of_month@gregorian@boost@@@boost@@QAE@XZ 100121b0 f i misc.obj
 0001:000111b0       ??1deleter@?$wrapexcept@Vruntime_error@std@@@boost@@QAE@XZ 100121b0 f i misc.obj
 0001:000111b0       ??1deleter@?$wrapexcept@Vbad_lexical_cast@boost@@@boost@@QAE@XZ 100121b0 f i misc.obj
 0001:000111b0       ??1deleter@?$wrapexcept@Ubad_year@gregorian@boost@@@boost@@QAE@XZ 100121b0 f i misc.obj
 0001:000111b0       ??1deleter@?$wrapexcept@Vtoo_few_args@io@boost@@@boost@@QAE@XZ 100121b0 f i misc.obj
 0001:000111b0       ??1deleter@?$wrapexcept@Ubad_month@gregorian@boost@@@boost@@QAE@XZ 100121b0 f i misc.obj
 0001:000111b0       ??1deleter@?$wrapexcept@Vbad_format_string@io@boost@@@boost@@QAE@XZ 100121b0 f i misc.obj
 0001:000111c0       ?ymd_to_string@?$ymd_formatter@U?$year_month_day_base@Vgreg_year@gregorian@boost@@Vgreg_month@23@Vgreg_day@23@@date_time@boost@@V?$simple_format@_W@23@_W@date_time@boost@@SA?AV?$basic_string@_WU?$char_traits@_W@std@@V?$allocator@_W@2@@std@@U?$year_month_day_base@Vgreg_year@gregorian@boost@@Vgreg_month@23@Vgreg_day@23@@23@@Z 100121c0 f i misc.obj
 0001:000113b0       ?ymd_to_string@?$ymd_formatter@U?$year_month_day_base@Vgreg_year@gregorian@boost@@Vgreg_month@23@Vgreg_day@23@@date_time@boost@@V?$iso_format@_W@23@_W@date_time@boost@@SA?AV?$basic_string@_WU?$char_traits@_W@std@@V?$allocator@_W@2@@std@@U?$year_month_day_base@Vgreg_year@gregorian@boost@@Vgreg_month@23@Vgreg_day@23@@23@@Z 100123b0 f i misc.obj
 0001:000115e0       ?ymd_to_string@?$ymd_formatter@U?$year_month_day_base@Vgreg_year@gregorian@boost@@Vgreg_month@23@Vgreg_day@23@@date_time@boost@@V?$iso_extended_format@_W@23@_W@date_time@boost@@SA?AV?$basic_string@_WU?$char_traits@_W@std@@V?$allocator@_W@2@@std@@U?$year_month_day_base@Vgreg_year@gregorian@boost@@Vgreg_month@23@Vgreg_day@23@@23@@Z 100125e0 f i misc.obj
 0001:00011840       ?sv_strings@?$special_values_parser@Vdate@gregorian@boost@@D@date_time@boost@@QAEXABV?$basic_string@DU?$char_traits@D@std@@V?$allocator@D@2@@std@@0000@Z 10012840 f i misc.obj
 0001:00011ac0       ?match@?$string_parse_tree@D@date_time@boost@@QBEFAAV?$istreambuf_iterator@DU?$char_traits@D@std@@@std@@0AAU?$parse_match_result@D@23@AAI@Z 10012ac0 f i misc.obj
 0001:00011d50       ??0?$token_iterator@Voffset_separator@boost@@V?$_String_const_iterator@V?$_String_val@U?$_Simple_types@D@std@@@std@@@std@@V?$basic_string@DU?$char_traits@D@std@@V?$allocator@D@2@@4@@boost@@QAE@Voffset_separator@1@V?$_String_const_iterator@V?$_String_val@U?$_Simple_types@D@std@@@std@@@std@@1@Z 10012d50 f i misc.obj
 0001:00011e90       ??0?$token_iterator@V?$char_separator@DU?$char_traits@D@std@@@boost@@V?$_String_const_iterator@V?$_String_val@U?$_Simple_types@D@std@@@std@@@std@@V?$basic_string@DU?$char_traits@D@std@@V?$allocator@D@2@@4@@boost@@QAE@V?$char_separator@DU?$char_traits@D@std@@@1@V?$_String_const_iterator@V?$_String_val@U?$_Simple_types@D@std@@@std@@@std@@1@Z 10012e90 f i misc.obj
 0001:00011f70       ?_Buy_raw@?$vector@HV?$allocator@H@std@@@std@@AAEXI@Z 10012f70 f i misc.obj
 0001:00012000       ??0?$string_parse_tree@D@date_time@boost@@QAE@V?$vector@V?$basic_string@DU?$char_traits@D@std@@V?$allocator@D@2@@std@@V?$allocator@V?$basic_string@DU?$char_traits@D@std@@V?$allocator@D@2@@std@@@2@@std@@I@Z 10013000 f i misc.obj
 0001:00012170       ?_Destroy@?$vector@U?$format_item@_WU?$char_traits@_W@std@@V?$allocator@_W@2@@detail@io@boost@@V?$allocator@U?$format_item@_WU?$char_traits@_W@std@@V?$allocator@_W@2@@detail@io@boost@@@std@@@std@@AAEXPAU?$format_item@_WU?$char_traits@_W@std@@V?$allocator@_W@2@@detail@io@boost@@0@Z 10013170 f i misc.obj
 0001:000121a0       ?deallocate@?$allocator@U?$format_item@_WU?$char_traits@_W@std@@V?$allocator@_W@2@@detail@io@boost@@@std@@QAEXQAU?$format_item@_WU?$char_traits@_W@std@@V?$allocator@_W@2@@detail@io@boost@@I@Z 100131a0 f i misc.obj
 0001:000121e0       ??1?$_Tidy_guard@V?$numpunct@D@std@@@std@@QAE@XZ 100131e0 f i misc.obj
 0001:000121e0       ??1?$_Tidy_guard@V?$numpunct@_W@std@@@std@@QAE@XZ 100131e0 f i misc.obj
 0001:00012210       ??1?$_Tidy_guard@V?$vector@V?$basic_string@DU?$char_traits@D@std@@V?$allocator@D@2@@std@@V?$allocator@V?$basic_string@DU?$char_traits@D@std@@V?$allocator@D@2@@std@@@2@@std@@@std@@QAE@XZ 10013210 f i misc.obj
 0001:00012220       ??1?$basic_ios_fill_saver@_WU?$char_traits@_W@std@@@io@boost@@QAE@XZ 10013220 f i misc.obj
 0001:00012230       ?insert@?$string_parse_tree@D@date_time@boost@@QAEXABV?$basic_string@DU?$char_traits@D@std@@V?$allocator@D@2@@std@@G@Z 10013230 f i misc.obj
 0001:00012570       ??1?$pair@$$CBDU?$string_parse_tree@D@date_time@boost@@@std@@QAE@XZ 10013570 f i misc.obj
 0001:00012580       ??$?6_WU?$char_traits@_W@std@@@std@@YAAAV?$basic_ostream@_WU?$char_traits@_W@std@@@0@AAV10@D@Z 10013580 f i misc.obj
 0001:00012800       ??0?$basic_format@_WU?$char_traits@_W@std@@V?$allocator@_W@2@@boost@@QAE@ABV?$basic_string@_WU?$char_traits@_W@std@@V?$allocator@_W@2@@std@@@Z 10013800 f i misc.obj
 0001:00012900       ?str@?$basic_format@_WU?$char_traits@_W@std@@V?$allocator@_W@2@@boost@@QBE?AV?$basic_string@_WU?$char_traits@_W@std@@V?$allocator@_W@2@@std@@XZ 10013900 f i misc.obj
 0001:00012c30       ??$?6_WU?$char_traits@_W@std@@@std@@YAAAV?$basic_ostream@_WU?$char_traits@_W@std@@@0@AAV10@PBD@Z 10013c30 f i misc.obj
 0001:00012f00       ??$?6_WU?$char_traits@_W@std@@_J@std@@YAAAV?$basic_ostream@_WU?$char_traits@_W@std@@@0@AAV10@ABU?$_Smanip@_J@0@@Z 10013f00 f i misc.obj
 0001:00012f30       ??$?0V?$basic_string@DU?$char_traits@D@std@@V?$allocator@D@2@@std@@@?$tokenizer@V?$char_separator@DU?$char_traits@D@std@@@boost@@V?$_String_const_iterator@V?$_String_val@U?$_Simple_types@D@std@@@std@@@std@@V?$basic_string@DU?$char_traits@D@std@@V?$allocator@D@2@@4@@boost@@QAE@ABV?$basic_string@DU?$char_traits@D@std@@V?$allocator@D@2@@std@@ABV?$char_separator@DU?$char_traits@D@std@@@1@@Z 10013f30 f i misc.obj
 0001:00012fe0       ??$month_str_to_ushort@Vgreg_month@gregorian@boost@@@date_time@boost@@YAGABV?$basic_string@DU?$char_traits@D@std@@V?$allocator@D@2@@std@@@Z 10013fe0 f i misc.obj
 0001:00013930       ??$?0V?$basic_string@DU?$char_traits@D@std@@V?$allocator@D@2@@std@@@?$tokenizer@Voffset_separator@boost@@V?$_String_const_iterator@V?$_String_val@U?$_Simple_types@D@std@@@std@@@std@@V?$basic_string@DU?$char_traits@D@std@@V?$allocator@D@2@@4@@boost@@QAE@ABV?$basic_string@DU?$char_traits@D@std@@V?$allocator@D@2@@std@@ABVoffset_separator@1@@Z 10014930 f i misc.obj
 0001:000139e0       ??$str_from_delimited_time_duration@Vtime_duration@posix_time@boost@@D@date_time@boost@@YA?AVtime_duration@posix_time@1@ABV?$basic_string@DU?$char_traits@D@std@@V?$allocator@D@2@@std@@@Z 100149e0 f i misc.obj
 0001:00013f50       ??$parse_undelimited_time_duration@Vtime_duration@posix_time@boost@@@date_time@boost@@YA?AVtime_duration@posix_time@1@ABV?$basic_string@DU?$char_traits@D@std@@V?$allocator@D@2@@std@@@Z 10014f50 f i misc.obj
 0001:000144f0       ??$get_static_exception_object@Ubad_alloc_@exception_detail@boost@@@exception_detail@boost@@YA?AVexception_ptr@1@XZ 100154f0 f i misc.obj
 0001:000147c0       ??$get_static_exception_object@Ubad_exception_@exception_detail@boost@@@exception_detail@boost@@YA?AVexception_ptr@1@XZ 100157c0 f i misc.obj
 0001:00014a90       ??$_Insert_string@_WU?$char_traits@_W@std@@I@std@@YAAAV?$basic_ostream@_WU?$char_traits@_W@std@@@0@AAV10@QB_WI@Z 10015a90 f i misc.obj
 0001:00014c90       ??$throw_bad_cast@V?$basic_string@_WU?$char_traits@_W@std@@V?$allocator@_W@2@@std@@I@detail@conversion@boost@@YAXXZ 10015c90 f i misc.obj
 0001:00014ce0       ??$_Uninitialized_move@PAV?$basic_string@DU?$char_traits@D@std@@V?$allocator@D@2@@std@@V?$allocator@V?$basic_string@DU?$char_traits@D@std@@V?$allocator@D@2@@std@@@2@@std@@YAPAV?$basic_string@DU?$char_traits@D@std@@V?$allocator@D@2@@0@QAV10@0PAV10@AAV?$allocator@V?$basic_string@DU?$char_traits@D@std@@V?$allocator@D@2@@std@@@0@@Z 10015ce0 f i misc.obj
 0001:00014d80       ??$_Uninitialized_move@PAV?$basic_string@_WU?$char_traits@_W@std@@V?$allocator@_W@2@@std@@V?$allocator@V?$basic_string@_WU?$char_traits@_W@std@@V?$allocator@_W@2@@std@@@2@@std@@YAPAV?$basic_string@_WU?$char_traits@_W@std@@V?$allocator@_W@2@@0@QAV10@0PAV10@AAV?$allocator@V?$basic_string@_WU?$char_traits@_W@std@@V?$allocator@_W@2@@std@@@0@@Z 10015d80 f i misc.obj
 0001:00014e20       ??$_Emplace_reallocate@ABV?$basic_string@DU?$char_traits@D@std@@V?$allocator@D@2@@std@@@?$vector@V?$basic_string@DU?$char_traits@D@std@@V?$allocator@D@2@@std@@V?$allocator@V?$basic_string@DU?$char_traits@D@std@@V?$allocator@D@2@@std@@@2@@std@@QAEPAV?$basic_string@DU?$char_traits@D@std@@V?$allocator@D@2@@1@QAV21@ABV21@@Z 10015e20 f i misc.obj
 0001:00014fc0       ??$?RV?$_String_const_iterator@V?$_String_val@U?$_Simple_types@D@std@@@std@@@std@@V?$basic_string@DU?$char_traits@D@std@@V?$allocator@D@2@@1@@offset_separator@boost@@QAE_NAAV?$_String_const_iterator@V?$_String_val@U?$_Simple_types@D@std@@@std@@@std@@V23@AAV?$basic_string@DU?$char_traits@D@std@@V?$allocator@D@2@@3@@Z 10015fc0 f i misc.obj
 0001:00015060       ??$?RV?$_String_const_iterator@V?$_String_val@U?$_Simple_types@D@std@@@std@@@std@@V?$basic_string@DU?$char_traits@D@std@@V?$allocator@D@2@@1@@?$char_separator@DU?$char_traits@D@std@@@boost@@QAE_NAAV?$_String_const_iterator@V?$_String_val@U?$_Simple_types@D@std@@@std@@@std@@V23@AAV?$basic_string@DU?$char_traits@D@std@@V?$allocator@D@2@@3@@Z 10016060 f i misc.obj
 0001:000154d0       ??$insert@$00$0A@@?$_Tree@V?$_Tmap_traits@DU?$string_parse_tree@D@date_time@boost@@U?$less@D@std@@V?$allocator@U?$pair@$$CBDU?$string_parse_tree@D@date_time@boost@@@std@@@5@$00@std@@@std@@QAE?AV?$_Tree_iterator@V?$_Tree_val@U?$_Tree_simple_types@U?$pair@$$CBDU?$string_parse_tree@D@date_time@boost@@@std@@@std@@@std@@@1@$$QAU?$pair@$$CBDU?$string_parse_tree@D@date_time@boost@@@1@@Z 100164d0 f i misc.obj
 0001:00015600       ??$_Erase_tree@V?$allocator@U?$_Tree_node@U?$pair@$$CBDU?$string_parse_tree@D@date_time@boost@@@std@@PAX@std@@@std@@@?$_Tree_val@U?$_Tree_simple_types@U?$pair@$$CBDU?$string_parse_tree@D@date_time@boost@@@std@@@std@@@std@@QAEXAAV?$allocator@U?$_Tree_node@U?$pair@$$CBDU?$string_parse_tree@D@date_time@boost@@@std@@PAX@std@@@1@PAU?$_Tree_node@U?$pair@$$CBDU?$string_parse_tree@D@date_time@boost@@@std@@PAX@1@@Z 10016600 f i misc.obj
 0001:00015650       ??_D?$clone_impl@Ubad_alloc_@exception_detail@boost@@@exception_detail@boost@@QAEXXZ 10016650 f i misc.obj
 0001:00015700       ??0?$clone_impl@Ubad_alloc_@exception_detail@boost@@@exception_detail@boost@@QAE@ABV012@@Z 10016700 f i misc.obj
 0001:000157a0       ??_D?$clone_impl@Ubad_exception_@exception_detail@boost@@@exception_detail@boost@@QAEXXZ 100167a0 f i misc.obj
 0001:00015850       ??0?$clone_impl@Ubad_exception_@exception_detail@boost@@@exception_detail@boost@@QAE@ABV012@@Z 10016850 f i misc.obj
 0001:000158f0       ??_G?$clone_impl@Ubad_alloc_@exception_detail@boost@@@exception_detail@boost@@UAEPAXI@Z 100168f0 f i misc.obj
 0001:000158f0       ??_E?$clone_impl@Ubad_alloc_@exception_detail@boost@@@exception_detail@boost@@UAEPAXI@Z 100168f0 f i * CIL library *:* CIL module *
 0001:00015910       ??0bad_alloc_@exception_detail@boost@@QAE@ABU012@@Z 10016910 f i misc.obj
 0001:00015990       ??_G?$clone_impl@Ubad_exception_@exception_detail@boost@@@exception_detail@boost@@UAEPAXI@Z 10016990 f i misc.obj
 0001:00015990       ??_E?$clone_impl@Ubad_exception_@exception_detail@boost@@@exception_detail@boost@@UAEPAXI@Z 10016990 f i * CIL library *:* CIL module *
 0001:000159b0       ??0bad_exception_@exception_detail@boost@@QAE@ABU012@@Z 100169b0 f i misc.obj
 0001:00015a30       ??1?$_Uninitialized_backout_al@V?$allocator@V?$basic_string@DU?$char_traits@D@std@@V?$allocator@D@2@@std@@@std@@@std@@QAE@XZ 10016a30 f i misc.obj
 0001:00015a40       ?try_convert@?$lexical_converter_impl@IV?$basic_string@_WU?$char_traits@_W@std@@V?$allocator@_W@2@@std@@@detail@boost@@SA_NABV?$basic_string@_WU?$char_traits@_W@std@@V?$allocator@_W@2@@std@@AAI@Z 10016a40 f i misc.obj
 0001:00015ad0       ?_Destroy@?$_Ref_count_resource@PADU?$default_delete@$$BY0A@D@std@@@std@@EAEXXZ 10016ad0 f i misc.obj
 0001:00015ad0       ?_Destroy@?$_Ref_count_resource@PA_WU?$default_delete@$$BY0A@_W@std@@@std@@EAEXXZ 10016ad0 f i misc.obj
 0001:00015ae0       ?_Get_deleter@?$_Ref_count_resource@PADU?$default_delete@$$BY0A@D@std@@@std@@UBEPAXABVtype_info@@@Z 10016ae0 f i misc.obj
 0001:00015b10       ??1?$_Temporary_owner_del@PA_WU?$default_delete@$$BY0A@_W@std@@@std@@QAE@XZ 10016b10 f i misc.obj
 0001:00015b10       ??1?$_Temporary_owner_del@PADU?$default_delete@$$BY0A@D@std@@@std@@QAE@XZ 10016b10 f i misc.obj
 0001:00015b20       ?_Get_deleter@?$_Ref_count_resource@PA_WU?$default_delete@$$BY0A@_W@std@@@std@@UBEPAXABVtype_info@@@Z 10016b20 f i misc.obj
 0001:00015b50       ?rethrow@?$clone_impl@Ubad_exception_@exception_detail@boost@@@exception_detail@boost@@EBEXXZ 10016b50 f i misc.obj
 0001:00015b80       ?clone@?$clone_impl@Ubad_exception_@exception_detail@boost@@@exception_detail@boost@@EBEPBVclone_base@23@XZ 10016b80 f i misc.obj
 0001:00015c40       ?rethrow@?$clone_impl@Ubad_alloc_@exception_detail@boost@@@exception_detail@boost@@EBEXXZ 10016c40 f i misc.obj
 0001:00015c70       ?clone@?$clone_impl@Ubad_alloc_@exception_detail@boost@@@exception_detail@boost@@EBEPBVclone_base@23@XZ 10016c70 f i misc.obj
 0001:00015d30       ??1?$_Tree@V?$_Tmap_traits@V?$basic_string@DU?$char_traits@D@std@@V?$allocator@D@2@@std@@GU?$less@V?$basic_string@DU?$char_traits@D@std@@V?$allocator@D@2@@std@@@2@V?$allocator@U?$pair@$$CBV?$basic_string@DU?$char_traits@D@std@@V?$allocator@D@2@@std@@G@std@@@2@$0A@@std@@@std@@QAE@XZ 10016d30 f i misc.obj
 0001:00015d50       ??G?$time_duration@V0posix_time@boost@@V?$time_resolution_traits@Utime_resolution_traits_adapted64_impl@date_time@boost@@$04$0PECEA@$05_J@date_time@2@@date_time@boost@@QBE?AVtime_duration@posix_time@2@XZ 10016d50 f i misc.obj
 0001:00015dd0       ?compare@?$_WChar_traits@_W@std@@SAHQB_W0I@Z 10016dd0 f i misc.obj
 0001:00015e20       ?parse@?$basic_format@_WU?$char_traits@_W@std@@V?$allocator@_W@2@@boost@@QAEAAV12@ABV?$basic_string@_WU?$char_traits@_W@std@@V?$allocator@_W@2@@std@@@Z 10016e20 f i misc.obj
 0001:00016300       ??$throw_exception@Vtoo_few_args@io@boost@@@boost@@YAXABVtoo_few_args@io@0@@Z 10017300 f i misc.obj
 0001:00016330       ??$throw_bad_cast@V?$basic_string@DU?$char_traits@D@std@@V?$allocator@D@2@@std@@G@detail@conversion@boost@@YAXXZ 10017330 f i misc.obj
 0001:00016380       ??$lexical_cast@_JV?$basic_string@DU?$char_traits@D@std@@V?$allocator@D@2@@std@@@boost@@YA_JABV?$basic_string@DU?$char_traits@D@std@@V?$allocator@D@2@@std@@@Z 10017380 f i misc.obj
 0001:00016450       ??$_Construct_in_place@VTimeDurationImpl@@Vtime_duration@posix_time@boost@@@std@@YAXAAVTimeDurationImpl@@$$QAVtime_duration@posix_time@boost@@@Z 10017450 f i misc.obj
 0001:00016470       ??$_Construct_in_place@VDateTimeImpl@@Vptime@posix_time@boost@@@std@@YAXAAVDateTimeImpl@@$$QAVptime@posix_time@boost@@@Z 10017470 f i misc.obj
 0001:00016470       ??$_Construct_in_place@VDateTimeImpl@@AAVptime@posix_time@boost@@@std@@YAXAAVDateTimeImpl@@AAVptime@posix_time@boost@@@Z 10017470 f i misc.obj
 0001:00016490       ??$throw_exception@Vbad_lexical_cast@boost@@@boost@@YAXABVbad_lexical_cast@0@@Z 10017490 f i misc.obj
 0001:000164c0       ??$transform_range_copy@V?$basic_string@DU?$char_traits@D@std@@V?$allocator@D@2@@std@@V12@U?$to_lowerF@D@detail@algorithm@boost@@@detail@algorithm@boost@@YA?AV?$basic_string@DU?$char_traits@D@std@@V?$allocator@D@2@@std@@ABV34@U?$to_lowerF@D@012@@Z 100174c0 f i misc.obj
 0001:000165c0       ??$_Reallocate_grow_by@V<lambda_1>@?1??reserve@?$basic_string@_WU?$char_traits@_W@std@@V?$allocator@_W@2@@std@@QAEXI@Z@$$V@?$basic_string@_WU?$char_traits@_W@std@@V?$allocator@_W@2@@std@@AAEAAV01@IV<lambda_1>@?1??reserve@01@QAEXI@Z@@Z 100175c0 f i misc.obj
 0001:000166f0       ??1?$format_item@_WU?$char_traits@_W@std@@V?$allocator@_W@2@@detail@io@boost@@QAE@XZ 100176f0 f i misc.obj
 0001:000167b0       ??0?$wrapexcept@Vtoo_few_args@io@boost@@@boost@@QAE@ABU01@@Z 100177b0 f i misc.obj
 0001:00016880       ??0too_few_args@io@boost@@QAE@ABV012@@Z 10017880 f i misc.obj
 0001:000168c0       ??0?$wrapexcept@Vbad_lexical_cast@boost@@@boost@@QAE@ABU01@@Z 100178c0 f i misc.obj
 0001:00016990       ??0bad_lexical_cast@boost@@QAE@ABV01@@Z 10017990 f i misc.obj
 0001:000169d0       ?convert@?$lcast_ret_unsigned@U?$char_traits@_W@std@@I_W@detail@boost@@QAE_NXZ 100179d0 f i misc.obj
 0001:00016d00       ??1?$_Tree_temp_node@V?$allocator@U?$_Tree_node@U?$pair@$$CBDU?$string_parse_tree@D@date_time@boost@@@std@@PAX@std@@@std@@@std@@QAE@XZ 10017d00 f i misc.obj
 0001:00016d30       ?rethrow@?$wrapexcept@Vbad_lexical_cast@boost@@@boost@@UBEXXZ 10017d30 f i misc.obj
 0001:00016d60       ?clone@?$wrapexcept@Vbad_lexical_cast@boost@@@boost@@UBEPBVclone_base@exception_detail@2@XZ 10017d60 f i misc.obj
 0001:00016de0       ??0?$wrapexcept@Vbad_lexical_cast@boost@@@boost@@QAE@ABVbad_lexical_cast@1@@Z 10017de0 f i misc.obj
 0001:00016e60       ?try_convert@?$lexical_converter_impl@GV?$basic_string@DU?$char_traits@D@std@@V?$allocator@D@2@@std@@@detail@boost@@SA_NABV?$basic_string@DU?$char_traits@D@std@@V?$allocator@D@2@@std@@AAG@Z 10017e60 f i misc.obj
 0001:00016ee0       ?rethrow@?$wrapexcept@Vtoo_few_args@io@boost@@@boost@@UBEXXZ 10017ee0 f i misc.obj
 0001:00016f10       ?clone@?$wrapexcept@Vtoo_few_args@io@boost@@@boost@@UBEPBVclone_base@exception_detail@2@XZ 10017f10 f i misc.obj
 0001:00016f90       ??0?$wrapexcept@Vtoo_few_args@io@boost@@@boost@@QAE@ABVtoo_few_args@io@1@@Z 10017f90 f i misc.obj
 0001:00017010       ??0?$format_item@_WU?$char_traits@_W@std@@V?$allocator@_W@2@@detail@io@boost@@QAE@_W@Z 10018010 f i misc.obj
 0001:000170d0       ?_Insert_node@?$_Tree_val@U?$_Tree_simple_types@U?$pair@$$CBV?$basic_string@_WU?$char_traits@_W@std@@V?$allocator@_W@2@@std@@V?$shared_ptr@VNameValue@yloader@@@2@@std@@@std@@@std@@QAEPAU?$_Tree_node@U?$pair@$$CBV?$basic_string@_WU?$char_traits@_W@std@@V?$allocator@_W@2@@std@@V?$shared_ptr@VNameValue@yloader@@@2@@std@@PAX@2@U?$_Tree_id@PAU?$_Tree_node@U?$pair@$$CBV?$basic_string@_WU?$char_traits@_W@std@@V?$allocator@_W@2@@std@@V?$shared_ptr@VNameValue@yloader@@@2@@std@@PAX@std@@@2@QAU32@@Z 100180d0 f i namevalue.obj
 0001:000170d0       ?_Insert_node@?$_Tree_val@U?$_Tree_simple_types@U?$pair@$$CBDU?$string_parse_tree@D@date_time@boost@@@std@@@std@@@std@@QAEPAU?$_Tree_node@U?$pair@$$CBDU?$string_parse_tree@D@date_time@boost@@@std@@PAX@2@U?$_Tree_id@PAU?$_Tree_node@U?$pair@$$CBDU?$string_parse_tree@D@date_time@boost@@@std@@PAX@std@@@2@QAU32@@Z 100180d0 f i misc.obj
 0001:000170d0       ?_Insert_node@?$_Tree_val@U?$_Tree_simple_types@U?$pair@$$CBV?$basic_string@DU?$char_traits@D@std@@V?$allocator@D@2@@std@@G@std@@@std@@@std@@QAEPAU?$_Tree_node@U?$pair@$$CBV?$basic_string@DU?$char_traits@D@std@@V?$allocator@D@2@@std@@G@std@@PAX@2@U?$_Tree_id@PAU?$_Tree_node@U?$pair@$$CBV?$basic_string@DU?$char_traits@D@std@@V?$allocator@D@2@@std@@G@std@@PAX@std@@@2@QAU32@@Z 100180d0 f i misc.obj
 0001:000172e0       ?resize@?$vector@U?$format_item@_WU?$char_traits@_W@std@@V?$allocator@_W@2@@detail@io@boost@@V?$allocator@U?$format_item@_WU?$char_traits@_W@std@@V?$allocator@_W@2@@detail@io@boost@@@std@@@std@@QAEXIABU?$format_item@_WU?$char_traits@_W@std@@V?$allocator@_W@2@@detail@io@boost@@@Z 100182e0 f i misc.obj
 0001:000173f0       ??1?$_Tree_temp_node_alloc@V?$allocator@U?$_Tree_node@U?$pair@$$CBDU?$string_parse_tree@D@date_time@boost@@@std@@PAX@std@@@std@@@std@@QAE@XZ 100183f0 f i misc.obj
 0001:000173f0       ??1?$_Alloc_construct_ptr@V?$allocator@U?$_Tree_node@U?$pair@$$CBDU?$string_parse_tree@D@date_time@boost@@@std@@PAX@std@@@std@@@std@@QAE@XZ 100183f0 f i misc.obj
 0001:00017410       ?main_convert_loop@?$lcast_ret_unsigned@U?$char_traits@_W@std@@I_W@detail@boost@@AAE_NXZ 10018410 f i misc.obj
 0001:000174a0       ?getloc@?$basic_format@_WU?$char_traits@_W@std@@V?$allocator@_W@2@@boost@@QBE?AVlocale@std@@XZ 100184a0 f i misc.obj
 0001:00017540       ?make_or_reuse_data@?$basic_format@_WU?$char_traits@_W@std@@V?$allocator@_W@2@@boost@@AAEXI@Z 10018540 f i misc.obj
 0001:00017710       ??$upper_bound_from_fstring@V?$basic_string@_WU?$char_traits@_W@std@@V?$allocator@_W@2@@std@@V?$ctype@_W@2@@detail@io@boost@@YAHABV?$basic_string@_WU?$char_traits@_W@std@@V?$allocator@_W@2@@std@@_WABV?$ctype@_W@4@E@Z 10018710 f i misc.obj
 0001:00017890       ??$parse_printf_directive@_WU?$char_traits@_W@std@@V?$allocator@_W@2@V?$_String_const_iterator@V?$_String_val@U?$_Simple_types@_W@std@@@std@@@2@V?$ctype@_W@2@@detail@io@boost@@YA_NAAV?$_String_const_iterator@V?$_String_val@U?$_Simple_types@_W@std@@@std@@@std@@ABV34@PAU?$format_item@_WU?$char_traits@_W@std@@V?$allocator@_W@2@@012@ABV?$ctype@_W@4@IE@Z 10018890 f i misc.obj
 0001:000181c0       ??$throw_bad_cast@V?$basic_string@DU?$char_traits@D@std@@V?$allocator@D@2@@std@@H@detail@conversion@boost@@YAXXZ 100191c0 f i misc.obj
 0001:00018210       ??$throw_bad_cast@V?$basic_string@DU?$char_traits@D@std@@V?$allocator@D@2@@std@@_J@detail@conversion@boost@@YAXXZ 10019210 f i misc.obj
 0001:00018260       ??$throw_bad_cast@V?$basic_string@DU?$char_traits@D@std@@V?$allocator@D@2@@std@@F@detail@conversion@boost@@YAXXZ 10019260 f i misc.obj
 0001:000182b0       ??$feed_impl@_WU?$char_traits@_W@std@@V?$allocator@_W@2@ABU?$put_holder@_WU?$char_traits@_W@std@@@detail@io@boost@@@detail@io@boost@@YAAAV?$basic_format@_WU?$char_traits@_W@std@@V?$allocator@_W@2@@2@AAV32@ABU?$put_holder@_WU?$char_traits@_W@std@@@012@@Z 100192b0 f i misc.obj
 0001:000184d0       ??$_Find_lower_bound@V?$basic_string@DU?$char_traits@D@std@@V?$allocator@D@2@@std@@@?$_Tree@V?$_Tmap_traits@V?$basic_string@DU?$char_traits@D@std@@V?$allocator@D@2@@std@@GU?$less@V?$basic_string@DU?$char_traits@D@std@@V?$allocator@D@2@@std@@@2@V?$allocator@U?$pair@$$CBV?$basic_string@DU?$char_traits@D@std@@V?$allocator@D@2@@std@@G@std@@@2@$0A@@std@@@std@@IBE?AU?$_Tree_find_result@PAU?$_Tree_node@U?$pair@$$CBV?$basic_string@DU?$char_traits@D@std@@V?$allocator@D@2@@std@@G@std@@PAX@std@@@1@ABV?$basic_string@DU?$char_traits@D@std@@V?$allocator@D@2@@1@@Z 100194d0 f i misc.obj
 0001:00018550       ??$_Erase_tree@V?$allocator@U?$_Tree_node@U?$pair@$$CBV?$basic_string@DU?$char_traits@D@std@@V?$allocator@D@2@@std@@G@std@@PAX@std@@@std@@@?$_Tree_val@U?$_Tree_simple_types@U?$pair@$$CBV?$basic_string@DU?$char_traits@D@std@@V?$allocator@D@2@@std@@G@std@@@std@@@std@@QAEXAAV?$allocator@U?$_Tree_node@U?$pair@$$CBV?$basic_string@DU?$char_traits@D@std@@V?$allocator@D@2@@std@@G@std@@PAX@std@@@1@PAU?$_Tree_node@U?$pair@$$CBV?$basic_string@DU?$char_traits@D@std@@V?$allocator@D@2@@std@@G@std@@PAX@1@@Z 10019550 f i misc.obj
 0001:000185e0       ??$_Emplace_hint@ABU?$pair@$$CBV?$basic_string@DU?$char_traits@D@std@@V?$allocator@D@2@@std@@G@std@@@?$_Tree@V?$_Tmap_traits@V?$basic_string@DU?$char_traits@D@std@@V?$allocator@D@2@@std@@GU?$less@V?$basic_string@DU?$char_traits@D@std@@V?$allocator@D@2@@std@@@2@V?$allocator@U?$pair@$$CBV?$basic_string@DU?$char_traits@D@std@@V?$allocator@D@2@@std@@G@std@@@2@$0A@@std@@@std@@IAEPAU?$_Tree_node@U?$pair@$$CBV?$basic_string@DU?$char_traits@D@std@@V?$allocator@D@2@@std@@G@std@@PAX@1@QAU21@ABU?$pair@$$CBV?$basic_string@DU?$char_traits@D@std@@V?$allocator@D@2@@std@@G@1@@Z 100195e0 f i misc.obj
 0001:000186d0       ?convert@?$lcast_ret_unsigned@U?$char_traits@D@std@@GD@detail@boost@@QAE_NXZ 100196d0 f i misc.obj
 0001:00018930       ?try_convert@?$lexical_converter_impl@FV?$basic_string@DU?$char_traits@D@std@@V?$allocator@D@2@@std@@@detail@boost@@SA_NABV?$basic_string@DU?$char_traits@D@std@@V?$allocator@D@2@@std@@AAF@Z 10019930 f i misc.obj
 0001:000189f0       ?try_convert@?$lexical_converter_impl@HV?$basic_string@DU?$char_traits@D@std@@V?$allocator@D@2@@std@@@detail@boost@@SA_NABV?$basic_string@DU?$char_traits@D@std@@V?$allocator@D@2@@std@@AAH@Z 100199f0 f i misc.obj
 0001:00018aa0       ?assign@?$vector@U?$format_item@_WU?$char_traits@_W@std@@V?$allocator@_W@2@@detail@io@boost@@V?$allocator@U?$format_item@_WU?$char_traits@_W@std@@V?$allocator@_W@2@@detail@io@boost@@@std@@@std@@QAEXIABU?$format_item@_WU?$char_traits@_W@std@@V?$allocator@_W@2@@detail@io@boost@@@Z 10019aa0 f i misc.obj
 0001:00018cb0       ?resize@?$vector@_NV?$allocator@_N@std@@@std@@QAEXI_N@Z 10019cb0 f i misc.obj
 0001:00018d10       ??1?$_Alloc_construct_ptr@V?$allocator@U?$_Tree_node@U?$pair@$$CBV?$basic_string@DU?$char_traits@D@std@@V?$allocator@D@2@@std@@G@std@@PAX@std@@@std@@@std@@QAE@XZ 10019d10 f i misc.obj
 0001:00018d10       ??1?$_Tree_temp_node_alloc@V?$allocator@U?$_Tree_node@U?$pair@$$CBV?$basic_string@DU?$char_traits@D@std@@V?$allocator@D@2@@std@@G@std@@PAX@std@@@std@@@std@@QAE@XZ 10019d10 f i misc.obj
 0001:00018d30       ?main_convert_iteration@?$lcast_ret_unsigned@U?$char_traits@D@std@@GD@detail@boost@@AAE_NXZ 10019d30 f i misc.obj
 0001:00018dc0       ?erase@?$vector@_NV?$allocator@_N@std@@@std@@QAE?AV?$_Vb_iterator@U?$_Wrap_alloc@V?$allocator@I@std@@@std@@@2@V?$_Vb_const_iterator@U?$_Wrap_alloc@V?$allocator@I@std@@@std@@@2@0@Z 10019dc0 f i misc.obj
 0001:00018fe0       ?allocate@?$allocator@U?$format_item@_WU?$char_traits@_W@std@@V?$allocator@_W@2@@detail@io@boost@@@std@@QAEPAU?$format_item@_WU?$char_traits@_W@std@@V?$allocator@_W@2@@detail@io@boost@@I@Z 10019fe0 f i misc.obj
 0001:00019040       ?_Xlen@?$vector@_NV?$allocator@_N@std@@@std@@QBEXXZ 1001a040 f i misc.obj
 0001:00019050       ??$str2int@_JV?$_String_const_iterator@V?$_String_val@U?$_Simple_types@_W@std@@@std@@@std@@V?$ctype@_W@2@@detail@io@boost@@YA?AV?$_String_const_iterator@V?$_String_val@U?$_Simple_types@_W@std@@@std@@@std@@ABV34@0AA_JABV?$ctype@_W@4@@Z 1001a050 f i misc.obj
 0001:000190f0       ??$?0V?$clone_impl@Ubad_alloc_@exception_detail@boost@@@exception_detail@boost@@@shared_count@detail@boost@@QAE@PAV?$clone_impl@Ubad_alloc_@exception_detail@boost@@@exception_detail@2@@Z 1001a0f0 f i misc.obj
 0001:00019180       ??$?0V?$clone_impl@Ubad_exception_@exception_detail@boost@@@exception_detail@boost@@@shared_count@detail@boost@@QAE@PAV?$clone_impl@Ubad_exception_@exception_detail@boost@@@exception_detail@2@@Z 1001a180 f i misc.obj
 0001:00019210       ??$call_put_last@_WU?$char_traits@_W@std@@$$CBV?$basic_string@_WU?$char_traits@_W@std@@V?$allocator@_W@2@@2@@detail@io@boost@@YAXAAV?$basic_ostream@_WU?$char_traits@_W@std@@@std@@PBX@Z 1001a210 f i misc.obj
 0001:00019230       ??$call_put_last@_WU?$char_traits@_W@std@@$$CBI@detail@io@boost@@YAXAAV?$basic_ostream@_WU?$char_traits@_W@std@@@std@@PBX@Z 1001a230 f i misc.obj
 0001:00019250       ??$_Find_hint@V?$basic_string@DU?$char_traits@D@std@@V?$allocator@D@2@@std@@@?$_Tree@V?$_Tmap_traits@V?$basic_string@DU?$char_traits@D@std@@V?$allocator@D@2@@std@@GU?$less@V?$basic_string@DU?$char_traits@D@std@@V?$allocator@D@2@@std@@@2@V?$allocator@U?$pair@$$CBV?$basic_string@DU?$char_traits@D@std@@V?$allocator@D@2@@std@@G@std@@@2@$0A@@std@@@std@@IBE?AU?$_Tree_find_hint_result@PAU?$_Tree_node@U?$pair@$$CBV?$basic_string@DU?$char_traits@D@std@@V?$allocator@D@2@@std@@G@std@@PAX@std@@@1@QAU?$_Tree_node@U?$pair@$$CBV?$basic_string@DU?$char_traits@D@std@@V?$allocator@D@2@@std@@G@std@@PAX@1@ABV?$basic_string@DU?$char_traits@D@std@@V?$allocator@D@2@@1@@Z 1001a250 f i misc.obj
 0001:000195b0       ??$_Resize_reallocate@U?$format_item@_WU?$char_traits@_W@std@@V?$allocator@_W@2@@detail@io@boost@@@?$vector@U?$format_item@_WU?$char_traits@_W@std@@V?$allocator@_W@2@@detail@io@boost@@V?$allocator@U?$format_item@_WU?$char_traits@_W@std@@V?$allocator@_W@2@@detail@io@boost@@@std@@@std@@AAEXIABU?$format_item@_WU?$char_traits@_W@std@@V?$allocator@_W@2@@detail@io@boost@@@Z 1001a5b0 f i misc.obj
 0001:00019780       ??$fill@PAU?$format_item@_WU?$char_traits@_W@std@@V?$allocator@_W@2@@detail@io@boost@@U1234@@std@@YAXQAU?$format_item@_WU?$char_traits@_W@std@@V?$allocator@_W@2@@detail@io@boost@@0ABU1234@@Z 1001a780 f i misc.obj
 0001:000198a0       ?convert@?$lcast_ret_unsigned@U?$char_traits@D@std@@ID@detail@boost@@QAE_NXZ 1001a8a0 f i misc.obj
 0001:00019b20       ?convert@?$lcast_ret_unsigned@U?$char_traits@D@std@@_KD@detail@boost@@QAE_NXZ 1001ab20 f i misc.obj
 0001:00019d90       ??1?$_Uninitialized_backout_al@V?$allocator@U?$format_item@_WU?$char_traits@_W@std@@V?$allocator@_W@2@@detail@io@boost@@@std@@@std@@QAE@XZ 1001ad90 f i misc.obj
 0001:00019dc0       ??1?$_Tidy_deallocate_guard@V?$basic_string@DU?$char_traits@D@std@@V?$allocator@D@2@@std@@@std@@QAE@XZ 1001adc0 f i misc.obj
 0001:00019e10       ___scrt_stub_for_is_c_termination_complete 1001ae10 f i MSVCRT:ucrt_stubs.obj
 0001:00019e10       ?get_untyped_deleter@?$sp_counted_impl_p@V?$clone_impl@Ubad_alloc_@exception_detail@boost@@@exception_detail@boost@@@detail@boost@@UAEPAXXZ 1001ae10 f i misc.obj
 0001:00019e10       __is_c_termination_complete 1001ae10 f i MSVCRT:ucrt_stubs.obj
 0001:00019e10       ?get_untyped_deleter@?$sp_counted_impl_p@V?$clone_impl@Ubad_exception_@exception_detail@boost@@@exception_detail@boost@@@detail@boost@@UAEPAXXZ 1001ae10 f i misc.obj
 0001:00019e20       ??_E?$sp_counted_impl_p@V?$clone_impl@Ubad_alloc_@exception_detail@boost@@@exception_detail@boost@@@detail@boost@@UAEPAXI@Z 1001ae20 f i * CIL library *:* CIL module *
 0001:00019e20       ??_G?$sp_counted_impl_p@V?$clone_impl@Ubad_exception_@exception_detail@boost@@@exception_detail@boost@@@detail@boost@@UAEPAXI@Z 1001ae20 f i misc.obj
 0001:00019e20       ??_G?$sp_counted_impl_p@V?$clone_impl@Ubad_alloc_@exception_detail@boost@@@exception_detail@boost@@@detail@boost@@UAEPAXI@Z 1001ae20 f i misc.obj
 0001:00019e20       ??_E?$sp_counted_impl_p@V?$clone_impl@Ubad_exception_@exception_detail@boost@@@exception_detail@boost@@@detail@boost@@UAEPAXI@Z 1001ae20 f i * CIL library *:* CIL module *
 0001:00019e50       ?main_convert_loop@?$lcast_ret_unsigned@U?$char_traits@D@std@@ID@detail@boost@@AAE_NXZ 1001ae50 f i misc.obj
 0001:00019ee0       ?main_convert_iteration@?$lcast_ret_unsigned@U?$char_traits@D@std@@_KD@detail@boost@@AAE_NXZ 1001aee0 f i misc.obj
 0001:00019fd0       ??$checked_delete@V?$clone_impl@Ubad_alloc_@exception_detail@boost@@@exception_detail@boost@@@boost@@YAXPAV?$clone_impl@Ubad_alloc_@exception_detail@boost@@@exception_detail@0@@Z 1001afd0 f i misc.obj
 0001:00019fd0       ??$checked_delete@V?$clone_impl@Ubad_exception_@exception_detail@boost@@@exception_detail@boost@@@boost@@YAXPAV?$clone_impl@Ubad_exception_@exception_detail@boost@@@exception_detail@0@@Z 1001afd0 f i misc.obj
 0001:00019fe0       ??$throw_exception@Vtoo_many_args@io@boost@@@boost@@YAXABVtoo_many_args@io@0@@Z 1001afe0 f i misc.obj
 0001:0001a000       ??$put@_WU?$char_traits@_W@std@@V?$allocator@_W@2@ABU?$put_holder@_WU?$char_traits@_W@std@@@detail@io@boost@@@detail@io@boost@@YAXABU?$put_holder@_WU?$char_traits@_W@std@@@012@ABU?$format_item@_WU?$char_traits@_W@std@@V?$allocator@_W@2@@012@AAV?$basic_string@_WU?$char_traits@_W@std@@V?$allocator@_W@2@@std@@AAV?$basic_altstringbuf@_WU?$char_traits@_W@std@@V?$allocator@_W@2@@12@PAVlocale@6@@Z 1001b000 f i misc.obj
 0001:0001a6d0       ??0?$wrapexcept@Vtoo_many_args@io@boost@@@boost@@QAE@ABU01@@Z 1001b6d0 f i misc.obj
 0001:0001a7a0       ??0too_many_args@io@boost@@QAE@ABV012@@Z 1001b7a0 f i misc.obj
 0001:0001a7e0       ??_D?$basic_oaltstringstream@_WU?$char_traits@_W@std@@V?$allocator@_W@2@@io@boost@@QAEXXZ 1001b7e0 f i misc.obj
 0001:0001a830       ??1?$base_from_member@V?$shared_ptr@V?$basic_altstringbuf@_WU?$char_traits@_W@std@@V?$allocator@_W@2@@io@boost@@@boost@@$0A@@boost@@QAE@XZ 1001b830 f i misc.obj
 0001:0001a870       ?rethrow@?$wrapexcept@Vtoo_many_args@io@boost@@@boost@@UBEXXZ 1001b870 f i misc.obj
 0001:0001a8a0       ?clone@?$wrapexcept@Vtoo_many_args@io@boost@@@boost@@UBEPBVclone_base@exception_detail@2@XZ 1001b8a0 f i misc.obj
 0001:0001a920       ??0?$wrapexcept@Vtoo_many_args@io@boost@@@boost@@QAE@ABVtoo_many_args@io@1@@Z 1001b920 f i misc.obj
 0001:0001a9a0       ??_E?$basic_oaltstringstream@_WU?$char_traits@_W@std@@V?$allocator@_W@2@@io@boost@@UAEPAXI@Z 1001b9a0 f i * CIL library *:* CIL module *
 0001:0001a9a0       ??_G?$basic_oaltstringstream@_WU?$char_traits@_W@std@@V?$allocator@_W@2@@io@boost@@UAEPAXI@Z 1001b9a0 f i misc.obj
 0001:0001aa10       ?clear_buffer@?$basic_altstringbuf@_WU?$char_traits@_W@std@@V?$allocator@_W@2@@io@boost@@QAEXXZ 1001ba10 f i misc.obj
 0001:0001aab0       ?apply_on@?$stream_format_state@_WU?$char_traits@_W@std@@@detail@io@boost@@QBEXAAV?$basic_ios@_WU?$char_traits@_W@std@@@std@@PAVlocale@6@@Z 1001bab0 f i misc.obj
 0001:0001ab60       ??$mk_str@_WU?$char_traits@_W@std@@V?$allocator@_W@2@@detail@io@boost@@YAXAAV?$basic_string@_WU?$char_traits@_W@std@@V?$allocator@_W@2@@std@@PB_WI_J_WH3_N@Z 1001bb60 f i misc.obj
 0001:0001ae80       ??0?$format_item@_WU?$char_traits@_W@std@@V?$allocator@_W@2@@detail@io@boost@@QAE@ABU0123@@Z 1001be80 f i misc.obj
 0001:0001af50       ??0?$format_item@_WU?$char_traits@_W@std@@V?$allocator@_W@2@@detail@io@boost@@QAE@$$QAU0123@@Z 1001bf50 f i misc.obj
 0001:0001b060       ??$?0PAV?$basic_altstringbuf@_WU?$char_traits@_W@std@@V?$allocator@_W@2@@io@boost@@VNo_Op@?$basic_oaltstringstream@_WU?$char_traits@_W@std@@V?$allocator@_W@2@@12@@shared_count@detail@boost@@QAE@PAV?$basic_altstringbuf@_WU?$char_traits@_W@std@@V?$allocator@_W@2@@io@2@VNo_Op@?$basic_oaltstringstream@_WU?$char_traits@_W@std@@V?$allocator@_W@2@@42@@Z 1001c060 f i misc.obj
 0001:0001b0f0       ?get_untyped_deleter@?$sp_counted_impl_pd@PAV?$basic_altstringbuf@_WU?$char_traits@_W@std@@V?$allocator@_W@2@@io@boost@@VNo_Op@?$basic_oaltstringstream@_WU?$char_traits@_W@std@@V?$allocator@_W@2@@23@@detail@boost@@UAEPAXXZ 1001c0f0 f i misc.obj
 0001:0001b100       ?get_local_deleter@?$sp_counted_impl_pd@PAV?$basic_altstringbuf@_WU?$char_traits@_W@std@@V?$allocator@_W@2@@io@boost@@VNo_Op@?$basic_oaltstringstream@_WU?$char_traits@_W@std@@V?$allocator@_W@2@@23@@detail@boost@@UAEPAXABVtype_info@@@Z 1001c100 f i misc.obj
 0001:0001b120       ?get_deleter@?$sp_counted_impl_pd@PAV?$basic_altstringbuf@_WU?$char_traits@_W@std@@V?$allocator@_W@2@@io@boost@@VNo_Op@?$basic_oaltstringstream@_WU?$char_traits@_W@std@@V?$allocator@_W@2@@23@@detail@boost@@UAEPAXABVtype_info@@@Z 1001c120 f i misc.obj
 0001:0001b150       ??_E?$sp_counted_impl_pd@PAV?$basic_altstringbuf@_WU?$char_traits@_W@std@@V?$allocator@_W@2@@io@boost@@VNo_Op@?$basic_oaltstringstream@_WU?$char_traits@_W@std@@V?$allocator@_W@2@@23@@detail@boost@@UAEPAXI@Z 1001c150 f i * CIL library *:* CIL module *
 0001:0001b150       ??_G?$sp_counted_impl_pd@PAV?$basic_altstringbuf@_WU?$char_traits@_W@std@@V?$allocator@_W@2@@io@boost@@VNo_Op@?$basic_oaltstringstream@_WU?$char_traits@_W@std@@V?$allocator@_W@2@@23@@detail@boost@@UAEPAXI@Z 1001c150 f i misc.obj
 0001:0001b171       ?rethrow@?$clone_impl@Ubad_exception_@exception_detail@boost@@@exception_detail@boost@@$0PPPPPPPM@A@BEXXZ 1001c171 f i misc.obj
 0001:0001b179       ??_E?$wrapexcept@Vruntime_error@std@@@boost@@WBA@AEPAXI@Z 1001c179 f i misc.obj
 0001:0001b179       ??_E?$wrapexcept@Ubad_month@gregorian@boost@@@boost@@WBA@AEPAXI@Z 1001c179 f i misc.obj
 0001:0001b179       ??_E?$wrapexcept@Ubad_year@gregorian@boost@@@boost@@WBA@AEPAXI@Z 1001c179 f i misc.obj
 0001:0001b179       ??_E?$wrapexcept@Ubad_day_of_month@gregorian@boost@@@boost@@WBA@AEPAXI@Z 1001c179 f i misc.obj
 0001:0001b181       ?clone@?$clone_impl@Ubad_exception_@exception_detail@boost@@@exception_detail@boost@@$0PPPPPPPM@A@BEPBVclone_base@23@XZ 1001c181 f i misc.obj
 0001:0001b189       ?clone@?$clone_impl@Ubad_alloc_@exception_detail@boost@@@exception_detail@boost@@$0PPPPPPPM@A@BEPBVclone_base@23@XZ 1001c189 f i misc.obj
 0001:0001b191       ??_E?$basic_ostringstream@_WU?$char_traits@_W@std@@V?$allocator@_W@2@@std@@$4PPPPPPPM@A@AEPAXI@Z 1001c191 f i misc.obj
 0001:0001b199       ??_E?$clone_impl@Ubad_alloc_@exception_detail@boost@@@exception_detail@boost@@WBI@AEPAXI@Z 1001c199 f i misc.obj
 0001:0001b1a1       ??_E?$wrapexcept@Vtoo_many_args@io@boost@@@boost@@W3AEPAXI@Z 1001c1a1 f i misc.obj
 0001:0001b1a1       ??_E?$wrapexcept@Vtoo_few_args@io@boost@@@boost@@W3AEPAXI@Z 1001c1a1 f i misc.obj
 0001:0001b1a1       ??_E?$wrapexcept@Vbad_format_string@io@boost@@@boost@@W3AEPAXI@Z 1001c1a1 f i misc.obj
 0001:0001b1a1       ??_E?$wrapexcept@Vbad_lexical_cast@boost@@@boost@@W3AEPAXI@Z 1001c1a1 f i misc.obj
 0001:0001b1a9       ??_E?$basic_stringstream@DU?$char_traits@D@std@@V?$allocator@D@2@@std@@$4PPPPPPPM@A@AEPAXI@Z 1001c1a9 f i misc.obj
 0001:0001b1b1       ??_Ebad_alloc_@exception_detail@boost@@WBI@AEPAXI@Z 1001c1b1 f i misc.obj
 0001:0001b1b9       ??_E?$basic_oaltstringstream@_WU?$char_traits@_W@std@@V?$allocator@_W@2@@io@boost@@$4PPPPPPPM@A@AEPAXI@Z 1001c1b9 f i misc.obj
 0001:0001b1c1       ??_E?$clone_impl@Ubad_exception_@exception_detail@boost@@@exception_detail@boost@@WBI@AEPAXI@Z 1001c1c1 f i misc.obj
 0001:0001b1c9       ?rethrow@?$clone_impl@Ubad_alloc_@exception_detail@boost@@@exception_detail@boost@@$0PPPPPPPM@A@BEXXZ 1001c1c9 f i misc.obj
 0001:0001b1d1       ??_E?$wrapexcept@Ubad_day_of_month@gregorian@boost@@@boost@@W3AEPAXI@Z 1001c1d1 f i misc.obj
 0001:0001b1d1       ??_E?$wrapexcept@Vruntime_error@std@@@boost@@W3AEPAXI@Z 1001c1d1 f i misc.obj
 0001:0001b1d1       ??_E?$wrapexcept@Ubad_month@gregorian@boost@@@boost@@W3AEPAXI@Z 1001c1d1 f i misc.obj
 0001:0001b1d1       ??_E?$wrapexcept@Ubad_year@gregorian@boost@@@boost@@W3AEPAXI@Z 1001c1d1 f i misc.obj
 0001:0001b1d9       ??_Ebad_exception_@exception_detail@boost@@WBI@AEPAXI@Z 1001c1d9 f i misc.obj
 0001:0001b1e1       ??_E?$wrapexcept@Vtoo_many_args@io@boost@@@boost@@WBI@AEPAXI@Z 1001c1e1 f i misc.obj
 0001:0001b1e1       ??_E?$wrapexcept@Vbad_lexical_cast@boost@@@boost@@WBI@AEPAXI@Z 1001c1e1 f i misc.obj
 0001:0001b1e1       ??_E?$wrapexcept@Vtoo_few_args@io@boost@@@boost@@WBI@AEPAXI@Z 1001c1e1 f i misc.obj
 0001:0001b1e1       ??_E?$wrapexcept@Vbad_format_string@io@boost@@@boost@@WBI@AEPAXI@Z 1001c1e1 f i misc.obj
 0001:0001b1e9       ??_E?$clone_impl@Ubad_alloc_@exception_detail@boost@@@exception_detail@boost@@$4PPPPPPPM@CM@AEPAXI@Z 1001c1e9 f i misc.obj
 0001:0001b1f4       ??_E?$clone_impl@Ubad_exception_@exception_detail@boost@@@exception_detail@boost@@$4PPPPPPPM@CM@AEPAXI@Z 1001c1f4 f i misc.obj
 0001:0001b200       ??1?$multimap@V?$basic_string@_WU?$char_traits@_W@std@@V?$allocator@_W@2@@std@@V?$shared_ptr@VNameValue@yloader@@@2@U?$less@V?$basic_string@_WU?$char_traits@_W@std@@V?$allocator@_W@2@@std@@@2@V?$allocator@U?$pair@$$CBV?$basic_string@_WU?$char_traits@_W@std@@V?$allocator@_W@2@@std@@V?$shared_ptr@VNameValue@yloader@@@2@@std@@@2@@std@@QAE@XZ 1001c200 f i namevalue.obj
 0001:0001b200       ??1?$_Tree@V?$_Tmap_traits@V?$basic_string@_WU?$char_traits@_W@std@@V?$allocator@_W@2@@std@@V?$shared_ptr@VNameValue@yloader@@@2@U?$less@V?$basic_string@_WU?$char_traits@_W@std@@V?$allocator@_W@2@@std@@@2@V?$allocator@U?$pair@$$CBV?$basic_string@_WU?$char_traits@_W@std@@V?$allocator@_W@2@@std@@V?$shared_ptr@VNameValue@yloader@@@2@@std@@@2@$00@std@@@std@@QAE@XZ 1001c200 f i namevalue.obj
 0001:0001b210       ??0NameValueMap@yloader@@QAE@XZ 1001c210 f i namevalue.obj
 0001:0001b260       ??1NameValueMap@yloader@@QAE@XZ 1001c260 f i namevalue.obj
 0001:0001b280       ??0NameValueMap@yloader@@QAE@ABV01@@Z 1001c280 f i namevalue.obj
 0001:0001b360       ??0NameValueMap@yloader@@QAE@$$QAV01@@Z 1001c360 f i namevalue.obj
 0001:0001b3e0       ??4NameValueMap@yloader@@QAEAAV01@ABV01@@Z 1001c3e0 f i namevalue.obj
 0001:0001b420       ??4NameValueMap@yloader@@QAEAAV01@$$QAV01@@Z 1001c420 f i namevalue.obj
 0001:0001b490       ?set@NameValueMap@yloader@@QAEXABVNameValue@2@@Z 1001c490 f   namevalue.obj
 0001:0001b520       ?add@NameValueMap@yloader@@QAEXABVNameValue@2@@Z 1001c520 f   namevalue.obj
 0001:0001b520       ?push_back@NameValueMap@yloader@@QAEXABVNameValue@2@@Z 1001c520 f   namevalue.obj
 0001:0001b540       ??ANameValueMap@yloader@@QBE?AVNameValue@1@I@Z 1001c540 f   namevalue.obj
 0001:0001b7f0       ??1NameValue@yloader@@QAE@XZ 1001c7f0 f i namevalue.obj
 0001:0001b800       ?add@NameValueMap@yloader@@QAEXABV?$basic_string@_WU?$char_traits@_W@std@@V?$allocator@_W@2@@std@@0@Z 1001c800 f   namevalue.obj
 0001:0001b960       ??1?$pair@$$CBV?$basic_string@_WU?$char_traits@_W@std@@V?$allocator@_W@2@@std@@V?$shared_ptr@VNameValue@yloader@@@2@@std@@QAE@XZ 1001c960 f i namevalue.obj
 0001:0001b9e0       ?toString@NameValueMap@yloader@@QBE?AV?$shared_ptr@V?$basic_string@_WU?$char_traits@_W@std@@V?$allocator@_W@2@@std@@@std@@_N@Z 1001c9e0 f   namevalue.obj
 0001:0001bf10       ??4?$multimap@V?$basic_string@_WU?$char_traits@_W@std@@V?$allocator@_W@2@@std@@V?$shared_ptr@VNameValue@yloader@@@2@U?$less@V?$basic_string@_WU?$char_traits@_W@std@@V?$allocator@_W@2@@std@@@2@V?$allocator@U?$pair@$$CBV?$basic_string@_WU?$char_traits@_W@std@@V?$allocator@_W@2@@std@@V?$shared_ptr@VNameValue@yloader@@@2@@std@@@2@@std@@QAEAAV01@V?$initializer_list@U?$pair@$$CBV?$basic_string@_WU?$char_traits@_W@std@@V?$allocator@_W@2@@std@@V?$shared_ptr@VNameValue@yloader@@@2@@std@@@1@@Z 1001cf10 f i namevalue.obj
 0001:0001bf50       ??0?$multimap@V?$basic_string@_WU?$char_traits@_W@std@@V?$allocator@_W@2@@std@@V?$shared_ptr@VNameValue@yloader@@@2@U?$less@V?$basic_string@_WU?$char_traits@_W@std@@V?$allocator@_W@2@@std@@@2@V?$allocator@U?$pair@$$CBV?$basic_string@_WU?$char_traits@_W@std@@V?$allocator@_W@2@@std@@V?$shared_ptr@VNameValue@yloader@@@2@@std@@@2@@std@@QAE@V?$initializer_list@U?$pair@$$CBV?$basic_string@_WU?$char_traits@_W@std@@V?$allocator@_W@2@@std@@V?$shared_ptr@VNameValue@yloader@@@2@@std@@@1@ABU?$less@V?$basic_string@_WU?$char_traits@_W@std@@V?$allocator@_W@2@@std@@@1@ABV?$allocator@U?$pair@$$CBV?$basic_string@_WU?$char_traits@_W@std@@V?$allocator@_W@2@@std@@V?$shared_ptr@VNameValue@yloader@@@2@@std@@@1@@Z 1001cf50 f i namevalue.obj
 0001:0001bff0       ??0?$multimap@V?$basic_string@_WU?$char_traits@_W@std@@V?$allocator@_W@2@@std@@V?$shared_ptr@VNameValue@yloader@@@2@U?$less@V?$basic_string@_WU?$char_traits@_W@std@@V?$allocator@_W@2@@std@@@2@V?$allocator@U?$pair@$$CBV?$basic_string@_WU?$char_traits@_W@std@@V?$allocator@_W@2@@std@@V?$shared_ptr@VNameValue@yloader@@@2@@std@@@2@@std@@QAE@V?$initializer_list@U?$pair@$$CBV?$basic_string@_WU?$char_traits@_W@std@@V?$allocator@_W@2@@std@@V?$shared_ptr@VNameValue@yloader@@@2@@std@@@1@ABU?$less@V?$basic_string@_WU?$char_traits@_W@std@@V?$allocator@_W@2@@std@@@1@@Z 1001cff0 f i namevalue.obj
 0001:0001bff0       ??0?$multimap@V?$basic_string@_WU?$char_traits@_W@std@@V?$allocator@_W@2@@std@@V?$shared_ptr@VNameValue@yloader@@@2@U?$less@V?$basic_string@_WU?$char_traits@_W@std@@V?$allocator@_W@2@@std@@@2@V?$allocator@U?$pair@$$CBV?$basic_string@_WU?$char_traits@_W@std@@V?$allocator@_W@2@@std@@V?$shared_ptr@VNameValue@yloader@@@2@@std@@@2@@std@@QAE@V?$initializer_list@U?$pair@$$CBV?$basic_string@_WU?$char_traits@_W@std@@V?$allocator@_W@2@@std@@V?$shared_ptr@VNameValue@yloader@@@2@@std@@@1@ABV?$allocator@U?$pair@$$CBV?$basic_string@_WU?$char_traits@_W@std@@V?$allocator@_W@2@@std@@V?$shared_ptr@VNameValue@yloader@@@2@@std@@@1@@Z 1001cff0 f i namevalue.obj
 0001:0001c090       ??0?$multimap@V?$basic_string@_WU?$char_traits@_W@std@@V?$allocator@_W@2@@std@@V?$shared_ptr@VNameValue@yloader@@@2@U?$less@V?$basic_string@_WU?$char_traits@_W@std@@V?$allocator@_W@2@@std@@@2@V?$allocator@U?$pair@$$CBV?$basic_string@_WU?$char_traits@_W@std@@V?$allocator@_W@2@@std@@V?$shared_ptr@VNameValue@yloader@@@2@@std@@@2@@std@@QAE@V?$initializer_list@U?$pair@$$CBV?$basic_string@_WU?$char_traits@_W@std@@V?$allocator@_W@2@@std@@V?$shared_ptr@VNameValue@yloader@@@2@@std@@@1@@Z 1001d090 f i namevalue.obj
 0001:0001c130       ?swap@?$multimap@V?$basic_string@_WU?$char_traits@_W@std@@V?$allocator@_W@2@@std@@V?$shared_ptr@VNameValue@yloader@@@2@U?$less@V?$basic_string@_WU?$char_traits@_W@std@@V?$allocator@_W@2@@std@@@2@V?$allocator@U?$pair@$$CBV?$basic_string@_WU?$char_traits@_W@std@@V?$allocator@_W@2@@std@@V?$shared_ptr@VNameValue@yloader@@@2@@std@@@2@@std@@QAEXAAV12@@Z 1001d130 f i namevalue.obj
 0001:0001c130       ?swap@?$_Tree@V?$_Tmap_traits@V?$basic_string@_WU?$char_traits@_W@std@@V?$allocator@_W@2@@std@@V?$shared_ptr@VNameValue@yloader@@@2@U?$less@V?$basic_string@_WU?$char_traits@_W@std@@V?$allocator@_W@2@@std@@@2@V?$allocator@U?$pair@$$CBV?$basic_string@_WU?$char_traits@_W@std@@V?$allocator@_W@2@@std@@V?$shared_ptr@VNameValue@yloader@@@2@@std@@@2@$00@std@@@std@@QAEXAAV12@@Z 1001d130 f i namevalue.obj
 0001:0001c160       ??4?$_Tree@V?$_Tmap_traits@V?$basic_string@_WU?$char_traits@_W@std@@V?$allocator@_W@2@@std@@V?$shared_ptr@VNameValue@yloader@@@2@U?$less@V?$basic_string@_WU?$char_traits@_W@std@@V?$allocator@_W@2@@std@@@2@V?$allocator@U?$pair@$$CBV?$basic_string@_WU?$char_traits@_W@std@@V?$allocator@_W@2@@std@@V?$shared_ptr@VNameValue@yloader@@@2@@std@@@2@$00@std@@@std@@QAEAAV01@$$QAV01@@Z 1001d160 f i namevalue.obj
 0001:0001c160       ??4?$multimap@V?$basic_string@_WU?$char_traits@_W@std@@V?$allocator@_W@2@@std@@V?$shared_ptr@VNameValue@yloader@@@2@U?$less@V?$basic_string@_WU?$char_traits@_W@std@@V?$allocator@_W@2@@std@@@2@V?$allocator@U?$pair@$$CBV?$basic_string@_WU?$char_traits@_W@std@@V?$allocator@_W@2@@std@@V?$shared_ptr@VNameValue@yloader@@@2@@std@@@2@@std@@QAEAAV01@$$QAV01@@Z 1001d160 f i namevalue.obj
 0001:0001c190       ??0?$multimap@V?$basic_string@_WU?$char_traits@_W@std@@V?$allocator@_W@2@@std@@V?$shared_ptr@VNameValue@yloader@@@2@U?$less@V?$basic_string@_WU?$char_traits@_W@std@@V?$allocator@_W@2@@std@@@2@V?$allocator@U?$pair@$$CBV?$basic_string@_WU?$char_traits@_W@std@@V?$allocator@_W@2@@std@@V?$shared_ptr@VNameValue@yloader@@@2@@std@@@2@@std@@QAE@$$QAV01@ABV?$allocator@U?$pair@$$CBV?$basic_string@_WU?$char_traits@_W@std@@V?$allocator@_W@2@@std@@V?$shared_ptr@VNameValue@yloader@@@2@@std@@@1@@Z 1001d190 f i namevalue.obj
 0001:0001c1e0       ??0?$multimap@V?$basic_string@_WU?$char_traits@_W@std@@V?$allocator@_W@2@@std@@V?$shared_ptr@VNameValue@yloader@@@2@U?$less@V?$basic_string@_WU?$char_traits@_W@std@@V?$allocator@_W@2@@std@@@2@V?$allocator@U?$pair@$$CBV?$basic_string@_WU?$char_traits@_W@std@@V?$allocator@_W@2@@std@@V?$shared_ptr@VNameValue@yloader@@@2@@std@@@2@@std@@QAE@$$QAV01@@Z 1001d1e0 f i namevalue.obj
 0001:0001c230       ??4?$_Tree@V?$_Tmap_traits@V?$basic_string@_WU?$char_traits@_W@std@@V?$allocator@_W@2@@std@@V?$shared_ptr@VNameValue@yloader@@@2@U?$less@V?$basic_string@_WU?$char_traits@_W@std@@V?$allocator@_W@2@@std@@@2@V?$allocator@U?$pair@$$CBV?$basic_string@_WU?$char_traits@_W@std@@V?$allocator@_W@2@@std@@V?$shared_ptr@VNameValue@yloader@@@2@@std@@@2@$00@std@@@std@@QAEAAV01@ABV01@@Z 1001d230 f i namevalue.obj
 0001:0001c230       ??4?$multimap@V?$basic_string@_WU?$char_traits@_W@std@@V?$allocator@_W@2@@std@@V?$shared_ptr@VNameValue@yloader@@@2@U?$less@V?$basic_string@_WU?$char_traits@_W@std@@V?$allocator@_W@2@@std@@@2@V?$allocator@U?$pair@$$CBV?$basic_string@_WU?$char_traits@_W@std@@V?$allocator@_W@2@@std@@V?$shared_ptr@VNameValue@yloader@@@2@@std@@@2@@std@@QAEAAV01@ABV01@@Z 1001d230 f i namevalue.obj
 0001:0001c260       ??0?$multimap@V?$basic_string@_WU?$char_traits@_W@std@@V?$allocator@_W@2@@std@@V?$shared_ptr@VNameValue@yloader@@@2@U?$less@V?$basic_string@_WU?$char_traits@_W@std@@V?$allocator@_W@2@@std@@@2@V?$allocator@U?$pair@$$CBV?$basic_string@_WU?$char_traits@_W@std@@V?$allocator@_W@2@@std@@V?$shared_ptr@VNameValue@yloader@@@2@@std@@@2@@std@@QAE@ABU?$less@V?$basic_string@_WU?$char_traits@_W@std@@V?$allocator@_W@2@@std@@@1@ABV?$allocator@U?$pair@$$CBV?$basic_string@_WU?$char_traits@_W@std@@V?$allocator@_W@2@@std@@V?$shared_ptr@VNameValue@yloader@@@2@@std@@@1@@Z 1001d260 f i namevalue.obj
 0001:0001c2a0       ??0?$multimap@V?$basic_string@_WU?$char_traits@_W@std@@V?$allocator@_W@2@@std@@V?$shared_ptr@VNameValue@yloader@@@2@U?$less@V?$basic_string@_WU?$char_traits@_W@std@@V?$allocator@_W@2@@std@@@2@V?$allocator@U?$pair@$$CBV?$basic_string@_WU?$char_traits@_W@std@@V?$allocator@_W@2@@std@@V?$shared_ptr@VNameValue@yloader@@@2@@std@@@2@@std@@QAE@ABU?$less@V?$basic_string@_WU?$char_traits@_W@std@@V?$allocator@_W@2@@std@@@1@@Z 1001d2a0 f i namevalue.obj
 0001:0001c2a0       ??0?$multimap@V?$basic_string@_WU?$char_traits@_W@std@@V?$allocator@_W@2@@std@@V?$shared_ptr@VNameValue@yloader@@@2@U?$less@V?$basic_string@_WU?$char_traits@_W@std@@V?$allocator@_W@2@@std@@@2@V?$allocator@U?$pair@$$CBV?$basic_string@_WU?$char_traits@_W@std@@V?$allocator@_W@2@@std@@V?$shared_ptr@VNameValue@yloader@@@2@@std@@@2@@std@@QAE@ABV?$allocator@U?$pair@$$CBV?$basic_string@_WU?$char_traits@_W@std@@V?$allocator@_W@2@@std@@V?$shared_ptr@VNameValue@yloader@@@2@@std@@@1@@Z 1001d2a0 f i namevalue.obj
 0001:0001c2e0       ??0?$multimap@V?$basic_string@_WU?$char_traits@_W@std@@V?$allocator@_W@2@@std@@V?$shared_ptr@VNameValue@yloader@@@2@U?$less@V?$basic_string@_WU?$char_traits@_W@std@@V?$allocator@_W@2@@std@@@2@V?$allocator@U?$pair@$$CBV?$basic_string@_WU?$char_traits@_W@std@@V?$allocator@_W@2@@std@@V?$shared_ptr@VNameValue@yloader@@@2@@std@@@2@@std@@QAE@ABV01@ABV?$allocator@U?$pair@$$CBV?$basic_string@_WU?$char_traits@_W@std@@V?$allocator@_W@2@@std@@V?$shared_ptr@VNameValue@yloader@@@2@@std@@@1@@Z 1001d2e0 f i namevalue.obj
 0001:0001c360       ??0?$multimap@V?$basic_string@_WU?$char_traits@_W@std@@V?$allocator@_W@2@@std@@V?$shared_ptr@VNameValue@yloader@@@2@U?$less@V?$basic_string@_WU?$char_traits@_W@std@@V?$allocator@_W@2@@std@@@2@V?$allocator@U?$pair@$$CBV?$basic_string@_WU?$char_traits@_W@std@@V?$allocator@_W@2@@std@@V?$shared_ptr@VNameValue@yloader@@@2@@std@@@2@@std@@QAE@ABV01@@Z 1001d360 f i namevalue.obj
 0001:0001c3e0       ??0?$multimap@V?$basic_string@_WU?$char_traits@_W@std@@V?$allocator@_W@2@@std@@V?$shared_ptr@VNameValue@yloader@@@2@U?$less@V?$basic_string@_WU?$char_traits@_W@std@@V?$allocator@_W@2@@std@@@2@V?$allocator@U?$pair@$$CBV?$basic_string@_WU?$char_traits@_W@std@@V?$allocator@_W@2@@std@@V?$shared_ptr@VNameValue@yloader@@@2@@std@@@2@@std@@QAE@XZ 1001d3e0 f i namevalue.obj
 0001:0001c420       ?_Getal@?$_Tree@V?$_Tmap_traits@V?$basic_string@_WU?$char_traits@_W@std@@V?$allocator@_W@2@@std@@V?$shared_ptr@VNameValue@yloader@@@2@U?$less@V?$basic_string@_WU?$char_traits@_W@std@@V?$allocator@_W@2@@std@@@2@V?$allocator@U?$pair@$$CBV?$basic_string@_WU?$char_traits@_W@std@@V?$allocator@_W@2@@std@@V?$shared_ptr@VNameValue@yloader@@@2@@std@@@2@$00@std@@@std@@IAEAAV?$allocator@U?$_Tree_node@U?$pair@$$CBV?$basic_string@_WU?$char_traits@_W@std@@V?$allocator@_W@2@@std@@V?$shared_ptr@VNameValue@yloader@@@2@@std@@PAX@std@@@2@XZ 1001d420 f i namevalue.obj
 0001:0001c420       ?_Getcomp@?$_Tree@V?$_Tmap_traits@V?$basic_string@_WU?$char_traits@_W@std@@V?$allocator@_W@2@@std@@V?$shared_ptr@VNameValue@yloader@@@2@U?$less@V?$basic_string@_WU?$char_traits@_W@std@@V?$allocator@_W@2@@std@@@2@V?$allocator@U?$pair@$$CBV?$basic_string@_WU?$char_traits@_W@std@@V?$allocator@_W@2@@std@@V?$shared_ptr@VNameValue@yloader@@@2@@std@@@2@$00@std@@@std@@IBEABU?$less@V?$basic_string@_WU?$char_traits@_W@std@@V?$allocator@_W@2@@std@@@2@XZ 1001d420 f i namevalue.obj
 0001:0001c420       ?_Get_scary@?$_Tree@V?$_Tmap_traits@V?$basic_string@_WU?$char_traits@_W@std@@V?$allocator@_W@2@@std@@V?$shared_ptr@VNameValue@yloader@@@2@U?$less@V?$basic_string@_WU?$char_traits@_W@std@@V?$allocator@_W@2@@std@@@2@V?$allocator@U?$pair@$$CBV?$basic_string@_WU?$char_traits@_W@std@@V?$allocator@_W@2@@std@@V?$shared_ptr@VNameValue@yloader@@@2@@std@@@2@$00@std@@@std@@IBEPBV?$_Tree_val@U?$_Tree_simple_types@U?$pair@$$CBV?$basic_string@_WU?$char_traits@_W@std@@V?$allocator@_W@2@@std@@V?$shared_ptr@VNameValue@yloader@@@2@@std@@@std@@@2@XZ 1001d420 f i namevalue.obj
 0001:0001c420       ?_Get_scary@?$_Tree@V?$_Tmap_traits@V?$basic_string@_WU?$char_traits@_W@std@@V?$allocator@_W@2@@std@@V?$shared_ptr@VNameValue@yloader@@@2@U?$less@V?$basic_string@_WU?$char_traits@_W@std@@V?$allocator@_W@2@@std@@@2@V?$allocator@U?$pair@$$CBV?$basic_string@_WU?$char_traits@_W@std@@V?$allocator@_W@2@@std@@V?$shared_ptr@VNameValue@yloader@@@2@@std@@@2@$00@std@@@std@@IAEPAV?$_Tree_val@U?$_Tree_simple_types@U?$pair@$$CBV?$basic_string@_WU?$char_traits@_W@std@@V?$allocator@_W@2@@std@@V?$shared_ptr@VNameValue@yloader@@@2@@std@@@std@@@2@XZ 1001d420 f i namevalue.obj
 0001:0001c420       ?_Getcomp@?$_Tree@V?$_Tmap_traits@V?$basic_string@_WU?$char_traits@_W@std@@V?$allocator@_W@2@@std@@V?$shared_ptr@VNameValue@yloader@@@2@U?$less@V?$basic_string@_WU?$char_traits@_W@std@@V?$allocator@_W@2@@std@@@2@V?$allocator@U?$pair@$$CBV?$basic_string@_WU?$char_traits@_W@std@@V?$allocator@_W@2@@std@@V?$shared_ptr@VNameValue@yloader@@@2@@std@@@2@$00@std@@@std@@IAEAAU?$less@V?$basic_string@_WU?$char_traits@_W@std@@V?$allocator@_W@2@@std@@@2@XZ 1001d420 f i namevalue.obj
 0001:0001c420       ?_Getal@?$_Tree@V?$_Tmap_traits@V?$basic_string@_WU?$char_traits@_W@std@@V?$allocator@_W@2@@std@@V?$shared_ptr@VNameValue@yloader@@@2@U?$less@V?$basic_string@_WU?$char_traits@_W@std@@V?$allocator@_W@2@@std@@@2@V?$allocator@U?$pair@$$CBV?$basic_string@_WU?$char_traits@_W@std@@V?$allocator@_W@2@@std@@V?$shared_ptr@VNameValue@yloader@@@2@@std@@@2@$00@std@@@std@@IBEABV?$allocator@U?$_Tree_node@U?$pair@$$CBV?$basic_string@_WU?$char_traits@_W@std@@V?$allocator@_W@2@@std@@V?$shared_ptr@VNameValue@yloader@@@2@@std@@PAX@std@@@2@XZ 1001d420 f i namevalue.obj
 0001:0001c430       ?_Alloc_sentinel_and_proxy@?$_Tree@V?$_Tmap_traits@V?$basic_string@_WU?$char_traits@_W@std@@V?$allocator@_W@2@@std@@V?$shared_ptr@VNameValue@yloader@@@2@U?$less@V?$basic_string@_WU?$char_traits@_W@std@@V?$allocator@_W@2@@std@@@2@V?$allocator@U?$pair@$$CBV?$basic_string@_WU?$char_traits@_W@std@@V?$allocator@_W@2@@std@@V?$shared_ptr@VNameValue@yloader@@@2@@std@@@2@$00@std@@@std@@IAEXXZ 1001d430 f i namevalue.obj
 0001:0001c450       ?_Check_node_allocator@?$_Tree@V?$_Tmap_traits@V?$basic_string@_WU?$char_traits@_W@std@@V?$allocator@_W@2@@std@@V?$shared_ptr@VNameValue@yloader@@@2@U?$less@V?$basic_string@_WU?$char_traits@_W@std@@V?$allocator@_W@2@@std@@@2@V?$allocator@U?$pair@$$CBV?$basic_string@_WU?$char_traits@_W@std@@V?$allocator@_W@2@@std@@V?$shared_ptr@VNameValue@yloader@@@2@@std@@@2@$00@std@@@std@@IBEXAAV?$_Node_handle@U?$_Tree_node@U?$pair@$$CBV?$basic_string@_WU?$char_traits@_W@std@@V?$allocator@_W@2@@std@@V?$shared_ptr@VNameValue@yloader@@@2@@std@@PAX@std@@V?$allocator@U?$pair@$$CBV?$basic_string@_WU?$char_traits@_W@std@@V?$allocator@_W@2@@std@@V?$shared_ptr@VNameValue@yloader@@@2@@std@@@2@U_Node_handle_map_base@2@V?$basic_string@_WU?$char_traits@_W@std@@V?$allocator@_W@2@@2@V?$shared_ptr@VNameValue@yloader@@@2@@2@@Z 1001d450 f i namevalue.obj
 0001:0001c460       ?insert@?$_Tree@V?$_Tmap_traits@V?$basic_string@_WU?$char_traits@_W@std@@V?$allocator@_W@2@@std@@V?$shared_ptr@VNameValue@yloader@@@2@U?$less@V?$basic_string@_WU?$char_traits@_W@std@@V?$allocator@_W@2@@std@@@2@V?$allocator@U?$pair@$$CBV?$basic_string@_WU?$char_traits@_W@std@@V?$allocator@_W@2@@std@@V?$shared_ptr@VNameValue@yloader@@@2@@std@@@2@$00@std@@@std@@QAE?AV?$_Tree_iterator@V?$_Tree_val@U?$_Tree_simple_types@U?$pair@$$CBV?$basic_string@_WU?$char_traits@_W@std@@V?$allocator@_W@2@@std@@V?$shared_ptr@VNameValue@yloader@@@2@@std@@@std@@@std@@@2@V?$_Tree_const_iterator@V?$_Tree_val@U?$_Tree_simple_types@U?$pair@$$CBV?$basic_string@_WU?$char_traits@_W@std@@V?$allocator@_W@2@@std@@V?$shared_ptr@VNameValue@yloader@@@2@@std@@@std@@@std@@@2@$$QAV?$_Node_handle@U?$_Tree_node@U?$pair@$$CBV?$basic_string@_WU?$char_traits@_W@std@@V?$allocator@_W@2@@std@@V?$shared_ptr@VNameValue@yloader@@@2@@std@@PAX@std@@V?$allocator@U?$pair@$$CBV?$basic_string@_WU?$char_traits@_W@std@@V?$allocator@_W@2@@std@@V?$shared_ptr@VNameValue@yloader@@@2@@std@@@2@U_Node_handle_map_base@2@V?$basic_string@_WU?$char_traits@_W@std@@V?$allocator@_W@2@@2@V?$shared_ptr@VNameValue@yloader@@@2@@2@@Z 1001d460 f i namevalue.obj
 0001:0001c500       ?insert@?$_Tree@V?$_Tmap_traits@V?$basic_string@_WU?$char_traits@_W@std@@V?$allocator@_W@2@@std@@V?$shared_ptr@VNameValue@yloader@@@2@U?$less@V?$basic_string@_WU?$char_traits@_W@std@@V?$allocator@_W@2@@std@@@2@V?$allocator@U?$pair@$$CBV?$basic_string@_WU?$char_traits@_W@std@@V?$allocator@_W@2@@std@@V?$shared_ptr@VNameValue@yloader@@@2@@std@@@2@$00@std@@@std@@QAE@$$QAV?$_Node_handle@U?$_Tree_node@U?$pair@$$CBV?$basic_string@_WU?$char_traits@_W@std@@V?$allocator@_W@2@@std@@V?$shared_ptr@VNameValue@yloader@@@2@@std@@PAX@std@@V?$allocator@U?$pair@$$CBV?$basic_string@_WU?$char_traits@_W@std@@V?$allocator@_W@2@@std@@V?$shared_ptr@VNameValue@yloader@@@2@@std@@@2@U_Node_handle_map_base@2@V?$basic_string@_WU?$char_traits@_W@std@@V?$allocator@_W@2@@2@V?$shared_ptr@VNameValue@yloader@@@2@@2@@Z 1001d500 f i namevalue.obj
 0001:0001c580       ?extract@?$_Tree@V?$_Tmap_traits@V?$basic_string@_WU?$char_traits@_W@std@@V?$allocator@_W@2@@std@@V?$shared_ptr@VNameValue@yloader@@@2@U?$less@V?$basic_string@_WU?$char_traits@_W@std@@V?$allocator@_W@2@@std@@@2@V?$allocator@U?$pair@$$CBV?$basic_string@_WU?$char_traits@_W@std@@V?$allocator@_W@2@@std@@V?$shared_ptr@VNameValue@yloader@@@2@@std@@@2@$00@std@@@std@@QAE?AV?$_Node_handle@U?$_Tree_node@U?$pair@$$CBV?$basic_string@_WU?$char_traits@_W@std@@V?$allocator@_W@2@@std@@V?$shared_ptr@VNameValue@yloader@@@2@@std@@PAX@std@@V?$allocator@U?$pair@$$CBV?$basic_string@_WU?$char_traits@_W@std@@V?$allocator@_W@2@@std@@V?$shared_ptr@VNameValue@yloader@@@2@@std@@@2@U_Node_handle_map_base@2@V?$basic_string@_WU?$char_traits@_W@std@@V?$allocator@_W@2@@2@V?$shared_ptr@VNameValue@yloader@@@2@@2@ABV?$basic_string@_WU?$char_traits@_W@std@@V?$allocator@_W@2@@2@@Z 1001d580 f i namevalue.obj
 0001:0001c5c0       ?extract@?$_Tree@V?$_Tmap_traits@V?$basic_string@_WU?$char_traits@_W@std@@V?$allocator@_W@2@@std@@V?$shared_ptr@VNameValue@yloader@@@2@U?$less@V?$basic_string@_WU?$char_traits@_W@std@@V?$allocator@_W@2@@std@@@2@V?$allocator@U?$pair@$$CBV?$basic_string@_WU?$char_traits@_W@std@@V?$allocator@_W@2@@std@@V?$shared_ptr@VNameValue@yloader@@@2@@std@@@2@$00@std@@@std@@QAE?AV?$_Node_handle@U?$_Tree_node@U?$pair@$$CBV?$basic_string@_WU?$char_traits@_W@std@@V?$allocator@_W@2@@std@@V?$shared_ptr@VNameValue@yloader@@@2@@std@@PAX@std@@V?$allocator@U?$pair@$$CBV?$basic_string@_WU?$char_traits@_W@std@@V?$allocator@_W@2@@std@@V?$shared_ptr@VNameValue@yloader@@@2@@std@@@2@U_Node_handle_map_base@2@V?$basic_string@_WU?$char_traits@_W@std@@V?$allocator@_W@2@@2@V?$shared_ptr@VNameValue@yloader@@@2@@2@V?$_Tree_const_iterator@V?$_Tree_val@U?$_Tree_simple_types@U?$pair@$$CBV?$basic_string@_WU?$char_traits@_W@std@@V?$allocator@_W@2@@std@@V?$shared_ptr@VNameValue@yloader@@@2@@std@@@std@@@std@@@2@@Z 1001d5c0 f i namevalue.obj
 0001:0001c5e0       ?_Check_grow_by_1@?$_Tree@V?$_Tmap_traits@V?$basic_string@_WU?$char_traits@_W@std@@V?$allocator@_W@2@@std@@V?$shared_ptr@VNameValue@yloader@@@2@U?$less@V?$basic_string@_WU?$char_traits@_W@std@@V?$allocator@_W@2@@std@@@2@V?$allocator@U?$pair@$$CBV?$basic_string@_WU?$char_traits@_W@std@@V?$allocator@_W@2@@std@@V?$shared_ptr@VNameValue@yloader@@@2@@std@@@2@$00@std@@@std@@IAEXXZ 1001d5e0 f i namevalue.obj
 0001:0001c5f0       ?equal_range@?$_Tree@V?$_Tmap_traits@V?$basic_string@_WU?$char_traits@_W@std@@V?$allocator@_W@2@@std@@V?$shared_ptr@VNameValue@yloader@@@2@U?$less@V?$basic_string@_WU?$char_traits@_W@std@@V?$allocator@_W@2@@std@@@2@V?$allocator@U?$pair@$$CBV?$basic_string@_WU?$char_traits@_W@std@@V?$allocator@_W@2@@std@@V?$shared_ptr@VNameValue@yloader@@@2@@std@@@2@$00@std@@@std@@QAE?AU?$pair@V?$_Tree_iterator@V?$_Tree_val@U?$_Tree_simple_types@U?$pair@$$CBV?$basic_string@_WU?$char_traits@_W@std@@V?$allocator@_W@2@@std@@V?$shared_ptr@VNameValue@yloader@@@2@@std@@@std@@@std@@@std@@V12@@2@ABV?$basic_string@_WU?$char_traits@_W@std@@V?$allocator@_W@2@@2@@Z 1001d5f0 f i namevalue.obj
 0001:0001c5f0       ?equal_range@?$_Tree@V?$_Tmap_traits@V?$basic_string@_WU?$char_traits@_W@std@@V?$allocator@_W@2@@std@@V?$shared_ptr@VNameValue@yloader@@@2@U?$less@V?$basic_string@_WU?$char_traits@_W@std@@V?$allocator@_W@2@@std@@@2@V?$allocator@U?$pair@$$CBV?$basic_string@_WU?$char_traits@_W@std@@V?$allocator@_W@2@@std@@V?$shared_ptr@VNameValue@yloader@@@2@@std@@@2@$00@std@@@std@@QBE?AU?$pair@V?$_Tree_const_iterator@V?$_Tree_val@U?$_Tree_simple_types@U?$pair@$$CBV?$basic_string@_WU?$char_traits@_W@std@@V?$allocator@_W@2@@std@@V?$shared_ptr@VNameValue@yloader@@@2@@std@@@std@@@std@@@std@@V12@@2@ABV?$basic_string@_WU?$char_traits@_W@std@@V?$allocator@_W@2@@2@@Z 1001d5f0 f i namevalue.obj
 0001:0001c620       ?upper_bound@?$_Tree@V?$_Tmap_traits@V?$basic_string@_WU?$char_traits@_W@std@@V?$allocator@_W@2@@std@@V?$shared_ptr@VNameValue@yloader@@@2@U?$less@V?$basic_string@_WU?$char_traits@_W@std@@V?$allocator@_W@2@@std@@@2@V?$allocator@U?$pair@$$CBV?$basic_string@_WU?$char_traits@_W@std@@V?$allocator@_W@2@@std@@V?$shared_ptr@VNameValue@yloader@@@2@@std@@@2@$00@std@@@std@@QBE?AV?$_Tree_const_iterator@V?$_Tree_val@U?$_Tree_simple_types@U?$pair@$$CBV?$basic_string@_WU?$char_traits@_W@std@@V?$allocator@_W@2@@std@@V?$shared_ptr@VNameValue@yloader@@@2@@std@@@std@@@std@@@2@ABV?$basic_string@_WU?$char_traits@_W@std@@V?$allocator@_W@2@@2@@Z 1001d620 f i namevalue.obj
 0001:0001c620       ?upper_bound@?$_Tree@V?$_Tmap_traits@V?$basic_string@_WU?$char_traits@_W@std@@V?$allocator@_W@2@@std@@V?$shared_ptr@VNameValue@yloader@@@2@U?$less@V?$basic_string@_WU?$char_traits@_W@std@@V?$allocator@_W@2@@std@@@2@V?$allocator@U?$pair@$$CBV?$basic_string@_WU?$char_traits@_W@std@@V?$allocator@_W@2@@std@@V?$shared_ptr@VNameValue@yloader@@@2@@std@@@2@$00@std@@@std@@QAE?AV?$_Tree_iterator@V?$_Tree_val@U?$_Tree_simple_types@U?$pair@$$CBV?$basic_string@_WU?$char_traits@_W@std@@V?$allocator@_W@2@@std@@V?$shared_ptr@VNameValue@yloader@@@2@@std@@@std@@@std@@@2@ABV?$basic_string@_WU?$char_traits@_W@std@@V?$allocator@_W@2@@2@@Z 1001d620 f i namevalue.obj
 0001:0001c640       ?lower_bound@?$_Tree@V?$_Tmap_traits@V?$basic_string@_WU?$char_traits@_W@std@@V?$allocator@_W@2@@std@@V?$shared_ptr@VNameValue@yloader@@@2@U?$less@V?$basic_string@_WU?$char_traits@_W@std@@V?$allocator@_W@2@@std@@@2@V?$allocator@U?$pair@$$CBV?$basic_string@_WU?$char_traits@_W@std@@V?$allocator@_W@2@@std@@V?$shared_ptr@VNameValue@yloader@@@2@@std@@@2@$00@std@@@std@@QBE?AV?$_Tree_const_iterator@V?$_Tree_val@U?$_Tree_simple_types@U?$pair@$$CBV?$basic_string@_WU?$char_traits@_W@std@@V?$allocator@_W@2@@std@@V?$shared_ptr@VNameValue@yloader@@@2@@std@@@std@@@std@@@2@ABV?$basic_string@_WU?$char_traits@_W@std@@V?$allocator@_W@2@@2@@Z 1001d640 f i namevalue.obj
 0001:0001c640       ?lower_bound@?$_Tree@V?$_Tmap_traits@V?$basic_string@_WU?$char_traits@_W@std@@V?$allocator@_W@2@@std@@V?$shared_ptr@VNameValue@yloader@@@2@U?$less@V?$basic_string@_WU?$char_traits@_W@std@@V?$allocator@_W@2@@std@@@2@V?$allocator@U?$pair@$$CBV?$basic_string@_WU?$char_traits@_W@std@@V?$allocator@_W@2@@std@@V?$shared_ptr@VNameValue@yloader@@@2@@std@@@2@$00@std@@@std@@QAE?AV?$_Tree_iterator@V?$_Tree_val@U?$_Tree_simple_types@U?$pair@$$CBV?$basic_string@_WU?$char_traits@_W@std@@V?$allocator@_W@2@@std@@V?$shared_ptr@VNameValue@yloader@@@2@@std@@@std@@@std@@@2@ABV?$basic_string@_WU?$char_traits@_W@std@@V?$allocator@_W@2@@2@@Z 1001d640 f i namevalue.obj
 0001:0001c660       ?count@?$_Tree@V?$_Tmap_traits@V?$basic_string@_WU?$char_traits@_W@std@@V?$allocator@_W@2@@std@@V?$shared_ptr@VNameValue@yloader@@@2@U?$less@V?$basic_string@_WU?$char_traits@_W@std@@V?$allocator@_W@2@@std@@@2@V?$allocator@U?$pair@$$CBV?$basic_string@_WU?$char_traits@_W@std@@V?$allocator@_W@2@@std@@V?$shared_ptr@VNameValue@yloader@@@2@@std@@@2@$00@std@@@std@@QBEIABV?$basic_string@_WU?$char_traits@_W@std@@V?$allocator@_W@2@@2@@Z 1001d660 f i namevalue.obj
 0001:0001c690       ?contains@?$_Tree@V?$_Tmap_traits@V?$basic_string@_WU?$char_traits@_W@std@@V?$allocator@_W@2@@std@@V?$shared_ptr@VNameValue@yloader@@@2@U?$less@V?$basic_string@_WU?$char_traits@_W@std@@V?$allocator@_W@2@@std@@@2@V?$allocator@U?$pair@$$CBV?$basic_string@_WU?$char_traits@_W@std@@V?$allocator@_W@2@@std@@V?$shared_ptr@VNameValue@yloader@@@2@@std@@@2@$00@std@@@std@@QBE_NABV?$basic_string@_WU?$char_traits@_W@std@@V?$allocator@_W@2@@2@@Z 1001d690 f i namevalue.obj
 0001:0001c700       ?find@?$_Tree@V?$_Tmap_traits@V?$basic_string@_WU?$char_traits@_W@std@@V?$allocator@_W@2@@std@@V?$shared_ptr@VNameValue@yloader@@@2@U?$less@V?$basic_string@_WU?$char_traits@_W@std@@V?$allocator@_W@2@@std@@@2@V?$allocator@U?$pair@$$CBV?$basic_string@_WU?$char_traits@_W@std@@V?$allocator@_W@2@@std@@V?$shared_ptr@VNameValue@yloader@@@2@@std@@@2@$00@std@@@std@@QBE?AV?$_Tree_const_iterator@V?$_Tree_val@U?$_Tree_simple_types@U?$pair@$$CBV?$basic_string@_WU?$char_traits@_W@std@@V?$allocator@_W@2@@std@@V?$shared_ptr@VNameValue@yloader@@@2@@std@@@std@@@std@@@2@ABV?$basic_string@_WU?$char_traits@_W@std@@V?$allocator@_W@2@@2@@Z 1001d700 f i namevalue.obj
 0001:0001c700       ?find@?$_Tree@V?$_Tmap_traits@V?$basic_string@_WU?$char_traits@_W@std@@V?$allocator@_W@2@@std@@V?$shared_ptr@VNameValue@yloader@@@2@U?$less@V?$basic_string@_WU?$char_traits@_W@std@@V?$allocator@_W@2@@std@@@2@V?$allocator@U?$pair@$$CBV?$basic_string@_WU?$char_traits@_W@std@@V?$allocator@_W@2@@std@@V?$shared_ptr@VNameValue@yloader@@@2@@std@@@2@$00@std@@@std@@QAE?AV?$_Tree_iterator@V?$_Tree_val@U?$_Tree_simple_types@U?$pair@$$CBV?$basic_string@_WU?$char_traits@_W@std@@V?$allocator@_W@2@@std@@V?$shared_ptr@VNameValue@yloader@@@2@@std@@@std@@@std@@@2@ABV?$basic_string@_WU?$char_traits@_W@std@@V?$allocator@_W@2@@2@@Z 1001d700 f i namevalue.obj
 0001:0001c720       ?clear@?$_Tree@V?$_Tmap_traits@V?$basic_string@_WU?$char_traits@_W@std@@V?$allocator@_W@2@@std@@V?$shared_ptr@VNameValue@yloader@@@2@U?$less@V?$basic_string@_WU?$char_traits@_W@std@@V?$allocator@_W@2@@std@@@2@V?$allocator@U?$pair@$$CBV?$basic_string@_WU?$char_traits@_W@std@@V?$allocator@_W@2@@std@@V?$shared_ptr@VNameValue@yloader@@@2@@std@@@2@$00@std@@@std@@QAEXXZ 1001d720 f i namevalue.obj
 0001:0001c770       ?erase@?$_Tree@V?$_Tmap_traits@V?$basic_string@_WU?$char_traits@_W@std@@V?$allocator@_W@2@@std@@V?$shared_ptr@VNameValue@yloader@@@2@U?$less@V?$basic_string@_WU?$char_traits@_W@std@@V?$allocator@_W@2@@std@@@2@V?$allocator@U?$pair@$$CBV?$basic_string@_WU?$char_traits@_W@std@@V?$allocator@_W@2@@std@@V?$shared_ptr@VNameValue@yloader@@@2@@std@@@2@$00@std@@@std@@QAEIABV?$basic_string@_WU?$char_traits@_W@std@@V?$allocator@_W@2@@2@@Z 1001d770 f i namevalue.obj
 0001:0001c7b0       ?erase@?$_Tree@V?$_Tmap_traits@V?$basic_string@_WU?$char_traits@_W@std@@V?$allocator@_W@2@@std@@V?$shared_ptr@VNameValue@yloader@@@2@U?$less@V?$basic_string@_WU?$char_traits@_W@std@@V?$allocator@_W@2@@std@@@2@V?$allocator@U?$pair@$$CBV?$basic_string@_WU?$char_traits@_W@std@@V?$allocator@_W@2@@std@@V?$shared_ptr@VNameValue@yloader@@@2@@std@@@2@$00@std@@@std@@QAE?AV?$_Tree_iterator@V?$_Tree_val@U?$_Tree_simple_types@U?$pair@$$CBV?$basic_string@_WU?$char_traits@_W@std@@V?$allocator@_W@2@@std@@V?$shared_ptr@VNameValue@yloader@@@2@@std@@@std@@@std@@@2@V?$_Tree_const_iterator@V?$_Tree_val@U?$_Tree_simple_types@U?$pair@$$CBV?$basic_string@_WU?$char_traits@_W@std@@V?$allocator@_W@2@@std@@V?$shared_ptr@VNameValue@yloader@@@2@@std@@@std@@@std@@@2@0@Z 1001d7b0 f i namevalue.obj
 0001:0001c7d0       ?erase@?$_Tree@V?$_Tmap_traits@V?$basic_string@_WU?$char_traits@_W@std@@V?$allocator@_W@2@@std@@V?$shared_ptr@VNameValue@yloader@@@2@U?$less@V?$basic_string@_WU?$char_traits@_W@std@@V?$allocator@_W@2@@std@@@2@V?$allocator@U?$pair@$$CBV?$basic_string@_WU?$char_traits@_W@std@@V?$allocator@_W@2@@std@@V?$shared_ptr@VNameValue@yloader@@@2@@std@@@2@$00@std@@@std@@QAE?AV?$_Tree_iterator@V?$_Tree_val@U?$_Tree_simple_types@U?$pair@$$CBV?$basic_string@_WU?$char_traits@_W@std@@V?$allocator@_W@2@@std@@V?$shared_ptr@VNameValue@yloader@@@2@@std@@@std@@@std@@@2@V?$_Tree_const_iterator@V?$_Tree_val@U?$_Tree_simple_types@U?$pair@$$CBV?$basic_string@_WU?$char_traits@_W@std@@V?$allocator@_W@2@@std@@V?$shared_ptr@VNameValue@yloader@@@2@@std@@@std@@@std@@@2@@Z 1001d7d0 f i namevalue.obj
 0001:0001c850       ?_Erase_unchecked@?$_Tree@V?$_Tmap_traits@V?$basic_string@_WU?$char_traits@_W@std@@V?$allocator@_W@2@@std@@V?$shared_ptr@VNameValue@yloader@@@2@U?$less@V?$basic_string@_WU?$char_traits@_W@std@@V?$allocator@_W@2@@std@@@2@V?$allocator@U?$pair@$$CBV?$basic_string@_WU?$char_traits@_W@std@@V?$allocator@_W@2@@std@@V?$shared_ptr@VNameValue@yloader@@@2@@std@@@2@$00@std@@@std@@AAEPAU?$_Tree_node@U?$pair@$$CBV?$basic_string@_WU?$char_traits@_W@std@@V?$allocator@_W@2@@std@@V?$shared_ptr@VNameValue@yloader@@@2@@std@@PAX@2@V?$_Tree_unchecked_const_iterator@V?$_Tree_val@U?$_Tree_simple_types@U?$pair@$$CBV?$basic_string@_WU?$char_traits@_W@std@@V?$allocator@_W@2@@std@@V?$shared_ptr@VNameValue@yloader@@@2@@std@@@std@@@std@@U_Iterator_base0@2@@2@0@Z 1001d850 f i namevalue.obj
 0001:0001c950       ?_Erase_unchecked@?$_Tree@V?$_Tmap_traits@V?$basic_string@_WU?$char_traits@_W@std@@V?$allocator@_W@2@@std@@V?$shared_ptr@VNameValue@yloader@@@2@U?$less@V?$basic_string@_WU?$char_traits@_W@std@@V?$allocator@_W@2@@std@@@2@V?$allocator@U?$pair@$$CBV?$basic_string@_WU?$char_traits@_W@std@@V?$allocator@_W@2@@std@@V?$shared_ptr@VNameValue@yloader@@@2@@std@@@2@$00@std@@@std@@AAEPAU?$_Tree_node@U?$pair@$$CBV?$basic_string@_WU?$char_traits@_W@std@@V?$allocator@_W@2@@std@@V?$shared_ptr@VNameValue@yloader@@@2@@std@@PAX@2@V?$_Tree_unchecked_const_iterator@V?$_Tree_val@U?$_Tree_simple_types@U?$pair@$$CBV?$basic_string@_WU?$char_traits@_W@std@@V?$allocator@_W@2@@std@@V?$shared_ptr@VNameValue@yloader@@@2@@std@@@std@@@std@@U_Iterator_base0@2@@2@@Z 1001d950 f i namevalue.obj
 0001:0001c9c0       ?insert@?$_Tree@V?$_Tmap_traits@V?$basic_string@_WU?$char_traits@_W@std@@V?$allocator@_W@2@@std@@V?$shared_ptr@VNameValue@yloader@@@2@U?$less@V?$basic_string@_WU?$char_traits@_W@std@@V?$allocator@_W@2@@std@@@2@V?$allocator@U?$pair@$$CBV?$basic_string@_WU?$char_traits@_W@std@@V?$allocator@_W@2@@std@@V?$shared_ptr@VNameValue@yloader@@@2@@std@@@2@$00@std@@@std@@QAEXV?$initializer_list@U?$pair@$$CBV?$basic_string@_WU?$char_traits@_W@std@@V?$allocator@_W@2@@std@@V?$shared_ptr@VNameValue@yloader@@@2@@std@@@2@@Z 1001d9c0 f i namevalue.obj
 0001:0001c9f0       ?insert@?$_Tree@V?$_Tmap_traits@V?$basic_string@_WU?$char_traits@_W@std@@V?$allocator@_W@2@@std@@V?$shared_ptr@VNameValue@yloader@@@2@U?$less@V?$basic_string@_WU?$char_traits@_W@std@@V?$allocator@_W@2@@std@@@2@V?$allocator@U?$pair@$$CBV?$basic_string@_WU?$char_traits@_W@std@@V?$allocator@_W@2@@std@@V?$shared_ptr@VNameValue@yloader@@@2@@std@@@2@$00@std@@@std@@QAE?AV?$_Tree_iterator@V?$_Tree_val@U?$_Tree_simple_types@U?$pair@$$CBV?$basic_string@_WU?$char_traits@_W@std@@V?$allocator@_W@2@@std@@V?$shared_ptr@VNameValue@yloader@@@2@@std@@@std@@@std@@@2@V?$_Tree_const_iterator@V?$_Tree_val@U?$_Tree_simple_types@U?$pair@$$CBV?$basic_string@_WU?$char_traits@_W@std@@V?$allocator@_W@2@@std@@V?$shared_ptr@VNameValue@yloader@@@2@@std@@@std@@@std@@@2@$$QAU?$pair@$$CBV?$basic_string@_WU?$char_traits@_W@std@@V?$allocator@_W@2@@std@@V?$shared_ptr@VNameValue@yloader@@@2@@2@@Z 1001d9f0 f i namevalue.obj
 0001:0001ca90       ?insert@?$_Tree@V?$_Tmap_traits@V?$basic_string@_WU?$char_traits@_W@std@@V?$allocator@_W@2@@std@@V?$shared_ptr@VNameValue@yloader@@@2@U?$less@V?$basic_string@_WU?$char_traits@_W@std@@V?$allocator@_W@2@@std@@@2@V?$allocator@U?$pair@$$CBV?$basic_string@_WU?$char_traits@_W@std@@V?$allocator@_W@2@@std@@V?$shared_ptr@VNameValue@yloader@@@2@@std@@@2@$00@std@@@std@@QAE?AV?$_Tree_iterator@V?$_Tree_val@U?$_Tree_simple_types@U?$pair@$$CBV?$basic_string@_WU?$char_traits@_W@std@@V?$allocator@_W@2@@std@@V?$shared_ptr@VNameValue@yloader@@@2@@std@@@std@@@std@@@2@V?$_Tree_const_iterator@V?$_Tree_val@U?$_Tree_simple_types@U?$pair@$$CBV?$basic_string@_WU?$char_traits@_W@std@@V?$allocator@_W@2@@std@@V?$shared_ptr@VNameValue@yloader@@@2@@std@@@std@@@std@@@2@ABU?$pair@$$CBV?$basic_string@_WU?$char_traits@_W@std@@V?$allocator@_W@2@@std@@V?$shared_ptr@VNameValue@yloader@@@2@@2@@Z 1001da90 f i namevalue.obj
 0001:0001cab0       ?get_allocator@?$_Tree@V?$_Tmap_traits@V?$basic_string@_WU?$char_traits@_W@std@@V?$allocator@_W@2@@std@@V?$shared_ptr@VNameValue@yloader@@@2@U?$less@V?$basic_string@_WU?$char_traits@_W@std@@V?$allocator@_W@2@@std@@@2@V?$allocator@U?$pair@$$CBV?$basic_string@_WU?$char_traits@_W@std@@V?$allocator@_W@2@@std@@V?$shared_ptr@VNameValue@yloader@@@2@@std@@@2@$00@std@@@std@@QBE?AV?$allocator@U?$pair@$$CBV?$basic_string@_WU?$char_traits@_W@std@@V?$allocator@_W@2@@std@@V?$shared_ptr@VNameValue@yloader@@@2@@std@@@2@XZ 1001dab0 f i namevalue.obj
 0001:0001cab0       ?value_comp@?$_Tree@V?$_Tmap_traits@V?$basic_string@_WU?$char_traits@_W@std@@V?$allocator@_W@2@@std@@V?$shared_ptr@VNameValue@yloader@@@2@U?$less@V?$basic_string@_WU?$char_traits@_W@std@@V?$allocator@_W@2@@std@@@2@V?$allocator@U?$pair@$$CBV?$basic_string@_WU?$char_traits@_W@std@@V?$allocator@_W@2@@std@@V?$shared_ptr@VNameValue@yloader@@@2@@std@@@2@$00@std@@@std@@QBE?AVvalue_compare@?$_Tmap_traits@V?$basic_string@_WU?$char_traits@_W@std@@V?$allocator@_W@2@@std@@V?$shared_ptr@VNameValue@yloader@@@2@U?$less@V?$basic_string@_WU?$char_traits@_W@std@@V?$allocator@_W@2@@std@@@2@V?$allocator@U?$pair@$$CBV?$basic_string@_WU?$char_traits@_W@std@@V?$allocator@_W@2@@std@@V?$shared_ptr@VNameValue@yloader@@@2@@std@@@2@$00@2@XZ 1001dab0 f i namevalue.obj
 0001:0001cab0       ?key_comp@?$_Tree@V?$_Tmap_traits@V?$basic_string@_WU?$char_traits@_W@std@@V?$allocator@_W@2@@std@@V?$shared_ptr@VNameValue@yloader@@@2@U?$less@V?$basic_string@_WU?$char_traits@_W@std@@V?$allocator@_W@2@@std@@@2@V?$allocator@U?$pair@$$CBV?$basic_string@_WU?$char_traits@_W@std@@V?$allocator@_W@2@@std@@V?$shared_ptr@VNameValue@yloader@@@2@@std@@@2@$00@std@@@std@@QBE?AU?$less@V?$basic_string@_WU?$char_traits@_W@std@@V?$allocator@_W@2@@std@@@2@XZ 1001dab0 f i namevalue.obj
 0001:0001cac0       ?max_size@?$_Tree@V?$_Tmap_traits@V?$basic_string@_WU?$char_traits@_W@std@@V?$allocator@_W@2@@std@@V?$shared_ptr@VNameValue@yloader@@@2@U?$less@V?$basic_string@_WU?$char_traits@_W@std@@V?$allocator@_W@2@@std@@@2@V?$allocator@U?$pair@$$CBV?$basic_string@_WU?$char_traits@_W@std@@V?$allocator@_W@2@@std@@V?$shared_ptr@VNameValue@yloader@@@2@@std@@@2@$00@std@@@std@@QBEIXZ 1001dac0 f i namevalue.obj
 0001:0001cad0       ?begin@?$_Tree@V?$_Tmap_traits@V?$basic_string@_WU?$char_traits@_W@std@@V?$allocator@_W@2@@std@@V?$shared_ptr@VNameValue@yloader@@@2@U?$less@V?$basic_string@_WU?$char_traits@_W@std@@V?$allocator@_W@2@@std@@@2@V?$allocator@U?$pair@$$CBV?$basic_string@_WU?$char_traits@_W@std@@V?$allocator@_W@2@@std@@V?$shared_ptr@VNameValue@yloader@@@2@@std@@@2@$00@std@@@std@@QAE?AV?$_Tree_iterator@V?$_Tree_val@U?$_Tree_simple_types@U?$pair@$$CBV?$basic_string@_WU?$char_traits@_W@std@@V?$allocator@_W@2@@std@@V?$shared_ptr@VNameValue@yloader@@@2@@std@@@std@@@std@@@2@XZ 1001dad0 f i namevalue.obj
 0001:0001cad0       ?rend@?$_Tree@V?$_Tmap_traits@V?$basic_string@_WU?$char_traits@_W@std@@V?$allocator@_W@2@@std@@V?$shared_ptr@VNameValue@yloader@@@2@U?$less@V?$basic_string@_WU?$char_traits@_W@std@@V?$allocator@_W@2@@std@@@2@V?$allocator@U?$pair@$$CBV?$basic_string@_WU?$char_traits@_W@std@@V?$allocator@_W@2@@std@@V?$shared_ptr@VNameValue@yloader@@@2@@std@@@2@$00@std@@@std@@QBE?AV?$reverse_iterator@V?$_Tree_const_iterator@V?$_Tree_val@U?$_Tree_simple_types@U?$pair@$$CBV?$basic_string@_WU?$char_traits@_W@std@@V?$allocator@_W@2@@std@@V?$shared_ptr@VNameValue@yloader@@@2@@std@@@std@@@std@@@std@@@2@XZ 1001dad0 f i namevalue.obj
 0001:0001cad0       ?_Unchecked_begin@?$_Tree@V?$_Tmap_traits@V?$basic_string@_WU?$char_traits@_W@std@@V?$allocator@_W@2@@std@@V?$shared_ptr@VNameValue@yloader@@@2@U?$less@V?$basic_string@_WU?$char_traits@_W@std@@V?$allocator@_W@2@@std@@@2@V?$allocator@U?$pair@$$CBV?$basic_string@_WU?$char_traits@_W@std@@V?$allocator@_W@2@@std@@V?$shared_ptr@VNameValue@yloader@@@2@@std@@@2@$00@std@@@std@@QAE?AV?$_Tree_unchecked_iterator@V?$_Tree_val@U?$_Tree_simple_types@U?$pair@$$CBV?$basic_string@_WU?$char_traits@_W@std@@V?$allocator@_W@2@@std@@V?$shared_ptr@VNameValue@yloader@@@2@@std@@@std@@@std@@@2@XZ 1001dad0 f i namevalue.obj
 0001:0001cad0       ?_Unchecked_begin@?$_Tree@V?$_Tmap_traits@V?$basic_string@_WU?$char_traits@_W@std@@V?$allocator@_W@2@@std@@V?$shared_ptr@VNameValue@yloader@@@2@U?$less@V?$basic_string@_WU?$char_traits@_W@std@@V?$allocator@_W@2@@std@@@2@V?$allocator@U?$pair@$$CBV?$basic_string@_WU?$char_traits@_W@std@@V?$allocator@_W@2@@std@@V?$shared_ptr@VNameValue@yloader@@@2@@std@@@2@$00@std@@@std@@QBE?AV?$_Tree_unchecked_const_iterator@V?$_Tree_val@U?$_Tree_simple_types@U?$pair@$$CBV?$basic_string@_WU?$char_traits@_W@std@@V?$allocator@_W@2@@std@@V?$shared_ptr@VNameValue@yloader@@@2@@std@@@std@@@std@@U_Iterator_base0@2@@2@XZ 1001dad0 f i namevalue.obj
 0001:0001cad0       ?cbegin@?$_Tree@V?$_Tmap_traits@V?$basic_string@_WU?$char_traits@_W@std@@V?$allocator@_W@2@@std@@V?$shared_ptr@VNameValue@yloader@@@2@U?$less@V?$basic_string@_WU?$char_traits@_W@std@@V?$allocator@_W@2@@std@@@2@V?$allocator@U?$pair@$$CBV?$basic_string@_WU?$char_traits@_W@std@@V?$allocator@_W@2@@std@@V?$shared_ptr@VNameValue@yloader@@@2@@std@@@2@$00@std@@@std@@QBE?AV?$_Tree_const_iterator@V?$_Tree_val@U?$_Tree_simple_types@U?$pair@$$CBV?$basic_string@_WU?$char_traits@_W@std@@V?$allocator@_W@2@@std@@V?$shared_ptr@VNameValue@yloader@@@2@@std@@@std@@@std@@@2@XZ 1001dad0 f i namevalue.obj
 0001:0001cad0       ?rend@?$_Tree@V?$_Tmap_traits@V?$basic_string@_WU?$char_traits@_W@std@@V?$allocator@_W@2@@std@@V?$shared_ptr@VNameValue@yloader@@@2@U?$less@V?$basic_string@_WU?$char_traits@_W@std@@V?$allocator@_W@2@@std@@@2@V?$allocator@U?$pair@$$CBV?$basic_string@_WU?$char_traits@_W@std@@V?$allocator@_W@2@@std@@V?$shared_ptr@VNameValue@yloader@@@2@@std@@@2@$00@std@@@std@@QAE?AV?$reverse_iterator@V?$_Tree_iterator@V?$_Tree_val@U?$_Tree_simple_types@U?$pair@$$CBV?$basic_string@_WU?$char_traits@_W@std@@V?$allocator@_W@2@@std@@V?$shared_ptr@VNameValue@yloader@@@2@@std@@@std@@@std@@@std@@@2@XZ 1001dad0 f i namevalue.obj
 0001:0001cad0       ?crend@?$_Tree@V?$_Tmap_traits@V?$basic_string@_WU?$char_traits@_W@std@@V?$allocator@_W@2@@std@@V?$shared_ptr@VNameValue@yloader@@@2@U?$less@V?$basic_string@_WU?$char_traits@_W@std@@V?$allocator@_W@2@@std@@@2@V?$allocator@U?$pair@$$CBV?$basic_string@_WU?$char_traits@_W@std@@V?$allocator@_W@2@@std@@V?$shared_ptr@VNameValue@yloader@@@2@@std@@@2@$00@std@@@std@@QBE?AV?$reverse_iterator@V?$_Tree_const_iterator@V?$_Tree_val@U?$_Tree_simple_types@U?$pair@$$CBV?$basic_string@_WU?$char_traits@_W@std@@V?$allocator@_W@2@@std@@V?$shared_ptr@VNameValue@yloader@@@2@@std@@@std@@@std@@@std@@@2@XZ 1001dad0 f i namevalue.obj
 0001:0001cad0       ?begin@?$_Tree@V?$_Tmap_traits@V?$basic_string@_WU?$char_traits@_W@std@@V?$allocator@_W@2@@std@@V?$shared_ptr@VNameValue@yloader@@@2@U?$less@V?$basic_string@_WU?$char_traits@_W@std@@V?$allocator@_W@2@@std@@@2@V?$allocator@U?$pair@$$CBV?$basic_string@_WU?$char_traits@_W@std@@V?$allocator@_W@2@@std@@V?$shared_ptr@VNameValue@yloader@@@2@@std@@@2@$00@std@@@std@@QBE?AV?$_Tree_const_iterator@V?$_Tree_val@U?$_Tree_simple_types@U?$pair@$$CBV?$basic_string@_WU?$char_traits@_W@std@@V?$allocator@_W@2@@std@@V?$shared_ptr@VNameValue@yloader@@@2@@std@@@std@@@std@@@2@XZ 1001dad0 f i namevalue.obj
 0001:0001cae0       ?_Unchecked_end_iter@?$_Tree@V?$_Tmap_traits@V?$basic_string@_WU?$char_traits@_W@std@@V?$allocator@_W@2@@std@@V?$shared_ptr@VNameValue@yloader@@@2@U?$less@V?$basic_string@_WU?$char_traits@_W@std@@V?$allocator@_W@2@@std@@@2@V?$allocator@U?$pair@$$CBV?$basic_string@_WU?$char_traits@_W@std@@V?$allocator@_W@2@@std@@V?$shared_ptr@VNameValue@yloader@@@2@@std@@@2@$00@std@@@std@@QBE?AV?$_Tree_unchecked_const_iterator@V?$_Tree_val@U?$_Tree_simple_types@U?$pair@$$CBV?$basic_string@_WU?$char_traits@_W@std@@V?$allocator@_W@2@@std@@V?$shared_ptr@VNameValue@yloader@@@2@@std@@@std@@@std@@U_Iterator_base0@2@@2@XZ 1001dae0 f i namevalue.obj
 0001:0001cae0       ?rbegin@?$_Tree@V?$_Tmap_traits@V?$basic_string@_WU?$char_traits@_W@std@@V?$allocator@_W@2@@std@@V?$shared_ptr@VNameValue@yloader@@@2@U?$less@V?$basic_string@_WU?$char_traits@_W@std@@V?$allocator@_W@2@@std@@@2@V?$allocator@U?$pair@$$CBV?$basic_string@_WU?$char_traits@_W@std@@V?$allocator@_W@2@@std@@V?$shared_ptr@VNameValue@yloader@@@2@@std@@@2@$00@std@@@std@@QAE?AV?$reverse_iterator@V?$_Tree_iterator@V?$_Tree_val@U?$_Tree_simple_types@U?$pair@$$CBV?$basic_string@_WU?$char_traits@_W@std@@V?$allocator@_W@2@@std@@V?$shared_ptr@VNameValue@yloader@@@2@@std@@@std@@@std@@@std@@@2@XZ 1001dae0 f i namevalue.obj
 0001:0001cae0       ?crbegin@?$_Tree@V?$_Tmap_traits@V?$basic_string@_WU?$char_traits@_W@std@@V?$allocator@_W@2@@std@@V?$shared_ptr@VNameValue@yloader@@@2@U?$less@V?$basic_string@_WU?$char_traits@_W@std@@V?$allocator@_W@2@@std@@@2@V?$allocator@U?$pair@$$CBV?$basic_string@_WU?$char_traits@_W@std@@V?$allocator@_W@2@@std@@V?$shared_ptr@VNameValue@yloader@@@2@@std@@@2@$00@std@@@std@@QBE?AV?$reverse_iterator@V?$_Tree_const_iterator@V?$_Tree_val@U?$_Tree_simple_types@U?$pair@$$CBV?$basic_string@_WU?$char_traits@_W@std@@V?$allocator@_W@2@@std@@V?$shared_ptr@VNameValue@yloader@@@2@@std@@@std@@@std@@@std@@@2@XZ 1001dae0 f i namevalue.obj
 0001:0001cae0       ?end@?$_Tree@V?$_Tmap_traits@V?$basic_string@_WU?$char_traits@_W@std@@V?$allocator@_W@2@@std@@V?$shared_ptr@VNameValue@yloader@@@2@U?$less@V?$basic_string@_WU?$char_traits@_W@std@@V?$allocator@_W@2@@std@@@2@V?$allocator@U?$pair@$$CBV?$basic_string@_WU?$char_traits@_W@std@@V?$allocator@_W@2@@std@@V?$shared_ptr@VNameValue@yloader@@@2@@std@@@2@$00@std@@@std@@QBE?AV?$_Tree_const_iterator@V?$_Tree_val@U?$_Tree_simple_types@U?$pair@$$CBV?$basic_string@_WU?$char_traits@_W@std@@V?$allocator@_W@2@@std@@V?$shared_ptr@VNameValue@yloader@@@2@@std@@@std@@@std@@@2@XZ 1001dae0 f i namevalue.obj
 0001:0001cae0       ?cend@?$_Tree@V?$_Tmap_traits@V?$basic_string@_WU?$char_traits@_W@std@@V?$allocator@_W@2@@std@@V?$shared_ptr@VNameValue@yloader@@@2@U?$less@V?$basic_string@_WU?$char_traits@_W@std@@V?$allocator@_W@2@@std@@@2@V?$allocator@U?$pair@$$CBV?$basic_string@_WU?$char_traits@_W@std@@V?$allocator@_W@2@@std@@V?$shared_ptr@VNameValue@yloader@@@2@@std@@@2@$00@std@@@std@@QBE?AV?$_Tree_const_iterator@V?$_Tree_val@U?$_Tree_simple_types@U?$pair@$$CBV?$basic_string@_WU?$char_traits@_W@std@@V?$allocator@_W@2@@std@@V?$shared_ptr@VNameValue@yloader@@@2@@std@@@std@@@std@@@2@XZ 1001dae0 f i namevalue.obj
 0001:0001cae0       ?rbegin@?$_Tree@V?$_Tmap_traits@V?$basic_string@_WU?$char_traits@_W@std@@V?$allocator@_W@2@@std@@V?$shared_ptr@VNameValue@yloader@@@2@U?$less@V?$basic_string@_WU?$char_traits@_W@std@@V?$allocator@_W@2@@std@@@2@V?$allocator@U?$pair@$$CBV?$basic_string@_WU?$char_traits@_W@std@@V?$allocator@_W@2@@std@@V?$shared_ptr@VNameValue@yloader@@@2@@std@@@2@$00@std@@@std@@QBE?AV?$reverse_iterator@V?$_Tree_const_iterator@V?$_Tree_val@U?$_Tree_simple_types@U?$pair@$$CBV?$basic_string@_WU?$char_traits@_W@std@@V?$allocator@_W@2@@std@@V?$shared_ptr@VNameValue@yloader@@@2@@std@@@std@@@std@@@std@@@2@XZ 1001dae0 f i namevalue.obj
 0001:0001cae0       ?end@?$_Tree@V?$_Tmap_traits@V?$basic_string@_WU?$char_traits@_W@std@@V?$allocator@_W@2@@std@@V?$shared_ptr@VNameValue@yloader@@@2@U?$less@V?$basic_string@_WU?$char_traits@_W@std@@V?$allocator@_W@2@@std@@@2@V?$allocator@U?$pair@$$CBV?$basic_string@_WU?$char_traits@_W@std@@V?$allocator@_W@2@@std@@V?$shared_ptr@VNameValue@yloader@@@2@@std@@@2@$00@std@@@std@@QAE?AV?$_Tree_iterator@V?$_Tree_val@U?$_Tree_simple_types@U?$pair@$$CBV?$basic_string@_WU?$char_traits@_W@std@@V?$allocator@_W@2@@std@@V?$shared_ptr@VNameValue@yloader@@@2@@std@@@std@@@std@@@2@XZ 1001dae0 f i namevalue.obj
 0001:0001caf0       ?_Unchecked_end@?$_Tree@V?$_Tmap_traits@V?$basic_string@_WU?$char_traits@_W@std@@V?$allocator@_W@2@@std@@V?$shared_ptr@VNameValue@yloader@@@2@U?$less@V?$basic_string@_WU?$char_traits@_W@std@@V?$allocator@_W@2@@std@@@2@V?$allocator@U?$pair@$$CBV?$basic_string@_WU?$char_traits@_W@std@@V?$allocator@_W@2@@std@@V?$shared_ptr@VNameValue@yloader@@@2@@std@@@2@$00@std@@@std@@QBE?AU_Default_sentinel@2@XZ 1001daf0 f i namevalue.obj
 0001:0001cb00       ?_Copy_assign@?$_Tree@V?$_Tmap_traits@V?$basic_string@_WU?$char_traits@_W@std@@V?$allocator@_W@2@@std@@V?$shared_ptr@VNameValue@yloader@@@2@U?$less@V?$basic_string@_WU?$char_traits@_W@std@@V?$allocator@_W@2@@std@@@2@V?$allocator@U?$pair@$$CBV?$basic_string@_WU?$char_traits@_W@std@@V?$allocator@_W@2@@std@@V?$shared_ptr@VNameValue@yloader@@@2@@std@@@2@$00@std@@@std@@AAEXABV12@U?$integral_constant@_N$00@2@@Z 1001db00 f i namevalue.obj
 0001:0001cb00       ?_Copy_assign@?$_Tree@V?$_Tmap_traits@V?$basic_string@_WU?$char_traits@_W@std@@V?$allocator@_W@2@@std@@V?$shared_ptr@VNameValue@yloader@@@2@U?$less@V?$basic_string@_WU?$char_traits@_W@std@@V?$allocator@_W@2@@std@@@2@V?$allocator@U?$pair@$$CBV?$basic_string@_WU?$char_traits@_W@std@@V?$allocator@_W@2@@std@@V?$shared_ptr@VNameValue@yloader@@@2@@std@@@2@$00@std@@@std@@AAEXABV12@U?$integral_constant@_N$0A@@2@@Z 1001db00 f i namevalue.obj
 0001:0001cb20       ?_Swap_val_excluding_comp@?$_Tree@V?$_Tmap_traits@V?$basic_string@_WU?$char_traits@_W@std@@V?$allocator@_W@2@@std@@V?$shared_ptr@VNameValue@yloader@@@2@U?$less@V?$basic_string@_WU?$char_traits@_W@std@@V?$allocator@_W@2@@std@@@2@V?$allocator@U?$pair@$$CBV?$basic_string@_WU?$char_traits@_W@std@@V?$allocator@_W@2@@std@@V?$shared_ptr@VNameValue@yloader@@@2@@std@@@2@$00@std@@@std@@AAEXAAV12@@Z 1001db20 f i namevalue.obj
 0001:0001cb50       ?_Move_assign@?$_Tree@V?$_Tmap_traits@V?$basic_string@_WU?$char_traits@_W@std@@V?$allocator@_W@2@@std@@V?$shared_ptr@VNameValue@yloader@@@2@U?$less@V?$basic_string@_WU?$char_traits@_W@std@@V?$allocator@_W@2@@std@@@2@V?$allocator@U?$pair@$$CBV?$basic_string@_WU?$char_traits@_W@std@@V?$allocator@_W@2@@std@@V?$shared_ptr@VNameValue@yloader@@@2@@std@@@2@$00@std@@@std@@AAEXAAV12@U_Equal_allocators@2@@Z 1001db50 f i namevalue.obj
 0001:0001cb50       ?_Move_assign@?$_Tree@V?$_Tmap_traits@V?$basic_string@_WU?$char_traits@_W@std@@V?$allocator@_W@2@@std@@V?$shared_ptr@VNameValue@yloader@@@2@U?$less@V?$basic_string@_WU?$char_traits@_W@std@@V?$allocator@_W@2@@std@@@2@V?$allocator@U?$pair@$$CBV?$basic_string@_WU?$char_traits@_W@std@@V?$allocator@_W@2@@std@@V?$shared_ptr@VNameValue@yloader@@@2@@std@@@2@$00@std@@@std@@AAEXAAV12@U?$integral_constant@_N$00@2@@Z 1001db50 f i namevalue.obj
 0001:0001cb50       ?_Move_assign@?$_Tree@V?$_Tmap_traits@V?$basic_string@_WU?$char_traits@_W@std@@V?$allocator@_W@2@@std@@V?$shared_ptr@VNameValue@yloader@@@2@U?$less@V?$basic_string@_WU?$char_traits@_W@std@@V?$allocator@_W@2@@std@@@2@V?$allocator@U?$pair@$$CBV?$basic_string@_WU?$char_traits@_W@std@@V?$allocator@_W@2@@std@@V?$shared_ptr@VNameValue@yloader@@@2@@std@@@2@$00@std@@@std@@AAEXAAV12@U?$integral_constant@_N$0A@@2@@Z 1001db50 f i namevalue.obj
 0001:0001cb80       ??0?$_Tree@V?$_Tmap_traits@V?$basic_string@_WU?$char_traits@_W@std@@V?$allocator@_W@2@@std@@V?$shared_ptr@VNameValue@yloader@@@2@U?$less@V?$basic_string@_WU?$char_traits@_W@std@@V?$allocator@_W@2@@std@@@2@V?$allocator@U?$pair@$$CBV?$basic_string@_WU?$char_traits@_W@std@@V?$allocator@_W@2@@std@@V?$shared_ptr@VNameValue@yloader@@@2@@std@@@2@$00@std@@@std@@QAE@$$QAV01@ABV?$allocator@U?$pair@$$CBV?$basic_string@_WU?$char_traits@_W@std@@V?$allocator@_W@2@@std@@V?$shared_ptr@VNameValue@yloader@@@2@@std@@@1@@Z 1001db80 f i namevalue.obj
 0001:0001cbd0       ?_Different_allocator_move_construct@?$_Tree@V?$_Tmap_traits@V?$basic_string@_WU?$char_traits@_W@std@@V?$allocator@_W@2@@std@@V?$shared_ptr@VNameValue@yloader@@@2@U?$less@V?$basic_string@_WU?$char_traits@_W@std@@V?$allocator@_W@2@@std@@@2@V?$allocator@U?$pair@$$CBV?$basic_string@_WU?$char_traits@_W@std@@V?$allocator@_W@2@@std@@V?$shared_ptr@VNameValue@yloader@@@2@@std@@@2@$00@std@@@std@@AAEX$$QAV12@@Z 1001dbd0 f i namevalue.obj
 0001:0001cc40       ??0?$_Tree@V?$_Tmap_traits@V?$basic_string@_WU?$char_traits@_W@std@@V?$allocator@_W@2@@std@@V?$shared_ptr@VNameValue@yloader@@@2@U?$less@V?$basic_string@_WU?$char_traits@_W@std@@V?$allocator@_W@2@@std@@@2@V?$allocator@U?$pair@$$CBV?$basic_string@_WU?$char_traits@_W@std@@V?$allocator@_W@2@@std@@V?$shared_ptr@VNameValue@yloader@@@2@@std@@@2@$00@std@@@std@@QAE@$$QAV01@@Z 1001dc40 f i namevalue.obj
 0001:0001cc90       ??0?$_Tree@V?$_Tmap_traits@V?$basic_string@_WU?$char_traits@_W@std@@V?$allocator@_W@2@@std@@V?$shared_ptr@VNameValue@yloader@@@2@U?$less@V?$basic_string@_WU?$char_traits@_W@std@@V?$allocator@_W@2@@std@@@2@V?$allocator@U?$pair@$$CBV?$basic_string@_WU?$char_traits@_W@std@@V?$allocator@_W@2@@std@@V?$shared_ptr@VNameValue@yloader@@@2@@std@@@2@$00@std@@@std@@QAE@ABU?$less@V?$basic_string@_WU?$char_traits@_W@std@@V?$allocator@_W@2@@std@@@1@ABV?$allocator@U?$pair@$$CBV?$basic_string@_WU?$char_traits@_W@std@@V?$allocator@_W@2@@std@@V?$shared_ptr@VNameValue@yloader@@@2@@std@@@1@@Z 1001dc90 f i namevalue.obj
 0001:0001ccc0       ??0?$_Tree@V?$_Tmap_traits@V?$basic_string@_WU?$char_traits@_W@std@@V?$allocator@_W@2@@std@@V?$shared_ptr@VNameValue@yloader@@@2@U?$less@V?$basic_string@_WU?$char_traits@_W@std@@V?$allocator@_W@2@@std@@@2@V?$allocator@U?$pair@$$CBV?$basic_string@_WU?$char_traits@_W@std@@V?$allocator@_W@2@@std@@V?$shared_ptr@VNameValue@yloader@@@2@@std@@@2@$00@std@@@std@@QAE@ABU?$less@V?$basic_string@_WU?$char_traits@_W@std@@V?$allocator@_W@2@@std@@@1@@Z 1001dcc0 f i namevalue.obj
 0001:0001ccf0       ??1?$_Tree_head_scoped_ptr@V?$allocator@U?$_Tree_node@U?$pair@$$CBV?$basic_string@_WU?$char_traits@_W@std@@V?$allocator@_W@2@@std@@V?$shared_ptr@VNameValue@yloader@@@2@@std@@PAX@std@@@std@@V?$_Tree_val@U?$_Tree_simple_types@U?$pair@$$CBV?$basic_string@_WU?$char_traits@_W@std@@V?$allocator@_W@2@@std@@V?$shared_ptr@VNameValue@yloader@@@2@@std@@@std@@@2@@std@@QAE@XZ 1001dcf0 f i namevalue.obj
 0001:0001cd10       ?_Tidy@?$vector@V?$shared_ptr@VNameValue@yloader@@@std@@V?$allocator@V?$shared_ptr@VNameValue@yloader@@@std@@@2@@std@@AAEXXZ 1001dd10 f i namevalue.obj
 0001:0001cd70       ?_Extract@?$_Tree_val@U?$_Tree_simple_types@U?$pair@$$CBV?$basic_string@_WU?$char_traits@_W@std@@V?$allocator@_W@2@@std@@V?$shared_ptr@VNameValue@yloader@@@2@@std@@@std@@@std@@QAEPAU?$_Tree_node@U?$pair@$$CBV?$basic_string@_WU?$char_traits@_W@std@@V?$allocator@_W@2@@std@@V?$shared_ptr@VNameValue@yloader@@@2@@std@@PAX@2@V?$_Tree_unchecked_const_iterator@V?$_Tree_val@U?$_Tree_simple_types@U?$pair@$$CBV?$basic_string@_WU?$char_traits@_W@std@@V?$allocator@_W@2@@std@@V?$shared_ptr@VNameValue@yloader@@@2@@std@@@std@@@std@@U_Iterator_base0@2@@2@@Z 1001dd70 f i namevalue.obj
 0001:0001d190       ?allocate@?$allocator@V?$shared_ptr@VNameValue@yloader@@@std@@@std@@QAEPAV?$shared_ptr@VNameValue@yloader@@@2@I@Z 1001e190 f i namevalue.obj
 0001:0001d1f0       ??$?H_WU?$char_traits@_W@std@@V?$allocator@_W@1@@std@@YA?AV?$basic_string@_WU?$char_traits@_W@std@@V?$allocator@_W@2@@0@$$QAV10@ABV10@@Z 1001e1f0 f i namevalue.obj
 0001:0001d2e0       ??$_Eqrange@V?$basic_string@_WU?$char_traits@_W@std@@V?$allocator@_W@2@@std@@@?$_Tree@V?$_Tmap_traits@V?$basic_string@_WU?$char_traits@_W@std@@V?$allocator@_W@2@@std@@V?$shared_ptr@VNameValue@yloader@@@2@U?$less@V?$basic_string@_WU?$char_traits@_W@std@@V?$allocator@_W@2@@std@@@2@V?$allocator@U?$pair@$$CBV?$basic_string@_WU?$char_traits@_W@std@@V?$allocator@_W@2@@std@@V?$shared_ptr@VNameValue@yloader@@@2@@std@@@2@$00@std@@@std@@IBE?AU?$pair@PAU?$_Tree_node@U?$pair@$$CBV?$basic_string@_WU?$char_traits@_W@std@@V?$allocator@_W@2@@std@@V?$shared_ptr@VNameValue@yloader@@@2@@std@@PAX@std@@PAU12@@1@ABV?$basic_string@_WU?$char_traits@_W@std@@V?$allocator@_W@2@@1@@Z 1001e2e0 f i namevalue.obj
 0001:0001d430       ??$insert@$00$0A@@?$_Tree@V?$_Tmap_traits@V?$basic_string@_WU?$char_traits@_W@std@@V?$allocator@_W@2@@std@@V?$shared_ptr@VNameValue@yloader@@@2@U?$less@V?$basic_string@_WU?$char_traits@_W@std@@V?$allocator@_W@2@@std@@@2@V?$allocator@U?$pair@$$CBV?$basic_string@_WU?$char_traits@_W@std@@V?$allocator@_W@2@@std@@V?$shared_ptr@VNameValue@yloader@@@2@@std@@@2@$00@std@@@std@@QAE?AV?$_Tree_iterator@V?$_Tree_val@U?$_Tree_simple_types@U?$pair@$$CBV?$basic_string@_WU?$char_traits@_W@std@@V?$allocator@_W@2@@std@@V?$shared_ptr@VNameValue@yloader@@@2@@std@@@std@@@std@@@1@$$QAU?$pair@$$CBV?$basic_string@_WU?$char_traits@_W@std@@V?$allocator@_W@2@@std@@V?$shared_ptr@VNameValue@yloader@@@2@@1@@Z 1001e430 f i namevalue.obj
 0001:0001d4d0       ??$_Emplace_reallocate@ABV?$shared_ptr@VNameValue@yloader@@@std@@@?$vector@V?$shared_ptr@VNameValue@yloader@@@std@@V?$allocator@V?$shared_ptr@VNameValue@yloader@@@std@@@2@@std@@QAEPAV?$shared_ptr@VNameValue@yloader@@@1@QAV21@ABV21@@Z 1001e4d0 f i namevalue.obj
 0001:0001d600       ??$_Ucopy@PAV?$shared_ptr@VNameValue@yloader@@@std@@@?$vector@V?$shared_ptr@VNameValue@yloader@@@std@@V?$allocator@V?$shared_ptr@VNameValue@yloader@@@std@@@2@@std@@AAEPAV?$shared_ptr@VNameValue@yloader@@@1@PAV21@00@Z 1001e600 f i namevalue.obj
 0001:0001d660       ??$_Find_hint@V?$basic_string@_WU?$char_traits@_W@std@@V?$allocator@_W@2@@std@@@?$_Tree@V?$_Tmap_traits@V?$basic_string@_WU?$char_traits@_W@std@@V?$allocator@_W@2@@std@@V?$shared_ptr@VNameValue@yloader@@@2@U?$less@V?$basic_string@_WU?$char_traits@_W@std@@V?$allocator@_W@2@@std@@@2@V?$allocator@U?$pair@$$CBV?$basic_string@_WU?$char_traits@_W@std@@V?$allocator@_W@2@@std@@V?$shared_ptr@VNameValue@yloader@@@2@@std@@@2@$00@std@@@std@@IBE?AU?$_Tree_find_hint_result@PAU?$_Tree_node@U?$pair@$$CBV?$basic_string@_WU?$char_traits@_W@std@@V?$allocator@_W@2@@std@@V?$shared_ptr@VNameValue@yloader@@@2@@std@@PAX@std@@@1@QAU?$_Tree_node@U?$pair@$$CBV?$basic_string@_WU?$char_traits@_W@std@@V?$allocator@_W@2@@std@@V?$shared_ptr@VNameValue@yloader@@@2@@std@@PAX@1@ABV?$basic_string@_WU?$char_traits@_W@std@@V?$allocator@_W@2@@1@@Z 1001e660 f i namevalue.obj
 0001:0001d8d0       ??$_Find_upper_bound@V?$basic_string@_WU?$char_traits@_W@std@@V?$allocator@_W@2@@std@@@?$_Tree@V?$_Tmap_traits@V?$basic_string@_WU?$char_traits@_W@std@@V?$allocator@_W@2@@std@@V?$shared_ptr@VNameValue@yloader@@@2@U?$less@V?$basic_string@_WU?$char_traits@_W@std@@V?$allocator@_W@2@@std@@@2@V?$allocator@U?$pair@$$CBV?$basic_string@_WU?$char_traits@_W@std@@V?$allocator@_W@2@@std@@V?$shared_ptr@VNameValue@yloader@@@2@@std@@@2@$00@std@@@std@@IBE?AU?$_Tree_find_result@PAU?$_Tree_node@U?$pair@$$CBV?$basic_string@_WU?$char_traits@_W@std@@V?$allocator@_W@2@@std@@V?$shared_ptr@VNameValue@yloader@@@2@@std@@PAX@std@@@1@ABV?$basic_string@_WU?$char_traits@_W@std@@V?$allocator@_W@2@@1@@Z 1001e8d0 f i namevalue.obj
 0001:0001d960       ??$_Find_lower_bound@V?$basic_string@_WU?$char_traits@_W@std@@V?$allocator@_W@2@@std@@@?$_Tree@V?$_Tmap_traits@V?$basic_string@_WU?$char_traits@_W@std@@V?$allocator@_W@2@@std@@V?$shared_ptr@VNameValue@yloader@@@2@U?$less@V?$basic_string@_WU?$char_traits@_W@std@@V?$allocator@_W@2@@std@@@2@V?$allocator@U?$pair@$$CBV?$basic_string@_WU?$char_traits@_W@std@@V?$allocator@_W@2@@std@@V?$shared_ptr@VNameValue@yloader@@@2@@std@@@2@$00@std@@@std@@IBE?AU?$_Tree_find_result@PAU?$_Tree_node@U?$pair@$$CBV?$basic_string@_WU?$char_traits@_W@std@@V?$allocator@_W@2@@std@@V?$shared_ptr@VNameValue@yloader@@@2@@std@@PAX@std@@@1@ABV?$basic_string@_WU?$char_traits@_W@std@@V?$allocator@_W@2@@1@@Z 1001e960 f i namevalue.obj
 0001:0001d9f0       ??$distance@V?$_Tree_unchecked_const_iterator@V?$_Tree_val@U?$_Tree_simple_types@U?$pair@$$CBV?$basic_string@_WU?$char_traits@_W@std@@V?$allocator@_W@2@@std@@V?$shared_ptr@VNameValue@yloader@@@2@@std@@@std@@@std@@U_Iterator_base0@2@@std@@@std@@YAHV?$_Tree_unchecked_const_iterator@V?$_Tree_val@U?$_Tree_simple_types@U?$pair@$$CBV?$basic_string@_WU?$char_traits@_W@std@@V?$allocator@_W@2@@std@@V?$shared_ptr@VNameValue@yloader@@@2@@std@@@std@@@std@@U_Iterator_base0@2@@0@0@Z 1001e9f0 f i namevalue.obj
 0001:0001da50       ??$_Find@V?$basic_string@_WU?$char_traits@_W@std@@V?$allocator@_W@2@@std@@@?$_Tree@V?$_Tmap_traits@V?$basic_string@_WU?$char_traits@_W@std@@V?$allocator@_W@2@@std@@V?$shared_ptr@VNameValue@yloader@@@2@U?$less@V?$basic_string@_WU?$char_traits@_W@std@@V?$allocator@_W@2@@std@@@2@V?$allocator@U?$pair@$$CBV?$basic_string@_WU?$char_traits@_W@std@@V?$allocator@_W@2@@std@@V?$shared_ptr@VNameValue@yloader@@@2@@std@@@2@$00@std@@@std@@ABEPAU?$_Tree_node@U?$pair@$$CBV?$basic_string@_WU?$char_traits@_W@std@@V?$allocator@_W@2@@std@@V?$shared_ptr@VNameValue@yloader@@@2@@std@@PAX@1@ABV?$basic_string@_WU?$char_traits@_W@std@@V?$allocator@_W@2@@1@@Z 1001ea50 f i namevalue.obj
 0001:0001dad0       ??$_Erase_tree_and_orphan@V?$allocator@U?$_Tree_node@U?$pair@$$CBV?$basic_string@_WU?$char_traits@_W@std@@V?$allocator@_W@2@@std@@V?$shared_ptr@VNameValue@yloader@@@2@@std@@PAX@std@@@std@@@?$_Tree_val@U?$_Tree_simple_types@U?$pair@$$CBV?$basic_string@_WU?$char_traits@_W@std@@V?$allocator@_W@2@@std@@V?$shared_ptr@VNameValue@yloader@@@2@@std@@@std@@@std@@QAEXAAV?$allocator@U?$_Tree_node@U?$pair@$$CBV?$basic_string@_WU?$char_traits@_W@std@@V?$allocator@_W@2@@std@@V?$shared_ptr@VNameValue@yloader@@@2@@std@@PAX@std@@@1@PAU?$_Tree_node@U?$pair@$$CBV?$basic_string@_WU?$char_traits@_W@std@@V?$allocator@_W@2@@std@@V?$shared_ptr@VNameValue@yloader@@@2@@std@@PAX@1@@Z 1001ead0 f i namevalue.obj
 0001:0001dad0       ??$_Erase_tree@V?$allocator@U?$_Tree_node@U?$pair@$$CBV?$basic_string@_WU?$char_traits@_W@std@@V?$allocator@_W@2@@std@@V?$shared_ptr@VNameValue@yloader@@@2@@std@@PAX@std@@@std@@@?$_Tree_val@U?$_Tree_simple_types@U?$pair@$$CBV?$basic_string@_WU?$char_traits@_W@std@@V?$allocator@_W@2@@std@@V?$shared_ptr@VNameValue@yloader@@@2@@std@@@std@@@std@@QAEXAAV?$allocator@U?$_Tree_node@U?$pair@$$CBV?$basic_string@_WU?$char_traits@_W@std@@V?$allocator@_W@2@@std@@V?$shared_ptr@VNameValue@yloader@@@2@@std@@PAX@std@@@1@PAU?$_Tree_node@U?$pair@$$CBV?$basic_string@_WU?$char_traits@_W@std@@V?$allocator@_W@2@@std@@V?$shared_ptr@VNameValue@yloader@@@2@@std@@PAX@1@@Z 1001ead0 f i namevalue.obj
 0001:0001db20       ??$_Emplace_hint@ABU?$pair@$$CBV?$basic_string@_WU?$char_traits@_W@std@@V?$allocator@_W@2@@std@@V?$shared_ptr@VNameValue@yloader@@@2@@std@@@?$_Tree@V?$_Tmap_traits@V?$basic_string@_WU?$char_traits@_W@std@@V?$allocator@_W@2@@std@@V?$shared_ptr@VNameValue@yloader@@@2@U?$less@V?$basic_string@_WU?$char_traits@_W@std@@V?$allocator@_W@2@@std@@@2@V?$allocator@U?$pair@$$CBV?$basic_string@_WU?$char_traits@_W@std@@V?$allocator@_W@2@@std@@V?$shared_ptr@VNameValue@yloader@@@2@@std@@@2@$00@std@@@std@@IAEPAU?$_Tree_node@U?$pair@$$CBV?$basic_string@_WU?$char_traits@_W@std@@V?$allocator@_W@2@@std@@V?$shared_ptr@VNameValue@yloader@@@2@@std@@PAX@1@QAU21@ABU?$pair@$$CBV?$basic_string@_WU?$char_traits@_W@std@@V?$allocator@_W@2@@std@@V?$shared_ptr@VNameValue@yloader@@@2@@1@@Z 1001eb20 f i namevalue.obj
 0001:0001dc10       ??$_Copy@U_Copy_tag@?$_Tree@V?$_Tmap_traits@V?$basic_string@_WU?$char_traits@_W@std@@V?$allocator@_W@2@@std@@V?$shared_ptr@VNameValue@yloader@@@2@U?$less@V?$basic_string@_WU?$char_traits@_W@std@@V?$allocator@_W@2@@std@@@2@V?$allocator@U?$pair@$$CBV?$basic_string@_WU?$char_traits@_W@std@@V?$allocator@_W@2@@std@@V?$shared_ptr@VNameValue@yloader@@@2@@std@@@2@$00@std@@@std@@@?$_Tree@V?$_Tmap_traits@V?$basic_string@_WU?$char_traits@_W@std@@V?$allocator@_W@2@@std@@V?$shared_ptr@VNameValue@yloader@@@2@U?$less@V?$basic_string@_WU?$char_traits@_W@std@@V?$allocator@_W@2@@std@@@2@V?$allocator@U?$pair@$$CBV?$basic_string@_WU?$char_traits@_W@std@@V?$allocator@_W@2@@std@@V?$shared_ptr@VNameValue@yloader@@@2@@std@@@2@$00@std@@@std@@IAEXABV01@U_Copy_tag@01@@Z 1001ec10 f i namevalue.obj
 0001:0001dc90       ??$_Erase_head@V?$allocator@U?$_Tree_node@U?$pair@$$CBV?$basic_string@_WU?$char_traits@_W@std@@V?$allocator@_W@2@@std@@V?$shared_ptr@VNameValue@yloader@@@2@@std@@PAX@std@@@std@@@?$_Tree_val@U?$_Tree_simple_types@U?$pair@$$CBV?$basic_string@_WU?$char_traits@_W@std@@V?$allocator@_W@2@@std@@V?$shared_ptr@VNameValue@yloader@@@2@@std@@@std@@@std@@QAEXAAV?$allocator@U?$_Tree_node@U?$pair@$$CBV?$basic_string@_WU?$char_traits@_W@std@@V?$allocator@_W@2@@std@@V?$shared_ptr@VNameValue@yloader@@@2@@std@@PAX@std@@@1@@Z 1001ec90 f i namevalue.obj
 0001:0001dcf0       ??$_Copy@U_Move_tag@?$_Tree@V?$_Tmap_traits@V?$basic_string@_WU?$char_traits@_W@std@@V?$allocator@_W@2@@std@@V?$shared_ptr@VNameValue@yloader@@@2@U?$less@V?$basic_string@_WU?$char_traits@_W@std@@V?$allocator@_W@2@@std@@@2@V?$allocator@U?$pair@$$CBV?$basic_string@_WU?$char_traits@_W@std@@V?$allocator@_W@2@@std@@V?$shared_ptr@VNameValue@yloader@@@2@@std@@@2@$00@std@@@std@@@?$_Tree@V?$_Tmap_traits@V?$basic_string@_WU?$char_traits@_W@std@@V?$allocator@_W@2@@std@@V?$shared_ptr@VNameValue@yloader@@@2@U?$less@V?$basic_string@_WU?$char_traits@_W@std@@V?$allocator@_W@2@@std@@@2@V?$allocator@U?$pair@$$CBV?$basic_string@_WU?$char_traits@_W@std@@V?$allocator@_W@2@@std@@V?$shared_ptr@VNameValue@yloader@@@2@@std@@@2@$00@std@@@std@@IAEXABV01@U_Move_tag@01@@Z 1001ecf0 f i namevalue.obj
 0001:0001dd70       ??$_Destroy_range@V?$allocator@V?$shared_ptr@VNameValue@yloader@@@std@@@std@@@std@@YAXPAV?$shared_ptr@VNameValue@yloader@@@0@QAV10@AAV?$allocator@V?$shared_ptr@VNameValue@yloader@@@std@@@0@@Z 1001ed70 f i namevalue.obj
 0001:0001ddc0       ??1?$_Tree_temp_node@V?$allocator@U?$_Tree_node@U?$pair@$$CBV?$basic_string@_WU?$char_traits@_W@std@@V?$allocator@_W@2@@std@@V?$shared_ptr@VNameValue@yloader@@@2@@std@@PAX@std@@@std@@@std@@QAE@XZ 1001edc0 f i namevalue.obj
 0001:0001ddf0       ?_Destroy@?$_Ref_count@V?$basic_string@_WU?$char_traits@_W@std@@V?$allocator@_W@2@@std@@@std@@EAEXXZ 1001edf0 f i namevalue.obj
 0001:0001de50       ??1?$_Temporary_owner@V?$basic_string@_WU?$char_traits@_W@std@@V?$allocator@_W@2@@std@@@std@@QAE@XZ 1001ee50 f i namevalue.obj
 0001:0001deb0       ?_Destroy@?$_Ref_count@VNameValue@yloader@@@std@@EAEXXZ 1001eeb0 f i namevalue.obj
 0001:0001ded0       ??1?$_Temporary_owner@VNameValue@yloader@@@std@@QAE@XZ 1001eed0 f i namevalue.obj
 0001:0001def0       ??1?$_Alloc_construct_ptr@V?$allocator@U?$_Tree_node@U?$pair@$$CBV?$basic_string@_WU?$char_traits@_W@std@@V?$allocator@_W@2@@std@@V?$shared_ptr@VNameValue@yloader@@@2@@std@@PAX@std@@@std@@@std@@QAE@XZ 1001eef0 f i namevalue.obj
 0001:0001def0       ??1?$_Tree_temp_node_alloc@V?$allocator@U?$_Tree_node@U?$pair@$$CBV?$basic_string@_WU?$char_traits@_W@std@@V?$allocator@_W@2@@std@@V?$shared_ptr@VNameValue@yloader@@@2@@std@@PAX@std@@@std@@@std@@QAE@XZ 1001eef0 f i namevalue.obj
 0001:0001df10       ??$?0U?$pair@$$CBV?$basic_string@_WU?$char_traits@_W@std@@V?$allocator@_W@2@@std@@V?$shared_ptr@VNameValue@yloader@@@2@@std@@@?$_Tree_temp_node@V?$allocator@U?$_Tree_node@U?$pair@$$CBV?$basic_string@_WU?$char_traits@_W@std@@V?$allocator@_W@2@@std@@V?$shared_ptr@VNameValue@yloader@@@2@@std@@PAX@std@@@std@@@std@@QAE@AAV?$allocator@U?$_Tree_node@U?$pair@$$CBV?$basic_string@_WU?$char_traits@_W@std@@V?$allocator@_W@2@@std@@V?$shared_ptr@VNameValue@yloader@@@2@@std@@PAX@std@@@1@PAU?$_Tree_node@U?$pair@$$CBV?$basic_string@_WU?$char_traits@_W@std@@V?$allocator@_W@2@@std@@V?$shared_ptr@VNameValue@yloader@@@2@@std@@PAX@1@$$QAU?$pair@$$CBV?$basic_string@_WU?$char_traits@_W@std@@V?$allocator@_W@2@@std@@V?$shared_ptr@VNameValue@yloader@@@2@@1@@Z 1001ef10 f i namevalue.obj
 0001:0001dfd0       ??$_Copy_nodes@U_Copy_tag@?$_Tree@V?$_Tmap_traits@V?$basic_string@_WU?$char_traits@_W@std@@V?$allocator@_W@2@@std@@V?$shared_ptr@VNameValue@yloader@@@2@U?$less@V?$basic_string@_WU?$char_traits@_W@std@@V?$allocator@_W@2@@std@@@2@V?$allocator@U?$pair@$$CBV?$basic_string@_WU?$char_traits@_W@std@@V?$allocator@_W@2@@std@@V?$shared_ptr@VNameValue@yloader@@@2@@std@@@2@$00@std@@@std@@@?$_Tree@V?$_Tmap_traits@V?$basic_string@_WU?$char_traits@_W@std@@V?$allocator@_W@2@@std@@V?$shared_ptr@VNameValue@yloader@@@2@U?$less@V?$basic_string@_WU?$char_traits@_W@std@@V?$allocator@_W@2@@std@@@2@V?$allocator@U?$pair@$$CBV?$basic_string@_WU?$char_traits@_W@std@@V?$allocator@_W@2@@std@@V?$shared_ptr@VNameValue@yloader@@@2@@std@@@2@$00@std@@@std@@IAEPAU?$_Tree_node@U?$pair@$$CBV?$basic_string@_WU?$char_traits@_W@std@@V?$allocator@_W@2@@std@@V?$shared_ptr@VNameValue@yloader@@@2@@std@@PAX@1@PAU21@0U_Copy_tag@01@@Z 1001efd0 f i namevalue.obj
 0001:0001e0f0       ??$_Copy_nodes@U_Move_tag@?$_Tree@V?$_Tmap_traits@V?$basic_string@_WU?$char_traits@_W@std@@V?$allocator@_W@2@@std@@V?$shared_ptr@VNameValue@yloader@@@2@U?$less@V?$basic_string@_WU?$char_traits@_W@std@@V?$allocator@_W@2@@std@@@2@V?$allocator@U?$pair@$$CBV?$basic_string@_WU?$char_traits@_W@std@@V?$allocator@_W@2@@std@@V?$shared_ptr@VNameValue@yloader@@@2@@std@@@2@$00@std@@@std@@@?$_Tree@V?$_Tmap_traits@V?$basic_string@_WU?$char_traits@_W@std@@V?$allocator@_W@2@@std@@V?$shared_ptr@VNameValue@yloader@@@2@U?$less@V?$basic_string@_WU?$char_traits@_W@std@@V?$allocator@_W@2@@std@@@2@V?$allocator@U?$pair@$$CBV?$basic_string@_WU?$char_traits@_W@std@@V?$allocator@_W@2@@std@@V?$shared_ptr@VNameValue@yloader@@@2@@std@@@2@$00@std@@@std@@IAEPAU?$_Tree_node@U?$pair@$$CBV?$basic_string@_WU?$char_traits@_W@std@@V?$allocator@_W@2@@std@@V?$shared_ptr@VNameValue@yloader@@@2@@std@@PAX@1@PAU21@0U_Move_tag@01@@Z 1001f0f0 f i namevalue.obj
 0001:0001e240       ??$_Assign_range@PAV?$shared_ptr@VNameValue@yloader@@@std@@@?$vector@V?$shared_ptr@VNameValue@yloader@@@std@@V?$allocator@V?$shared_ptr@VNameValue@yloader@@@std@@@2@@std@@AAEXPAV?$shared_ptr@VNameValue@yloader@@@1@0Uforward_iterator_tag@1@@Z 1001f240 f i namevalue.obj
 0001:0001e370       ??$_Uninitialized_move@PAV?$shared_ptr@VNameValue@yloader@@@std@@V?$allocator@V?$shared_ptr@VNameValue@yloader@@@std@@@2@@std@@YAPAV?$shared_ptr@VNameValue@yloader@@@0@QAV10@0PAV10@AAV?$allocator@V?$shared_ptr@VNameValue@yloader@@@std@@@0@@Z 1001f370 f i namevalue.obj
 0001:0001e3d0       ??$_Copy_unchecked@PAV?$shared_ptr@VNameValue@yloader@@@std@@PAV12@@std@@YAPAV?$shared_ptr@VNameValue@yloader@@@0@PAV10@00@Z 1001f3d0 f i namevalue.obj
 0001:0001e435       ??1_Fac_node@std@@QAE@XZ   1001f435 f i msvcprt:locale0_implib.obj
 0001:0001e466       ??1_Fac_tidy_reg_t@std@@QAE@XZ 1001f466 f i msvcprt:locale0_implib.obj
 0001:0001e48d       ?_Facet_Register@std@@YAXPAV_Facet_base@1@@Z 1001f48d f   msvcprt:locale0_implib.obj
 0001:0001e4b9       ?_Lock@?$basic_streambuf@DU?$char_traits@D@std@@@std@@UAEXXZ 1001f4b9 f   msvcprt:MSVCP140.dll
 0001:0001e4bf       ?_Unlock@?$basic_streambuf@DU?$char_traits@D@std@@@std@@UAEXXZ 1001f4bf f   msvcprt:MSVCP140.dll
 0001:0001e4c5       ?showmanyc@?$basic_streambuf@DU?$char_traits@D@std@@@std@@MAE_JXZ 1001f4c5 f   msvcprt:MSVCP140.dll
 0001:0001e4cb       ?uflow@?$basic_streambuf@DU?$char_traits@D@std@@@std@@MAEHXZ 1001f4cb f   msvcprt:MSVCP140.dll
 0001:0001e4d1       ?xsgetn@?$basic_streambuf@DU?$char_traits@D@std@@@std@@MAE_JPAD_J@Z 1001f4d1 f   msvcprt:MSVCP140.dll
 0001:0001e4d7       ?xsputn@?$basic_streambuf@DU?$char_traits@D@std@@@std@@MAE_JPBD_J@Z 1001f4d7 f   msvcprt:MSVCP140.dll
 0001:0001e4dd       ?setbuf@?$basic_streambuf@DU?$char_traits@D@std@@@std@@MAEPAV12@PAD_J@Z 1001f4dd f   msvcprt:MSVCP140.dll
 0001:0001e4e3       ?sync@?$basic_streambuf@DU?$char_traits@D@std@@@std@@MAEHXZ 1001f4e3 f   msvcprt:MSVCP140.dll
 0001:0001e4e9       ?imbue@?$basic_streambuf@DU?$char_traits@D@std@@@std@@MAEXABVlocale@2@@Z 1001f4e9 f   msvcprt:MSVCP140.dll
 0001:0001e4ef       ?_Lock@?$basic_streambuf@_WU?$char_traits@_W@std@@@std@@UAEXXZ 1001f4ef f   msvcprt:MSVCP140.dll
 0001:0001e4f5       ?_Unlock@?$basic_streambuf@_WU?$char_traits@_W@std@@@std@@UAEXXZ 1001f4f5 f   msvcprt:MSVCP140.dll
 0001:0001e4fb       ?showmanyc@?$basic_streambuf@_WU?$char_traits@_W@std@@@std@@MAE_JXZ 1001f4fb f   msvcprt:MSVCP140.dll
 0001:0001e501       ?uflow@?$basic_streambuf@_WU?$char_traits@_W@std@@@std@@MAEGXZ 1001f501 f   msvcprt:MSVCP140.dll
 0001:0001e507       ?xsgetn@?$basic_streambuf@_WU?$char_traits@_W@std@@@std@@MAE_JPA_W_J@Z 1001f507 f   msvcprt:MSVCP140.dll
 0001:0001e50d       ?xsputn@?$basic_streambuf@_WU?$char_traits@_W@std@@@std@@MAE_JPB_W_J@Z 1001f50d f   msvcprt:MSVCP140.dll
 0001:0001e513       ?setbuf@?$basic_streambuf@_WU?$char_traits@_W@std@@@std@@MAEPAV12@PA_W_J@Z 1001f513 f   msvcprt:MSVCP140.dll
 0001:0001e519       ?sync@?$basic_streambuf@_WU?$char_traits@_W@std@@@std@@MAEHXZ 1001f519 f   msvcprt:MSVCP140.dll
 0001:0001e51f       ?imbue@?$basic_streambuf@_WU?$char_traits@_W@std@@@std@@MAEXABVlocale@2@@Z 1001f51f f   msvcprt:MSVCP140.dll
 0001:0001e525       ?_Decref@facet@locale@std@@UAEPAV_Facet_base@3@XZ 1001f525 f   msvcprt:MSVCP140.dll
 0001:0001e52b       ?_Incref@facet@locale@std@@UAEXXZ 1001f52b f   msvcprt:MSVCP140.dll
 0001:0001e531       @__security_check_cookie@4 1001f531 f   MSVCRT:secchk.obj
 0001:0001e53f       ??_V@YAXPAX@Z              1001f53f f   MSVCRT:delete_array.obj
 0001:0001e609       __Init_thread_abort        1001f609 f   MSVCRT:thread_safe_statics.obj
 0001:0001e62d       __Init_thread_footer       1001f62d f   MSVCRT:thread_safe_statics.obj
 0001:0001e677       __Init_thread_header       1001f677 f   MSVCRT:thread_safe_statics.obj
 0001:0001e6c9       __Init_thread_notify       1001f6c9 f   MSVCRT:thread_safe_statics.obj
 0001:0001e6ff       __Init_thread_wait         1001f6ff f   MSVCRT:thread_safe_statics.obj
 0001:0001e74d       ??2@YAPAXI@Z               1001f74d f   MSVCRT:new_scalar.obj
 0001:0001e77d       ??_M@YGXPAXIIP6EX0@Z@Z     1001f77d f   MSVCRT:ehvecdtr.obj
 0001:0001e802       ?__ArrayUnwind@@YGXPAXIIP6EX0@Z@Z 1001f802 f   MSVCRT:ehvecdtr.obj
 0001:0001e8d6       ___scrt_acquire_startup_lock 1001f8d6 f   MSVCRT:utility.obj
 0001:0001e908       ___scrt_dllmain_after_initialize_c 1001f908 f   MSVCRT:utility.obj
 0001:0001e933       ___scrt_dllmain_before_initialize_c 1001f933 f   MSVCRT:utility.obj
 0001:0001e941       ___scrt_dllmain_crt_thread_attach 1001f941 f   MSVCRT:utility.obj
 0001:0001e960       ___scrt_dllmain_crt_thread_detach 1001f960 f   MSVCRT:utility.obj
 0001:0001e96d       ___scrt_dllmain_exception_filter 1001f96d f   MSVCRT:utility.obj
 0001:0001e9a1       ___scrt_dllmain_uninitialize_c 1001f9a1 f   MSVCRT:utility.obj
 0001:0001e9c4       ___scrt_dllmain_uninitialize_critical 1001f9c4 f   MSVCRT:utility.obj
 0001:0001e9d1       ___scrt_initialize_crt     1001f9d1 f   MSVCRT:utility.obj
 0001:0001ea0a       ___scrt_initialize_onexit_tables 1001fa0a f   MSVCRT:utility.obj
 0001:0001ea91       ___scrt_is_nonwritable_in_current_image 1001fa91 f   MSVCRT:utility.obj
 0001:0001eb25       ___scrt_release_startup_lock 1001fb25 f   MSVCRT:utility.obj
 0001:0001eb42       ___scrt_uninitialize_crt   1001fb42 f   MSVCRT:utility.obj
 0001:0001eb6a       __onexit                   1001fb6a f   MSVCRT:utility.obj
 0001:0001eb97       _atexit                    1001fb97 f   MSVCRT:utility.obj
 0001:0001ebac       ??3@YAXPAX@Z               1001fbac f   MSVCRT:delete_scalar.obj
 0001:0001ebb1       ??3@YAXPAXI@Z              1001fbb1 f   MSVCRT:delete_scalar_size.obj
 0001:0001ebbf       ??_U@YAPAXI@Z              1001fbbf f   MSVCRT:new_array.obj
 0001:0001ebc8       ??_Etype_info@@UAEPAXI@Z   1001fbc8 f i MSVCRT:std_type_info_static.obj
 0001:0001ebc8       ??_Gtype_info@@UAEPAXI@Z   1001fbc8 f i MSVCRT:std_type_info_static.obj
 0001:0001ef2b       __DllMainCRTStartup@12     1001ff2b f   MSVCRT:dll_dllmain.obj
 0001:0001ef4e       ___raise_securityfailure   1001ff4e f   MSVCRT:gs_report.obj
 0001:0001ef76       ___report_gsfailure        1001ff76 f   MSVCRT:gs_report.obj
 0001:0001f070       ___scrt_fastfail           10020070 f   MSVCRT:utility_desktop.obj
 0001:0001f18b       __crt_debugger_hook        1002018b f   MSVCRT:utility_desktop.obj
 0001:0001f193       ?__scrt_throw_std_bad_alloc@@YAXXZ 10020193 f   MSVCRT:throw_bad_alloc.obj
 0001:0001f1b0       ?__scrt_throw_std_bad_array_new_length@@YAXXZ 100201b0 f   MSVCRT:throw_bad_alloc.obj
 0001:0001f1d0       __SEH_prolog4              100201d0 f   MSVCRT:sehprolg4.obj
 0001:0001f215       __except_handler4          10020215 f   MSVCRT:chandler4gs.obj
 0001:0001f244       ___isa_available_init      10020244 f   MSVCRT:cpu_disp.obj
 0001:0001f415       __get_startup_argv_mode    10020415 f   MSVCRT:argv_mode.obj
 0001:0001f419       ___scrt_is_ucrt_dll_in_use 10020419 f   MSVCRT:ucrt_detection.obj
 0001:0001f472       ___security_init_cookie    10020472 f   MSVCRT:gs_support.obj
 0001:0001f4bd       ?__scrt_initialize_type_info@@YAXXZ 100204bd f   MSVCRT:tncleanup.obj
 0001:0001f4c9       ?__scrt_uninitialize_type_info@@YAXXZ 100204c9 f   MSVCRT:tncleanup.obj
 0001:0001f4d5       ___local_stdio_scanf_options 100204d5 f i MSVCRT:default_local_stdio_options.obj
 0001:0001f4db       ___scrt_initialize_default_local_stdio_options 100204db f   MSVCRT:default_local_stdio_options.obj
 0001:0001f4f8       ___scrt_get_dyn_tls_init_callback 100204f8 f   MSVCRT:dyn_tls_init.obj
 0001:0001f4fe       __RTC_Initialize           100204fe f   MSVCRT:initsect.obj
 0001:0001f52a       __RTC_Terminate            1002052a f   MSVCRT:initsect.obj
 0001:0001f556       ___CxxFrameHandler3        10020556 f   vcruntime:VCRUNTIME140.dll
 0001:0001f55c       __purecall                 1002055c f   vcruntime:VCRUNTIME140.dll
 0001:0001f562       ___std_terminate           10020562 f   vcruntime:VCRUNTIME140.dll
 0001:0001f568       ___current_exception       10020568 f   vcruntime:VCRUNTIME140.dll
 0001:0001f56e       ___current_exception_context 1002056e f   vcruntime:VCRUNTIME140.dll
 0001:0001f574       _memset                    10020574 f   vcruntime:VCRUNTIME140.dll
 0001:0001f57a       __CxxThrowException@8      1002057a f   vcruntime:VCRUNTIME140.dll
 0001:0001f580       __except_handler4_common   10020580 f   vcruntime:VCRUNTIME140.dll
 0001:0001f586       ___std_type_info_destroy_list 10020586 f   vcruntime:VCRUNTIME140.dll
 0001:0001f58c       _free                      1002058c f   ucrt:api-ms-win-crt-heap-l1-1-0.dll
 0001:0001f592       __callnewh                 10020592 f   ucrt:api-ms-win-crt-heap-l1-1-0.dll
 0001:0001f598       _malloc                    10020598 f   ucrt:api-ms-win-crt-heap-l1-1-0.dll
 0001:0001f59e       _terminate                 1002059e f   ucrt:api-ms-win-crt-runtime-l1-1-0.dll
 0001:0001f5a4       __seh_filter_dll           100205a4 f   ucrt:api-ms-win-crt-runtime-l1-1-0.dll
 0001:0001f5aa       __configure_narrow_argv    100205aa f   ucrt:api-ms-win-crt-runtime-l1-1-0.dll
 0001:0001f5b0       __initialize_narrow_environment 100205b0 f   ucrt:api-ms-win-crt-runtime-l1-1-0.dll
 0001:0001f5b6       __initialize_onexit_table  100205b6 f   ucrt:api-ms-win-crt-runtime-l1-1-0.dll
 0001:0001f5bc       __register_onexit_function 100205bc f   ucrt:api-ms-win-crt-runtime-l1-1-0.dll
 0001:0001f5c2       __execute_onexit_table     100205c2 f   ucrt:api-ms-win-crt-runtime-l1-1-0.dll
 0001:0001f5c8       __crt_atexit               100205c8 f   ucrt:api-ms-win-crt-runtime-l1-1-0.dll
 0001:0001f5ce       __cexit                    100205ce f   ucrt:api-ms-win-crt-runtime-l1-1-0.dll
 0001:0001f5d4       __initterm                 100205d4 f   ucrt:api-ms-win-crt-runtime-l1-1-0.dll
 0001:0001f5da       __initterm_e               100205da f   ucrt:api-ms-win-crt-runtime-l1-1-0.dll
 0001:0001f670       ??1?$intrusive_ptr@Uthread_data_base@detail@boost@@@boost@@QAE@XZ 10020670 f i libboost_thread-vc142-mt-x32-1_80:thread.obj
 0001:0001f6d0       ??1once_context@detail@boost@@QAE@XZ 100206d0 f i libboost_thread-vc142-mt-x32-1_80:thread.obj
 0001:0001f720       ??E?$_Tree_unchecked_const_iterator@V?$_Tree_val@U?$_Tree_simple_types@U?$pair@QBXUtss_data_node@detail@boost@@@std@@@std@@@std@@U_Iterator_base0@2@@std@@QAEAAV01@XZ 10020720 f i libboost_thread-vc142-mt-x32-1_80:thread.obj
 0001:0001f780       ?_Extract@?$_Tree_val@U?$_Tree_simple_types@U?$pair@QBXUtss_data_node@detail@boost@@@std@@@std@@@std@@QAEPAU?$_Tree_node@U?$pair@QBXUtss_data_node@detail@boost@@@std@@PAX@2@V?$_Tree_unchecked_const_iterator@V?$_Tree_val@U?$_Tree_simple_types@U?$pair@QBXUtss_data_node@detail@boost@@@std@@@std@@@std@@U_Iterator_base0@2@@2@@Z 10020780 f i libboost_thread-vc142-mt-x32-1_80:thread.obj
 0001:0001fa30       ?_Lrotate@?$_Tree_val@U?$_Tree_simple_types@U?$pair@QBXUtss_data_node@detail@boost@@@std@@@std@@@std@@QAEXPAU?$_Tree_node@U?$pair@QBXUtss_data_node@detail@boost@@@std@@PAX@2@@Z 10020a30 f i libboost_thread-vc142-mt-x32-1_80:thread.obj
 0001:0001fa80       ?_Min@?$_Tree_val@U?$_Tree_simple_types@U?$pair@QBXUtss_data_node@detail@boost@@@std@@@std@@@std@@SAPAU?$_Tree_node@U?$pair@QBXUtss_data_node@detail@boost@@@std@@PAX@2@PAU32@@Z 10020a80 f i libboost_thread-vc142-mt-x32-1_80:thread.obj
 0001:0001faa0       ?_Rrotate@?$_Tree_val@U?$_Tree_simple_types@U?$pair@QBXUtss_data_node@detail@boost@@@std@@@std@@@std@@QAEXPAU?$_Tree_node@U?$pair@QBXUtss_data_node@detail@boost@@@std@@PAX@2@@Z 10020aa0 f i libboost_thread-vc142-mt-x32-1_80:thread.obj
 0001:0001fb00       ?call_once@boost@@YAXAAUonce_flag@1@P6AXXZ@Z 10020b00 f i libboost_thread-vc142-mt-x32-1_80:thread.obj
 0001:0001fd40       ?name_once_mutex@detail@boost@@YAXPADPAX@Z 10020d40 f i libboost_thread-vc142-mt-x32-1_80:thread.obj
 0001:0001fe50       ?on_process_exit@boost@@YAXXZ 10020e50 f   libboost_thread-vc142-mt-x32-1_80:thread.obj
 0001:0001fe70       ?on_thread_exit@boost@@YAXXZ 10020e70 f   libboost_thread-vc142-mt-x32-1_80:thread.obj
 0001:0001fe80       ?rollback_once_region@detail@boost@@YAXAAUonce_flag@2@AAUonce_context@12@@Z 10020e80 f i libboost_thread-vc142-mt-x32-1_80:thread.obj
 0001:00020070       __alldiv                   10021070 f   MSVCRT:lldiv.obj
 0001:00020120       __allmul                   10021120 f   MSVCRT:llmul.obj
 0001:00020160       _memcpy                    10021160 f   vcruntime:VCRUNTIME140.dll
 0001:00020166       _memmove                   10021166 f   vcruntime:VCRUNTIME140.dll
 0001:0002016c       ___vcrt_initialize         1002116c f   MSVCRT:ucrt_stubs.obj
 0001:0002016c       ___acrt_thread_attach      1002116c f   MSVCRT:ucrt_stubs.obj
 0001:0002016c       ___scrt_stub_for_acrt_thread_attach 1002116c f   MSVCRT:ucrt_stubs.obj
 0001:0002016c       ___scrt_stub_for_acrt_initialize 1002116c f   MSVCRT:ucrt_stubs.obj
 0001:0002016c       ___acrt_initialize         1002116c f   MSVCRT:ucrt_stubs.obj
 0001:0002016c       ___vcrt_thread_attach      1002116c f   MSVCRT:ucrt_stubs.obj
 0001:0002016c       ___scrt_stub_for_acrt_thread_detach 1002116c f   MSVCRT:ucrt_stubs.obj
 0001:0002016c       ___acrt_uninitialize_critical 1002116c f   MSVCRT:ucrt_stubs.obj
 0001:0002016c       ___vcrt_uninitialize       1002116c f   MSVCRT:ucrt_stubs.obj
 0001:0002016c       ___vcrt_uninitialize_critical 1002116c f   MSVCRT:ucrt_stubs.obj
 0001:0002016c       ___acrt_uninitialize       1002116c f   MSVCRT:ucrt_stubs.obj
 0001:0002016c       ___scrt_stub_for_acrt_uninitialize 1002116c f   MSVCRT:ucrt_stubs.obj
 0001:0002016c       ___vcrt_thread_detach      1002116c f   MSVCRT:ucrt_stubs.obj
 0001:0002016c       ___scrt_stub_for_acrt_uninitialize_critical 1002116c f   MSVCRT:ucrt_stubs.obj
 0001:0002016c       ___acrt_thread_detach      1002116c f   MSVCRT:ucrt_stubs.obj
 0001:0002016f       __filter_x86_sse2_floating_point_exception 1002116f f   MSVCRT:x86_exception_filter.obj
 0001:0002016f       __filter_x86_sse2_floating_point_exception_default 1002116f f   MSVCRT:x86_exception_filter.obj
 0001:000201f0       __allrem                   100211f0 f   MSVCRT:llrem.obj
 0001:000202b0       __aulldiv                  100212b0 f   MSVCRT:ulldiv.obj
 0001:00020318       ___RTDynamicCast           10021318 f   vcruntime:VCRUNTIME140.dll
 0001:0002031e       _memchr                    1002131e f   vcruntime:VCRUNTIME140.dll
 0001:00020324       __CIfmod                   10021324 f   ucrt:api-ms-win-crt-math-l1-1-0.dll
 0001:00022dd0       ??__Fmonth_map@?6???$month_str_to_ushort@Vgreg_month@gregorian@boost@@@date_time@boost@@YAGABV?$basic_string@DU?$char_traits@D@std@@V?$allocator@D@2@@std@@@Z@YAXXZ 10023dd0 f i misc.obj
 0002:00000000       __imp__MultiByteToWideChar@24 10024000     kernel32:KERNEL32.dll
 0002:00000004       __imp__SetEvent@4          10024004     kernel32:KERNEL32.dll
 0002:00000008       __imp__CloseHandle@4       10024008     kernel32:KERNEL32.dll
 0002:0000000c       __imp__WideCharToMultiByte@32 1002400c     kernel32:KERNEL32.dll
 0002:00000010       __imp__GetSystemTimeAsFileTime@4 10024010     kernel32:KERNEL32.dll
 0002:00000014       __imp__CreateEventA@16     10024014     kernel32:KERNEL32.dll
 0002:00000018       __imp__LeaveCriticalSection@4 10024018     kernel32:KERNEL32.dll
 0002:0000001c       __imp__InitializeCriticalSectionAndSpinCount@8 1002401c     kernel32:KERNEL32.dll
 0002:00000020       __imp__DeleteCriticalSection@4 10024020     kernel32:KERNEL32.dll
 0002:00000024       __imp__ResetEvent@4        10024024     kernel32:KERNEL32.dll
 0002:00000028       __imp__WaitForSingleObjectEx@12 10024028     kernel32:KERNEL32.dll
 0002:0000002c       __imp__CreateEventW@16     1002402c     kernel32:KERNEL32.dll
 0002:00000030       __imp__GetModuleHandleW@4  10024030     kernel32:KERNEL32.dll
 0002:00000034       __imp__GetProcAddress@8    10024034     kernel32:KERNEL32.dll
 0002:00000038       __imp__UnhandledExceptionFilter@4 10024038     kernel32:KERNEL32.dll
 0002:0000003c       __imp__SetUnhandledExceptionFilter@4 1002403c     kernel32:KERNEL32.dll
 0002:00000040       __imp__GetCurrentProcess@0 10024040     kernel32:KERNEL32.dll
 0002:00000044       __imp__TerminateProcess@8  10024044     kernel32:KERNEL32.dll
 0002:00000048       __imp__IsProcessorFeaturePresent@4 10024048     kernel32:KERNEL32.dll
 0002:0000004c       __imp__IsDebuggerPresent@0 1002404c     kernel32:KERNEL32.dll
 0002:00000050       __imp__QueryPerformanceCounter@4 10024050     kernel32:KERNEL32.dll
 0002:00000054       __imp__GetCurrentProcessId@0 10024054     kernel32:KERNEL32.dll
 0002:00000058       __imp__GetCurrentThreadId@0 10024058     kernel32:KERNEL32.dll
 0002:0000005c       __imp__InitializeSListHead@4 1002405c     kernel32:KERNEL32.dll
 0002:00000060       __imp__HeapFree@12         10024060     kernel32:KERNEL32.dll
 0002:00000064       __imp__GetProcessHeap@0    10024064     kernel32:KERNEL32.dll
 0002:00000068       __imp__OpenEventA@12       10024068     kernel32:KERNEL32.dll
 0002:0000006c       __imp__TlsAlloc@0          1002406c     kernel32:KERNEL32.dll
 0002:00000070       __imp__TlsGetValue@4       10024070     kernel32:KERNEL32.dll
 0002:00000074       __imp__TlsSetValue@8       10024074     kernel32:KERNEL32.dll
 0002:00000078       __imp__TlsFree@4           10024078     kernel32:KERNEL32.dll
 0002:0000007c       __imp__EnterCriticalSection@4 1002407c     kernel32:KERNEL32.dll
 0002:00000080       \177KERNEL32_NULL_THUNK_DATA 10024080     kernel32:KERNEL32.dll
 0002:00000084       __imp_?_Pninc@?$basic_streambuf@DU?$char_traits@D@std@@@std@@IAEPADXZ 10024084     msvcprt:MSVCP140.dll
 0002:00000088       __imp_?_Pninc@?$basic_streambuf@_WU?$char_traits@_W@std@@@std@@IAEPA_WXZ 10024088     msvcprt:MSVCP140.dll
 0002:0000008c       __imp_??0?$basic_ios@DU?$char_traits@D@std@@@std@@IAE@XZ 1002408c     msvcprt:MSVCP140.dll
 0002:00000090       __imp_?setstate@?$basic_ios@_WU?$char_traits@_W@std@@@std@@QAEXH_N@Z 10024090     msvcprt:MSVCP140.dll
 0002:00000094       __imp_??0?$basic_ios@_WU?$char_traits@_W@std@@@std@@IAE@XZ 10024094     msvcprt:MSVCP140.dll
 0002:00000098       __imp_??0?$basic_ostream@_WU?$char_traits@_W@std@@@std@@QAE@PAV?$basic_streambuf@_WU?$char_traits@_W@std@@@1@_N@Z 10024098     msvcprt:MSVCP140.dll
 0002:0000009c       __imp_??1?$basic_streambuf@DU?$char_traits@D@std@@@std@@UAE@XZ 1002409c     msvcprt:MSVCP140.dll
 0002:000000a0       __imp_?_Lock@?$basic_streambuf@DU?$char_traits@D@std@@@std@@UAEXXZ 100240a0     msvcprt:MSVCP140.dll
 0002:000000a4       __imp_?_Unlock@?$basic_streambuf@DU?$char_traits@D@std@@@std@@UAEXXZ 100240a4     msvcprt:MSVCP140.dll
 0002:000000a8       __imp_?showmanyc@?$basic_streambuf@DU?$char_traits@D@std@@@std@@MAE_JXZ 100240a8     msvcprt:MSVCP140.dll
 0002:000000ac       __imp_?uflow@?$basic_streambuf@DU?$char_traits@D@std@@@std@@MAEHXZ 100240ac     msvcprt:MSVCP140.dll
 0002:000000b0       __imp_?xsgetn@?$basic_streambuf@DU?$char_traits@D@std@@@std@@MAE_JPAD_J@Z 100240b0     msvcprt:MSVCP140.dll
 0002:000000b4       __imp_?xsputn@?$basic_streambuf@DU?$char_traits@D@std@@@std@@MAE_JPBD_J@Z 100240b4     msvcprt:MSVCP140.dll
 0002:000000b8       __imp_?setbuf@?$basic_streambuf@DU?$char_traits@D@std@@@std@@MAEPAV12@PAD_J@Z 100240b8     msvcprt:MSVCP140.dll
 0002:000000bc       __imp_?sync@?$basic_streambuf@DU?$char_traits@D@std@@@std@@MAEHXZ 100240bc     msvcprt:MSVCP140.dll
 0002:000000c0       __imp_?_Osfx@?$basic_ostream@_WU?$char_traits@_W@std@@@std@@QAEXXZ 100240c0     msvcprt:MSVCP140.dll
 0002:000000c4       __imp_??1?$basic_streambuf@_WU?$char_traits@_W@std@@@std@@UAE@XZ 100240c4     msvcprt:MSVCP140.dll
 0002:000000c8       __imp_?_Lock@?$basic_streambuf@_WU?$char_traits@_W@std@@@std@@UAEXXZ 100240c8     msvcprt:MSVCP140.dll
 0002:000000cc       __imp_?_Unlock@?$basic_streambuf@_WU?$char_traits@_W@std@@@std@@UAEXXZ 100240cc     msvcprt:MSVCP140.dll
 0002:000000d0       __imp_?showmanyc@?$basic_streambuf@_WU?$char_traits@_W@std@@@std@@MAE_JXZ 100240d0     msvcprt:MSVCP140.dll
 0002:000000d4       __imp_?uflow@?$basic_streambuf@_WU?$char_traits@_W@std@@@std@@MAEGXZ 100240d4     msvcprt:MSVCP140.dll
 0002:000000d8       __imp_?xsgetn@?$basic_streambuf@_WU?$char_traits@_W@std@@@std@@MAE_JPA_W_J@Z 100240d8     msvcprt:MSVCP140.dll
 0002:000000dc       __imp_?xsputn@?$basic_streambuf@_WU?$char_traits@_W@std@@@std@@MAE_JPB_W_J@Z 100240dc     msvcprt:MSVCP140.dll
 0002:000000e0       __imp_?setbuf@?$basic_streambuf@_WU?$char_traits@_W@std@@@std@@MAEPAV12@PA_W_J@Z 100240e0     msvcprt:MSVCP140.dll
 0002:000000e4       __imp_?sync@?$basic_streambuf@_WU?$char_traits@_W@std@@@std@@MAEHXZ 100240e4     msvcprt:MSVCP140.dll
 0002:000000e8       __imp_?imbue@?$basic_streambuf@_WU?$char_traits@_W@std@@@std@@MAEXABVlocale@2@@Z 100240e8     msvcprt:MSVCP140.dll
 0002:000000ec       __imp_??1?$basic_ios@DU?$char_traits@D@std@@@std@@UAE@XZ 100240ec     msvcprt:MSVCP140.dll
 0002:000000f0       __imp_??1?$basic_ios@_WU?$char_traits@_W@std@@@std@@UAE@XZ 100240f0     msvcprt:MSVCP140.dll
 0002:000000f4       __imp_??1?$basic_ostream@_WU?$char_traits@_W@std@@@std@@UAE@XZ 100240f4     msvcprt:MSVCP140.dll
 0002:000000f8       __imp_??6?$basic_ostream@_WU?$char_traits@_W@std@@@std@@QAEAAV01@I@Z 100240f8     msvcprt:MSVCP140.dll
 0002:000000fc       __imp_??1?$basic_iostream@DU?$char_traits@D@std@@@std@@UAE@XZ 100240fc     msvcprt:MSVCP140.dll
 0002:00000100       __imp_?getloc@ios_base@std@@QBE?AVlocale@2@XZ 10024100     msvcprt:MSVCP140.dll
 0002:00000104       __imp_?exceptions@ios_base@std@@QAEXH@Z 10024104     msvcprt:MSVCP140.dll
 0002:00000108       __imp_?_Getcat@?$ctype@_W@std@@SAIPAPBVfacet@locale@2@PBV42@@Z 10024108     msvcprt:MSVCP140.dll
 0002:0000010c       __imp_?narrow@?$ctype@_W@std@@QBED_WD@Z 1002410c     msvcprt:MSVCP140.dll
 0002:00000110       __imp_?widen@?$ctype@_W@std@@QBE_WD@Z 10024110     msvcprt:MSVCP140.dll
 0002:00000114       __imp_?is@?$ctype@_W@std@@QBE_NF_W@Z 10024114     msvcprt:MSVCP140.dll
 0002:00000118       __imp_?_Getcat@?$ctype@D@std@@SAIPAPBVfacet@locale@2@PBV42@@Z 10024118     msvcprt:MSVCP140.dll
 0002:0000011c       __imp_?tolower@?$ctype@D@std@@QBEDD@Z 1002411c     msvcprt:MSVCP140.dll
 0002:00000120       __imp_??1facet@locale@std@@MAE@XZ 10024120     msvcprt:MSVCP140.dll
 0002:00000124       __imp_??0facet@locale@std@@IAE@I@Z 10024124     msvcprt:MSVCP140.dll
 0002:00000128       __imp_?_Decref@facet@locale@std@@UAEPAV_Facet_base@3@XZ 10024128     msvcprt:MSVCP140.dll
 0002:0000012c       __imp_?_Incref@facet@locale@std@@UAEXXZ 1002412c     msvcprt:MSVCP140.dll
 0002:00000130       __imp_??Bid@locale@std@@QAEIXZ 10024130     msvcprt:MSVCP140.dll
 0002:00000134       __imp_?_Gettrue@_Locinfo@std@@QBEPBDXZ 10024134     msvcprt:MSVCP140.dll
 0002:00000138       __imp_?_Getfalse@_Locinfo@std@@QBEPBDXZ 10024138     msvcprt:MSVCP140.dll
 0002:0000013c       __imp_?_Getlconv@_Locinfo@std@@QBEPBUlconv@@XZ 1002413c     msvcprt:MSVCP140.dll
 0002:00000140       __imp_?_Getcvt@_Locinfo@std@@QBE?AU_Cvtvec@@XZ 10024140     msvcprt:MSVCP140.dll
 0002:00000144       __imp_??1_Locinfo@std@@QAE@XZ 10024144     msvcprt:MSVCP140.dll
 0002:00000148       __imp_??0_Locinfo@std@@QAE@PBD@Z 10024148     msvcprt:MSVCP140.dll
 0002:0000014c       __imp_?clear@?$basic_ios@_WU?$char_traits@_W@std@@@std@@QAEXH_N@Z 1002414c     msvcprt:MSVCP140.dll
 0002:00000150       __imp_??0?$basic_streambuf@_WU?$char_traits@_W@std@@@std@@IAE@XZ 10024150     msvcprt:MSVCP140.dll
 0002:00000154       __imp_??0?$basic_streambuf@DU?$char_traits@D@std@@@std@@IAE@XZ 10024154     msvcprt:MSVCP140.dll
 0002:00000158       __imp_?widen@?$basic_ios@_WU?$char_traits@_W@std@@@std@@QBE_WD@Z 10024158     msvcprt:MSVCP140.dll
 0002:0000015c       __imp_?sputc@?$basic_streambuf@_WU?$char_traits@_W@std@@@std@@QAEG_W@Z 1002415c     msvcprt:MSVCP140.dll
 0002:00000160       __imp_?sgetc@?$basic_streambuf@DU?$char_traits@D@std@@@std@@QAEHXZ 10024160     msvcprt:MSVCP140.dll
 0002:00000164       __imp_?sbumpc@?$basic_streambuf@DU?$char_traits@D@std@@@std@@QAEHXZ 10024164     msvcprt:MSVCP140.dll
 0002:00000168       __imp_??6?$basic_ostream@_WU?$char_traits@_W@std@@@std@@QAEAAV01@_J@Z 10024168     msvcprt:MSVCP140.dll
 0002:0000016c       __imp_??6?$basic_ostream@_WU?$char_traits@_W@std@@@std@@QAEAAV01@G@Z 1002416c     msvcprt:MSVCP140.dll
 0002:00000170       __imp_?sputn@?$basic_streambuf@_WU?$char_traits@_W@std@@@std@@QAE_JPB_W_J@Z 10024170     msvcprt:MSVCP140.dll
 0002:00000174       __imp_??0?$basic_iostream@DU?$char_traits@D@std@@@std@@QAE@PAV?$basic_streambuf@DU?$char_traits@D@std@@@1@@Z 10024174     msvcprt:MSVCP140.dll
 0002:00000178       __imp_?imbue@?$basic_ios@_WU?$char_traits@_W@std@@@std@@QAE?AVlocale@2@ABV32@@Z 10024178     msvcprt:MSVCP140.dll
 0002:0000017c       __imp___Mtx_unlock         1002417c     msvcprt:MSVCP140.dll
 0002:00000180       __imp___Mtx_init_in_situ   10024180     msvcprt:MSVCP140.dll
 0002:00000184       __imp___Mtx_lock           10024184     msvcprt:MSVCP140.dll
 0002:00000188       __imp___Mtx_destroy_in_situ 10024188     msvcprt:MSVCP140.dll
 0002:0000018c       __imp_?id@?$numpunct@_W@std@@2V0locale@2@A 1002418c     msvcprt:MSVCP140.dll
 0002:00000190       __imp_?_Xlength_error@std@@YAXPBD@Z 10024190     msvcprt:MSVCP140.dll
 0002:00000194       __imp_?id@?$ctype@D@std@@2V0locale@2@A 10024194     msvcprt:MSVCP140.dll
 0002:00000198       __imp_?setw@std@@YA?AU?$_Smanip@_J@1@_J@Z 10024198     msvcprt:MSVCP140.dll
 0002:0000019c       __imp_?_Throw_C_error@std@@YAXH@Z 1002419c     msvcprt:MSVCP140.dll
 0002:000001a0       __imp_?id@?$numpunct@D@std@@2V0locale@2@A 100241a0     msvcprt:MSVCP140.dll
 0002:000001a4       __imp_?_Xout_of_range@std@@YAXPBD@Z 100241a4     msvcprt:MSVCP140.dll
 0002:000001a8       __imp_?id@?$ctype@_W@std@@2V0locale@2@A 100241a8     msvcprt:MSVCP140.dll
 0002:000001ac       __imp_?_Xbad_alloc@std@@YAXXZ 100241ac     msvcprt:MSVCP140.dll
 0002:000001b0       __imp_?classic@locale@std@@SAABV12@XZ 100241b0     msvcprt:MSVCP140.dll
 0002:000001b4       __imp_?_Init@locale@std@@CAPAV_Locimp@12@_N@Z 100241b4     msvcprt:MSVCP140.dll
 0002:000001b8       __imp_?_Getgloballocale@locale@std@@CAPAV_Locimp@12@XZ 100241b8     msvcprt:MSVCP140.dll
 0002:000001bc       __imp_?uncaught_exceptions@std@@YAHXZ 100241bc     msvcprt:MSVCP140.dll
 0002:000001c0       __imp_??0_Lockit@std@@QAE@H@Z 100241c0     msvcprt:MSVCP140.dll
 0002:000001c4       __imp_??1_Lockit@std@@QAE@XZ 100241c4     msvcprt:MSVCP140.dll
 0002:000001c8       __imp___Mbrtowc            100241c8     msvcprt:MSVCP140.dll
 0002:000001cc       __imp_?flush@?$basic_ostream@_WU?$char_traits@_W@std@@@std@@QAEAAV12@XZ 100241cc     msvcprt:MSVCP140.dll
 0002:000001d0       __imp_?imbue@?$basic_streambuf@DU?$char_traits@D@std@@@std@@MAEXABVlocale@2@@Z 100241d0     msvcprt:MSVCP140.dll
 0002:000001d4       \177MSVCP140_NULL_THUNK_DATA 100241d4     msvcprt:MSVCP140.dll
 0002:000001d8       __imp____std_type_info_destroy_list 100241d8     vcruntime:VCRUNTIME140.dll
 0002:000001dc       __imp____std_type_info_compare 100241dc     vcruntime:VCRUNTIME140.dll
 0002:000001e0       __imp__memchr              100241e0     vcruntime:VCRUNTIME140.dll
 0002:000001e4       __imp____std_exception_copy 100241e4     vcruntime:VCRUNTIME140.dll
 0002:000001e8       __imp____RTDynamicCast     100241e8     vcruntime:VCRUNTIME140.dll
 0002:000001ec       __imp___except_handler4_common 100241ec     vcruntime:VCRUNTIME140.dll
 0002:000001f0       __imp___CxxThrowException@8 100241f0     vcruntime:VCRUNTIME140.dll
 0002:000001f4       __imp____CxxFrameHandler3  100241f4     vcruntime:VCRUNTIME140.dll
 0002:000001f8       __imp____std_exception_destroy 100241f8     vcruntime:VCRUNTIME140.dll
 0002:000001fc       __imp____std_terminate     100241fc     vcruntime:VCRUNTIME140.dll
 0002:00000200       __imp__memset              10024200     vcruntime:VCRUNTIME140.dll
 0002:00000204       __imp__memcpy              10024204     vcruntime:VCRUNTIME140.dll
 0002:00000208       __imp____current_exception_context 10024208     vcruntime:VCRUNTIME140.dll
 0002:0000020c       __imp____current_exception 1002420c     vcruntime:VCRUNTIME140.dll
 0002:00000210       __imp__memmove             10024210     vcruntime:VCRUNTIME140.dll
 0002:00000214       __imp___purecall           10024214     vcruntime:VCRUNTIME140.dll
 0002:00000218       \177VCRUNTIME140_NULL_THUNK_DATA 10024218     vcruntime:VCRUNTIME140.dll
 0002:0000021c       __imp___wtoi               1002421c     ucrt:api-ms-win-crt-convert-l1-1-0.dll
 0002:00000220       \177api-ms-win-crt-convert-l1-1-0_NULL_THUNK_DATA 10024220     ucrt:api-ms-win-crt-convert-l1-1-0.dll
 0002:00000224       __imp__calloc              10024224     ucrt:api-ms-win-crt-heap-l1-1-0.dll
 0002:00000228       __imp___callnewh           10024228     ucrt:api-ms-win-crt-heap-l1-1-0.dll
 0002:0000022c       __imp__malloc              1002422c     ucrt:api-ms-win-crt-heap-l1-1-0.dll
 0002:00000230       __imp__free                10024230     ucrt:api-ms-win-crt-heap-l1-1-0.dll
 0002:00000234       \177api-ms-win-crt-heap-l1-1-0_NULL_THUNK_DATA 10024234     ucrt:api-ms-win-crt-heap-l1-1-0.dll
 0002:00000238       __imp___CIfmod             10024238     ucrt:api-ms-win-crt-math-l1-1-0.dll
 0002:0000023c       \177api-ms-win-crt-math-l1-1-0_NULL_THUNK_DATA 1002423c     ucrt:api-ms-win-crt-math-l1-1-0.dll
 0002:00000240       __imp__terminate           10024240     ucrt:api-ms-win-crt-runtime-l1-1-0.dll
 0002:00000244       __imp___seh_filter_dll     10024244     ucrt:api-ms-win-crt-runtime-l1-1-0.dll
 0002:00000248       __imp___configure_narrow_argv 10024248     ucrt:api-ms-win-crt-runtime-l1-1-0.dll
 0002:0000024c       __imp___cexit              1002424c     ucrt:api-ms-win-crt-runtime-l1-1-0.dll
 0002:00000250       __imp___invalid_parameter_noinfo_noreturn 10024250     ucrt:api-ms-win-crt-runtime-l1-1-0.dll
 0002:00000254       __imp___initialize_narrow_environment 10024254     ucrt:api-ms-win-crt-runtime-l1-1-0.dll
 0002:00000258       __imp___initialize_onexit_table 10024258     ucrt:api-ms-win-crt-runtime-l1-1-0.dll
 0002:0000025c       __imp___register_onexit_function 1002425c     ucrt:api-ms-win-crt-runtime-l1-1-0.dll
 0002:00000260       __imp___execute_onexit_table 10024260     ucrt:api-ms-win-crt-runtime-l1-1-0.dll
 0002:00000264       __imp___crt_atexit         10024264     ucrt:api-ms-win-crt-runtime-l1-1-0.dll
 0002:00000268       __imp___initterm_e         10024268     ucrt:api-ms-win-crt-runtime-l1-1-0.dll
 0002:0000026c       __imp___initterm           1002426c     ucrt:api-ms-win-crt-runtime-l1-1-0.dll
 0002:00000270       \177api-ms-win-crt-runtime-l1-1-0_NULL_THUNK_DATA 10024270     ucrt:api-ms-win-crt-runtime-l1-1-0.dll
 0002:00000274       __imp__tolower             10024274     ucrt:api-ms-win-crt-string-l1-1-0.dll
 0002:00000278       __imp__isspace             10024278     ucrt:api-ms-win-crt-string-l1-1-0.dll
 0002:0000027c       __imp__ispunct             1002427c     ucrt:api-ms-win-crt-string-l1-1-0.dll
 0002:00000280       \177api-ms-win-crt-string-l1-1-0_NULL_THUNK_DATA 10024280     ucrt:api-ms-win-crt-string-l1-1-0.dll
 0002:00000284       __imp___gmtime64           10024284     ucrt:api-ms-win-crt-time-l1-1-0.dll
 0002:00000288       __imp___time64             10024288     ucrt:api-ms-win-crt-time-l1-1-0.dll
 0002:0000028c       __imp__clock               1002428c     ucrt:api-ms-win-crt-time-l1-1-0.dll
 0002:00000290       __imp___localtime64        10024290     ucrt:api-ms-win-crt-time-l1-1-0.dll
 0002:00000294       \177api-ms-win-crt-time-l1-1-0_NULL_THUNK_DATA 10024294     ucrt:api-ms-win-crt-time-l1-1-0.dll
 0002:00000298       ___guard_check_icall_fptr  10024298     MSVCRT:guard_support.obj
 0002:0000029c       ___xc_a                    1002429c     MSVCRT:initializers.obj
 0002:000002a4       ?p_process_init@boost@@3Q6AXXZA 100242a4     libboost_thread-vc142-mt-x32-1_80:tss_pe.obj
 0002:000002bc       ___xc_z                    100242bc     MSVCRT:initializers.obj
 0002:000002c0       ___xi_a                    100242c0     MSVCRT:initializers.obj
 0002:000002c8       ?p_tls_prepare@boost@@3Q6AHXZA 100242c8     libboost_thread-vc142-mt-x32-1_80:tss_pe.obj
 0002:000002cc       ___xi_z                    100242cc     MSVCRT:initializers.obj
 0002:000002d0       ___xl_a                    100242d0     MSVCRT:tlssup.obj
 0002:000002d4       ?p_tls_callback@boost@@3Q6GXPAUHINSTANCE__@@KPAX@ZA 100242d4     libboost_thread-vc142-mt-x32-1_80:tss_pe.obj
 0002:000002d8       ___xl_z                    100242d8     MSVCRT:tlssup.obj
 0002:000002dc       ___xp_a                    100242dc     MSVCRT:initializers.obj
 0002:000002e0       ___xp_z                    100242e0     MSVCRT:initializers.obj
 0002:000002e4       ___xt_a                    100242e4     MSVCRT:initializers.obj
 0002:000002e8       ?p_process_term@boost@@3Q6AXXZA 100242e8     libboost_thread-vc142-mt-x32-1_80:tss_pe.obj
 0002:000002ec       ___xt_z                    100242ec     MSVCRT:initializers.obj
 0002:000002f0       ??_C@_1EC@JIJBPKFM@?$AAa?$AAp?$AAi?$AA?9?$AAm?$AAs?$AA?9?$AAw?$AAi?$AAn?$AA?9?$AAc?$AAo?$AAr?$AAe@ 100242f0     MSVCRT:thread_safe_statics.obj
 0002:00000334       ??_C@_1BK@MGMFAEKH@?$AAk?$AAe?$AAr?$AAn?$AAe?$AAl?$AA3?$AA2?$AA?4?$AAd?$AAl?$AAl@ 10024334     MSVCRT:thread_safe_statics.obj
 0002:00000350       ??_C@_0BJ@JEBJOJFJ@SleepConditionVariableCS@ 10024350     MSVCRT:thread_safe_statics.obj
 0002:0000036c       ??_C@_0BJ@PGPPEPCC@WakeAllConditionVariable@ 1002436c     MSVCRT:thread_safe_statics.obj
 0002:0000038c       ??_7type_info@@6B@         1002438c     MSVCRT:std_type_info_static.obj
 0002:00000390       __pDefaultRawDllMain       10024390     MSVCRT:dll_dllmain.obj
 0002:000003a0       ??_7exception@std@@6B@     100243a0     MSVCRT:throw_bad_alloc.obj
 0002:000003ac       ??_7bad_alloc@std@@6B@     100243ac     MSVCRT:throw_bad_alloc.obj
 0002:000003b8       ??_7bad_array_new_length@std@@6B@ 100243b8     MSVCRT:throw_bad_alloc.obj
 0002:000003c0       __pDefaultRawDllMainOrig   100243c0     libboost_thread-vc142-mt-x32-1_80:tss_pe.obj
 0002:000003c0       __pRawDllMainOrig          100243c0     libboost_thread-vc142-mt-x32-1_80:tss_pe.obj
 0002:000003c4       __pRawDllMain              100243c4     libboost_thread-vc142-mt-x32-1_80:tss_pe.obj
 0002:000003cc       ??_7exception@boost@@6B@   100243cc     libboost_thread-vc142-mt-x32-1_80:thread.obj
 0002:000003d4       ??_7clone_base@exception_detail@boost@@6B@ 100243d4     libboost_thread-vc142-mt-x32-1_80:thread.obj
 0002:000003e4       ??_7?$sp_counted_impl_p@V?$clone_impl@Ubad_alloc_@exception_detail@boost@@@exception_detail@boost@@@detail@boost@@6B@ 100243e4     libboost_thread-vc142-mt-x32-1_80:thread.obj
 0002:00000400       ??_7?$sp_counted_impl_p@V?$clone_impl@Ubad_exception_@exception_detail@boost@@@exception_detail@boost@@@detail@boost@@6B@ 10024400     libboost_thread-vc142-mt-x32-1_80:thread.obj
 0002:0000041c       ??_7?$clone_impl@Ubad_alloc_@exception_detail@boost@@@exception_detail@boost@@6Bexception@2@@ 1002441c     libboost_thread-vc142-mt-x32-1_80:thread.obj
 0002:00000424       ??_7?$clone_impl@Ubad_alloc_@exception_detail@boost@@@exception_detail@boost@@6Bbad_alloc@std@@@ 10024424     libboost_thread-vc142-mt-x32-1_80:thread.obj
 0002:00000430       ??_7?$clone_impl@Ubad_alloc_@exception_detail@boost@@@exception_detail@boost@@6B@ 10024430     libboost_thread-vc142-mt-x32-1_80:thread.obj
 0002:00000440       ??_7?$clone_impl@Ubad_exception_@exception_detail@boost@@@exception_detail@boost@@6Bexception@2@@ 10024440     libboost_thread-vc142-mt-x32-1_80:thread.obj
 0002:00000448       ??_7?$clone_impl@Ubad_exception_@exception_detail@boost@@@exception_detail@boost@@6Bbad_exception@std@@@ 10024448     libboost_thread-vc142-mt-x32-1_80:thread.obj
 0002:00000454       ??_7?$clone_impl@Ubad_exception_@exception_detail@boost@@@exception_detail@boost@@6B@ 10024454     libboost_thread-vc142-mt-x32-1_80:thread.obj
 0002:00000464       ??_7sp_counted_base@detail@boost@@6B@ 10024464     libboost_thread-vc142-mt-x32-1_80:thread.obj
 0002:00000480       ??_7bad_exception@std@@6B@ 10024480     libboost_thread-vc142-mt-x32-1_80:thread.obj
 0002:0000048c       ??_7bad_alloc_@exception_detail@boost@@6Bexception@2@@ 1002448c     libboost_thread-vc142-mt-x32-1_80:thread.obj
 0002:00000494       ??_7bad_alloc_@exception_detail@boost@@6Bbad_alloc@std@@@ 10024494     libboost_thread-vc142-mt-x32-1_80:thread.obj
 0002:000004a0       ??_7bad_exception_@exception_detail@boost@@6Bexception@2@@ 100244a0     libboost_thread-vc142-mt-x32-1_80:thread.obj
 0002:000004a8       ??_7bad_exception_@exception_detail@boost@@6Bbad_exception@std@@@ 100244a8     libboost_thread-vc142-mt-x32-1_80:thread.obj
 0002:000004b4       ??_7runtime_error@std@@6B@ 100244b4     libboost_thread-vc142-mt-x32-1_80:thread.obj
 0002:000004bc       ?fixed_mutex_name@?1??name_once_mutex@detail@boost@@YAXPADPAX@Z@4QBDB 100244bc     libboost_thread-vc142-mt-x32-1_80:thread.obj
 0002:00000518       ??_C@_0BC@EOODALEL@Unknown?5exception@ 10024518     misc.obj
 0002:0000052c       ??_C@_0O@DPKOEFFH@bad?5exception@ 1002452c     misc.obj
 0002:0000053c       ??_C@_0P@GHFPNOJB@bad?5allocation@ 1002453c     misc.obj
 0002:0000054c       ??_C@_0BF@KINCDENJ@bad?5array?5new?5length@ 1002454c     misc.obj
 0002:00000564       ??_C@_0BA@JFNIOLAK@string?5too?5long@ 10024564     misc.obj
 0002:00000574       ??_C@_00CNPNBAHC@@         10024574     misc.obj
 0002:00000578       ??_C@_08EPJLHIJG@bad?5cast@ 10024578     misc.obj
 0002:00000584       ??_C@_01NBENCBCI@?$CK@     10024584     misc.obj
 0002:00000588       ??_C@_0CJ@PIMMHAJE@Day?5of?5month?5value?5is?5out?5of?5ra@ 10024588     misc.obj
 0002:000005b4       ??_C@_0CH@MBPBLNCG@Year?5is?5out?5of?5valid?5range?3?5140@ 100245b4     misc.obj
 0002:000005dc       ??_C@_0CD@FBNLMBFL@Month?5number?5is?5out?5of?5range?51?4@ 100245dc     misc.obj
 0002:00000600       ??_C@_03JIHJHPIE@Jan@      10024600     misc.obj
 0002:00000604       ??_C@_03HJBDCHOM@Feb@      10024604     misc.obj
 0002:00000608       ??_C@_03ODNJBKGA@Mar@      10024608     misc.obj
 0002:0000060c       ??_C@_03LEOLGMJP@Apr@      1002460c     misc.obj
 0002:00000610       ??_C@_03CNMDKL@May@        10024610     misc.obj
 0002:00000614       ??_C@_03IDFGHECI@Jun@      10024614     misc.obj
 0002:00000618       ??_C@_03LBGABGKK@Jul@      10024618     misc.obj
 0002:0000061c       ??_C@_03IFJFEIGA@Aug@      1002461c     misc.obj
 0002:00000620       ??_C@_03GGCAPAJC@Sep@      10024620     misc.obj
 0002:00000624       ??_C@_03BMAOKBAD@Oct@      10024624     misc.obj
 0002:00000628       ??_C@_03JPJOFNIA@Nov@      10024628     misc.obj
 0002:0000062c       ??_C@_03MKABNOCG@Dec@      1002462c     misc.obj
 0002:00000630       ??_C@_03JBPPNJFC@NAM@      10024630     misc.obj
 0002:00000634       ??_C@_17DKNBKCHM@?$AAJ?$AAa?$AAn@ 10024634     misc.obj
 0002:0000063c       ??_C@_17LMDJEKJN@?$AAF?$AAe?$AAb@ 1002463c     misc.obj
 0002:00000644       ??_C@_17CKNLEDEC@?$AAM?$AAa?$AAr@ 10024644     misc.obj
 0002:0000064c       ??_C@_17LFPOIHDD@?$AAA?$AAp?$AAr@ 1002464c     misc.obj
 0002:00000654       ??_C@_17PNNKMEED@?$AAM?$AAa?$AAy@ 10024654     misc.obj
 0002:0000065c       ??_C@_17KCJGOCPB@?$AAJ?$AAu?$AAn@ 1002465c     misc.obj
 0002:00000664       ??_C@_17IJPCKHK@?$AAJ?$AAu?$AAl@ 10024664     misc.obj
 0002:0000066c       ??_C@_17ICPELBCN@?$AAA?$AAu?$AAg@ 1002466c     misc.obj
 0002:00000674       ??_C@_17HCHCOKMG@?$AAS?$AAe?$AAp@ 10024674     misc.obj
 0002:0000067c       ??_C@_17FNLKOI@?$AAO?$AAc?$AAt@ 1002467c     misc.obj
 0002:00000684       ??_C@_17BBDMLCIG@?$AAN?$AAo?$AAv@ 10024684     misc.obj
 0002:0000068c       ??_C@_17EGKACKIF@?$AAD?$AAe?$AAc@ 1002468c     misc.obj
 0002:00000694       ??_C@_0CD@EKHKOMOM@Day?5of?5month?5is?5not?5valid?5for?5y@ 10024694     misc.obj
 0002:000006bc       ??_7?$_Ref_count@VTimeDurationImpl@@@std@@6B@ 100246bc     misc.obj
 0002:000006cc       ??_C@_0CO@MNNADGJG@could?5not?5convert?5calendar?5time@ 100246cc     misc.obj
 0002:000006fc       ??_C@_0CM@DGIADEHE@could?5not?5convert?5calendar?5time@ 100246fc     misc.obj
 0002:00000728       ??_C@_1CA@GBCALMCO@?$AAn?$AAo?$AAt?$AA?9?$AAa?$AA?9?$AAd?$AAa?$AAt?$AAe?$AA?9?$AAt?$AAi?$AAm?$AAe@ 10024728     misc.obj
 0002:00000748       ??_C@_1BE@JJEFLJAE@?$AA?$CL?$AAi?$AAn?$AAf?$AAi?$AAn?$AAi?$AAt?$AAy@ 10024748     misc.obj
 0002:0000075c       ??_C@_1BE@BNGGCENB@?$AA?9?$AAi?$AAn?$AAf?$AAi?$AAn?$AAi?$AAt?$AAy@ 1002475c     misc.obj
 0002:00000770       ??_C@_0BB@GCADKGJO@map?1set?5too?5long@ 10024770     misc.obj
 0002:00000788       ??_C@_0EH@FFMEKAOB@bad?5lexical?5cast?3?5source?5type?5v@ 10024788     misc.obj
 0002:000007d0       ??_C@_0BA@COBEFOKA@not?9a?9date?9time@ 100247d0     misc.obj
 0002:000007e0       ??_C@_09JJMDMOEE@?9infinity@ 100247e0     misc.obj
 0002:000007ec       ??_C@_09JENNLOAD@?$CLinfinity@ 100247ec     misc.obj
 0002:000007f8       ??_8?$clone_impl@Ubad_alloc_@exception_detail@boost@@@exception_detail@boost@@7B@ 100247f8     misc.obj
 0002:000007f8       ??_8?$clone_impl@Ubad_exception_@exception_detail@boost@@@exception_detail@boost@@7B@ 100247f8     misc.obj
 0002:00000800       ??_C@_19BPJGHEMJ@?$AA?5?$AA?7?$AA?6?$AA?$AN@ 10024800     misc.obj
 0002:0000080c       ??_C@_11LOCGONAA@@         1002480c     misc.obj
 0002:00000810       ??_C@_13JOFGPIOO@?$AA?4@   10024810     misc.obj
 0002:00000818       ??_7out_of_range@std@@6B@  10024818     misc.obj
 0002:00000820       ??_8?$basic_stringstream@DU?$char_traits@D@std@@V?$allocator@D@2@@std@@7B?$basic_ostream@DU?$char_traits@D@std@@@1@@ 10024820     misc.obj
 0002:0000082c       ??_7?$wrapexcept@Vbad_format_string@io@boost@@@boost@@6Bclone_base@exception_detail@1@@ 1002482c     misc.obj
 0002:00000838       ??_C@_15JOGBDECP@?$AA?0?$AA?5@ 10024838     misc.obj
 0002:00000844       ??_7?$_Ref_count@VDateTimeImpl@@@std@@6B@ 10024844     misc.obj
 0002:00000854       ??_C@_0CM@KNACEDFN@boost?3?3format_error?3?5format?5gen@ 10024854     misc.obj
 0002:00000880       ??_C@_0DG@NIKLBDNH@boost?3?3bad_format_string?3?5forma@ 10024880     misc.obj
 0002:000008b8       ??_C@_0EP@LKAAJEIC@boost?3?3too_few_args?3?5format?9str@ 100248b8     misc.obj
 0002:00000908       ??_C@_0FB@PMMNHDAI@boost?3?3too_many_args?3?5format?9st@ 10024908     misc.obj
 0002:0000095c       ??_C@_1CI@GPOHLOLD@?$AAI?$AAn?$AAv?$AAa?$AAl?$AAi?$AAd?$AA?5?$AAd?$AAa?$AAt?$AAe?$AA?3?$AA?5?$AA?$CC@ 1002495c     misc.obj
 0002:00000984       ??_C@_1CI@DMBHBNEI@?$AAU?$AAn?$AAk?$AAn?$AAo?$AAw?$AAn?$AA?5?$AAf?$AAo?$AAr?$AAm?$AAa?$AAt?$AA?5@ 10024984     misc.obj
 0002:000009b0       ??_C@_1GI@FOAJCPEO@?$AAY?$AAe?$AAa?$AAr?$AA?5?$AAm?$AAu?$AAs?$AAt?$AA?5?$AAb?$AAe?$AA?5?$AAa?$AAn@ 100249b0     misc.obj
 0002:00000a18       ??_C@_1GA@LPFCGLNF@?$AAM?$AAo?$AAn?$AAt?$AAh?$AA?5?$AAm?$AAu?$AAs?$AAt?$AA?5?$AAb?$AAe?$AA?5?$AAa@ 10024a18     misc.obj
 0002:00000a78       ??_C@_1FM@COGAADDJ@?$AAD?$AAa?$AAy?$AA?5?$AAm?$AAu?$AAs?$AAt?$AA?5?$AAb?$AAe?$AA?5?$AAa?$AAn?$AA?5@ 10024a78     misc.obj
 0002:00000ad4       ??_C@_1CE@OHJEELMD@?$AAW?$AAr?$AAo?$AAn?$AAg?$AA?5?$AAd?$AAa?$AAt?$AAe?$AA?5?$AAf?$AAo?$AAr?$AAm@ 10024ad4     misc.obj
 0002:00000af8       ??_C@_1BO@KENFONEO@?$AA2?$AA0?$AA0?$AA9?$AA1?$AA0?$AA0?$AA7?$AA2?$AA3?$AA3?$AA0?$AA0?$AA0@ 10024af8     misc.obj
 0002:00000b18       ??_C@_13JKNELIBG@?$AAT@    10024b18     misc.obj
 0002:00000b1c       ??_C@_1BA@NHCIOCHM@?$AA6?$AA?0?$AA0?$AA?0?$AA0?$AA?0?$AA8@ 10024b1c     misc.obj
 0002:00000b2c       ??_C@_15JJHPCKJM@?$AA?4?$AA?0@ 10024b2c     misc.obj
 0002:00000b34       ??_C@_1DK@OILGBIMJ@?$AA?5?$AA?9?$AA?5?$AAt?$AAo?$AAo?$AA?5?$AAm?$AAa?$AAn?$AAy?$AA?5?$AAv?$AAe?$AAr@ 10024b34     misc.obj
 0002:00000b70       ??_C@_15DEJJBEOA@?$AA?5?$AA?7@ 10024b70     misc.obj
 0002:00000b78       ??_C@_1EM@PHFKAKAP@?$AAF?$AAo?$AAr?$AAm?$AAa?$AAt?$AA?5?$AAx?$AAy?$AAz?$AA?5?$AAn?$AAo?$AAt?$AA?5@ 10024b78     misc.obj
 0002:00000bc4       ??_C@_1CA@NAEGKDJH@?$AA?$CF?$AA1?$AA?$CF?$AA?$CF?$AA4?$AA?$CF?$AA?$CF?$AA2?$AA?$CF?$AA?$CF?$AA4?$AA?$CF?$AA?$CF?$AA3?$AA?$CF@ 10024bc4     misc.obj
 0002:00000be4       ??_C@_01LFCBOECM@?4@       10024be4     misc.obj
 0002:00000be8       ??_C@_0BI@CFPLBAOH@invalid?5string?5position@ 10024be8     misc.obj
 0002:00000c00       ??_C@_03IJBCDJCF@ymd@      10024c00     misc.obj
 0002:00000c04       ??_C@_01JLIPDDHJ@?3@       10024c04     misc.obj
 0002:00000c0c       ??_7?$wrapexcept@Ubad_day_of_month@gregorian@boost@@@boost@@6Bbad_day_of_month@gregorian@1@@ 10024c0c     misc.obj
 0002:00000c14       ??_8?$basic_oaltstringstream@_WU?$char_traits@_W@std@@V?$allocator@_W@2@@io@boost@@7B@ 10024c14     misc.obj
 0002:00000c1c       ??_C@_0BA@FOIKENOD@vector?5too?5long@ 10024c1c     misc.obj
 0002:00000c2c       ??_C@_03DIELNALK@jan@      10024c2c     misc.obj
 0002:00000c30       ??_C@_07NPOJDEMG@january@  10024c30     misc.obj
 0002:00000c38       ??_C@_03NJCBIINC@feb@      10024c38     misc.obj
 0002:00000c3c       ??_C@_08OPGHMNPO@february@ 10024c3c     misc.obj
 0002:00000c4c       ??_7?$wrapexcept@Ubad_year@gregorian@boost@@@boost@@6Bclone_base@exception_detail@1@@ 10024c4c     misc.obj
 0002:00000c58       ??_C@_03EDOLLFFO@mar@      10024c58     misc.obj
 0002:00000c5c       ??_C@_05HIIGOAOE@march@    10024c5c     misc.obj
 0002:00000c64       ??_C@_03BENJMDKB@apr@      10024c64     misc.obj
 0002:00000c68       ??_C@_05DLDPNOHP@april@    10024c68     misc.obj
 0002:00000c70       ??_C@_03KABPGMJF@may@      10024c70     misc.obj
 0002:00000c74       ??_C@_03CDGENLBG@jun@      10024c74     misc.obj
 0002:00000c78       ??_C@_04OMHNEOGI@june@     10024c78     misc.obj
 0002:00000c84       ??_7?$wrapexcept@Ubad_day_of_month@gregorian@boost@@@boost@@6Bclone_base@exception_detail@1@@ 10024c84     misc.obj
 0002:00000c90       ??_C@_03BBFCLJJE@jul@      10024c90     misc.obj
 0002:00000c94       ??_C@_04JIOMHFL@july@      10024c94     misc.obj
 0002:00000c9c       ??_C@_03CFKHOHFO@aug@      10024c9c     misc.obj
 0002:00000ca0       ??_C@_06HOKKGKKK@august@   10024ca0     misc.obj
 0002:00000ca8       ??_C@_03MGBCFPKM@sep@      10024ca8     misc.obj
 0002:00000cac       ??_C@_09FICJAIHD@september@ 10024cac     misc.obj
 0002:00000cb8       ??_C@_03LMDMAODN@oct@      10024cb8     misc.obj
 0002:00000cbc       ??_C@_07GAKDEGIF@october@  10024cbc     misc.obj
 0002:00000cc4       ??_C@_03DPKMPCLO@nov@      10024cc4     misc.obj
 0002:00000cc8       ??_C@_08PAIFOGED@november@ 10024cc8     misc.obj
 0002:00000cd4       ??_C@_03GKDDHBBI@dec@      10024cd4     misc.obj
 0002:00000cd8       ??_C@_08MBINMDHM@december@ 10024cd8     misc.obj
 0002:00000ce8       ??_C@_0II@FKIFLBFA@C?3?2Users?2Bould?2Documents?2yloade@ 10024ce8     misc.obj
 0002:00000d70       ??_C@_0IK@LHEHAGMH@class?5boost?3?3exception_ptr?5__cd@ 10024d70     misc.obj
 0002:00000e00       ??_C@_0IO@BHMGIOEK@class?5boost?3?3exception_ptr?5__cd@ 10024e00     misc.obj
 0002:00000e90       ??_C@_0BG@EOMJEIFA@vector?$DMbool?$DO?5too?5long@ 10024e90     misc.obj
 0002:00000eac       ??_7?$_Ref_count_resource@PA_WU?$default_delete@$$BY0A@_W@std@@@std@@6B@ 10024eac     misc.obj
 0002:00000ec0       ??_7?$wrapexcept@Ubad_month@gregorian@boost@@@boost@@6Bbad_month@gregorian@1@@ 10024ec0     misc.obj
 0002:00000ecc       ??_7bad_cast@std@@6B@      10024ecc     misc.obj
 0002:00000ed8       ??_7?$_Ref_count_obj2@VDateImpl@@@std@@6B@ 10024ed8     misc.obj
 0002:00000eec       ??_7?$sp_counted_impl_pd@PAV?$basic_altstringbuf@_WU?$char_traits@_W@std@@V?$allocator@_W@2@@io@boost@@VNo_Op@?$basic_oaltstringstream@_WU?$char_traits@_W@std@@V?$allocator@_W@2@@23@@detail@boost@@6B@ 10024eec     misc.obj
 0002:00000f08       ??_7logic_error@std@@6B@   10024f08     misc.obj
 0002:00000f14       ??_7format_error@io@boost@@6B@ 10024f14     misc.obj
 0002:00000f20       ??_7?$wrapexcept@Ubad_year@gregorian@boost@@@boost@@6Bbad_year@gregorian@1@@ 10024f20     misc.obj
 0002:00000f2c       ??_7?$basic_stringbuf@DU?$char_traits@D@std@@V?$allocator@D@2@@std@@6B@ 10024f2c     misc.obj
 0002:00000f6c       ??_7?$basic_ostringstream@_WU?$char_traits@_W@std@@V?$allocator@_W@2@@std@@6B@ 10024f6c     misc.obj
 0002:00000f74       ??_7?$wrapexcept@Vtoo_few_args@io@boost@@@boost@@6Bclone_base@exception_detail@1@@ 10024f74     misc.obj
 0002:00000f84       ??_7DateAbstr@yloader@@6B@ 10024f84     misc.obj
 0002:00000fe8       ??_7DateTimeAbstr@yloader@@6B@ 10024fe8     misc.obj
 0002:00001054       ??_7?$wrapexcept@Vruntime_error@std@@@boost@@6Bclone_base@exception_detail@1@@ 10025054     misc.obj
 0002:00001064       ??_7?$_Ref_count_obj2@VTimeDurationImpl@@@std@@6B@ 10025064     misc.obj
 0002:00001078       ??_7bad_lexical_cast@boost@@6B@ 10025078     misc.obj
 0002:00001084       ??_7?$basic_stringstream@DU?$char_traits@D@std@@V?$allocator@D@2@@std@@6B@ 10025084     misc.obj
 0002:0000108c       ??_7bad_format_string@io@boost@@6B@ 1002508c     misc.obj
 0002:00001098       ??_7?$wrapexcept@Vtoo_many_args@io@boost@@@boost@@6Bclone_base@exception_detail@1@@ 10025098     misc.obj
 0002:000010a8       ??_7TimeDurationImpl@@6B@  100250a8     misc.obj
 0002:00001100       ??_7?$wrapexcept@Vbad_format_string@io@boost@@@boost@@6Bexception@1@@ 10025100     misc.obj
 0002:00001108       ??_7too_few_args@io@boost@@6B@ 10025108     misc.obj
 0002:00001114       ??_7?$wrapexcept@Vtoo_many_args@io@boost@@@boost@@6Bexception@1@@ 10025114     misc.obj
 0002:0000111c       ??_7?$basic_stringbuf@_WU?$char_traits@_W@std@@V?$allocator@_W@2@@std@@6B@ 1002511c     misc.obj
 0002:0000115c       ??_7?$wrapexcept@Ubad_day_of_month@gregorian@boost@@@boost@@6Bexception@1@@ 1002515c     misc.obj
 0002:00001164       ??_7?$wrapexcept@Ubad_month@gregorian@boost@@@boost@@6Bclone_base@exception_detail@1@@ 10025164     misc.obj
 0002:00001174       ??_7DateImpl@@6B@          10025174     misc.obj
 0002:000011d8       ??_7?$wrapexcept@Ubad_year@gregorian@boost@@@boost@@6Bexception@1@@ 100251d8     misc.obj
 0002:000011e0       ??_7?$_Ref_count@VDateImpl@@@std@@6B@ 100251e0     misc.obj
 0002:000011f0       ?short_month_names@?1??as_short_string@greg_month@gregorian@boost@@QBEPBDXZ@4QBQBDB 100251f0     misc.obj
 0002:0000122c       ??_7?$wrapexcept@Vbad_lexical_cast@boost@@@boost@@6Bexception@1@@ 1002522c     misc.obj
 0002:00001234       ??_7bad_year@gregorian@boost@@6B@ 10025234     misc.obj
 0002:00001240       ??_7bad_day_of_month@gregorian@boost@@6B@ 10025240     misc.obj
 0002:0000124c       ??_7?$wrapexcept@Vtoo_few_args@io@boost@@@boost@@6Btoo_few_args@io@1@@ 1002524c     misc.obj
 0002:00001254       ??_8?$basic_stringstream@DU?$char_traits@D@std@@V?$allocator@D@2@@std@@7B?$basic_istream@DU?$char_traits@D@std@@@1@@ 10025254     misc.obj
 0002:00001260       ??_7bad_month@gregorian@boost@@6B@ 10025260     misc.obj
 0002:0000126c       ??_7too_many_args@io@boost@@6B@ 1002526c     misc.obj
 0002:00001278       ??_7DateTimeImpl@@6B@      10025278     misc.obj
 0002:000012e0       ?neg_inf_string@?$special_values_parser@Vdate@gregorian@boost@@D@date_time@boost@@2QBDB 100252e0     misc.obj
 0002:000012ec       ?nadt_string@?$special_values_parser@Vdate@gregorian@boost@@D@date_time@boost@@2QBDB 100252ec     misc.obj
 0002:000012fc       ?pos_inf_string@?$special_values_parser@Vdate@gregorian@boost@@D@date_time@boost@@2QBDB 100252fc     misc.obj
 0002:00001308       ?min_date_time_string@?$special_values_parser@Vdate@gregorian@boost@@D@date_time@boost@@2QBDB 10025308     misc.obj
 0002:0000131c       ?max_date_time_string@?$special_values_parser@Vdate@gregorian@boost@@D@date_time@boost@@2QBDB 1002531c     misc.obj
 0002:00001330       ??_8?$basic_ostringstream@_WU?$char_traits@_W@std@@V?$allocator@_W@2@@std@@7B@ 10025330     misc.obj
 0002:0000133c       ??_7?$wrapexcept@Vruntime_error@std@@@boost@@6Bexception@1@@ 1002533c     misc.obj
 0002:00001344       ??_7DateDurationAbstr@yloader@@6B@ 10025344     misc.obj
 0002:00001384       ??_7DateDurationImpl@@6B@  10025384     misc.obj
 0002:000013c4       ??_7?$numpunct@_W@std@@6B@ 100253c4     misc.obj
 0002:000013ec       ??_7?$wrapexcept@Ubad_month@gregorian@boost@@@boost@@6Bexception@1@@ 100253ec     misc.obj
 0002:000013f4       ??_7TimeDurationAbstr@yloader@@6B@ 100253f4     misc.obj
 0002:0000144c       ??_7?$basic_oaltstringstream@_WU?$char_traits@_W@std@@V?$allocator@_W@2@@io@boost@@6B@ 1002544c     misc.obj
 0002:00001454       ??_7?$basic_altstringbuf@_WU?$char_traits@_W@std@@V?$allocator@_W@2@@io@boost@@6B@ 10025454     misc.obj
 0002:00001494       ??_7TimerAbstr@yloader@@6B@ 10025494     misc.obj
 0002:000014ac       ??_7?$_Ref_count_obj2@VDateDurationImpl@@@std@@6B@ 100254ac     misc.obj
 0002:000014c0       ??_7?$numpunct@D@std@@6B@  100254c0     misc.obj
 0002:000014e4       ??_7?$wrapexcept@Vbad_lexical_cast@boost@@@boost@@6Bclone_base@exception_detail@1@@ 100254e4     misc.obj
 0002:000014f4       ??_7?$_Ref_count_resource@PADU?$default_delete@$$BY0A@D@std@@@std@@6B@ 100254f4     misc.obj
 0002:00001508       ??_7?$wrapexcept@Vtoo_few_args@io@boost@@@boost@@6Bexception@1@@ 10025508     misc.obj
 0002:00001510       ??_7?$wrapexcept@Vbad_format_string@io@boost@@@boost@@6Bbad_format_string@io@1@@ 10025510     misc.obj
 0002:0000151c       ??_7?$wrapexcept@Vbad_lexical_cast@boost@@@boost@@6Bbad_lexical_cast@1@@ 1002551c     misc.obj
 0002:00001528       ??_7?$wrapexcept@Vtoo_many_args@io@boost@@@boost@@6Btoo_many_args@io@1@@ 10025528     misc.obj
 0002:00001534       ??_7?$wrapexcept@Vruntime_error@std@@@boost@@6Bruntime_error@std@@@ 10025534     misc.obj
 0002:00001540       ??_7?$_Ref_count_obj2@VDateTimeImpl@@@std@@6B@ 10025540     misc.obj
 0002:00001554       ??_7TimerImpl@@6B@         10025554     misc.obj
 0002:0000156c       ??_7?$_Ref_count@VNameValue@yloader@@@std@@6B@ 1002556c     namevalue.obj
 0002:00001580       ??_7?$_Ref_count@V?$basic_string@_WU?$char_traits@_W@std@@V?$allocator@_W@2@@std@@@std@@6B@ 10025580     namevalue.obj
 0002:00001590       ??_C@_13NMPKAAJP@?$AA?$DN@ 10025590     namevalue.obj
 0002:00001594       ??_C@_15BBBDHBBH@?$AA?$FL?$AA?$FN@ 10025594     namevalue.obj
 0002:0000159c       ??_C@_13FLOCNAAB@?$AA?$CG@ 1002559c     namevalue.obj
 0002:000015a0       ??_C@_17CAMAPEFD@?$AA?$FL?$AA?$FN?$AA?$DN@ 100255a0     namevalue.obj
 0002:000015a8       __real@408f400000000000    100255a8     misc.obj
 0002:000015b0       __real@412e848000000000    100255b0     misc.obj
 0002:000015c0       __xmm@00000007000000020000000200000002 100255c0     misc.obj
 0002:000015d0       __xmm@ffffffff000000000000000000000000 100255d0     misc.obj
 0002:00001650       __load_config_used         10025650     MSVCRT:loadcfg.obj
 0002:00001740       __tls_used                 10025740     MSVCRT:tlssup.obj
 0002:00001758       ??_R4type_info@@6B@        10025758     MSVCRT:std_type_info_static.obj
 0002:0000176c       ??_R3type_info@@8          1002576c     MSVCRT:std_type_info_static.obj
 0002:0000177c       ??_R2type_info@@8          1002577c     MSVCRT:std_type_info_static.obj
 0002:00001784       ??_R1A@?0A@EA@type_info@@8 10025784     MSVCRT:std_type_info_static.obj
 0002:000017a0       ??_R13?0A@EA@_Crt_new_delete@std@@8 100257a0     misc.obj
 0002:000017bc       ??_R1A@?0A@EA@?$basic_ostringstream@_WU?$char_traits@_W@std@@V?$allocator@_W@2@@std@@8 100257bc     misc.obj
 0002:000017d8       ??_R2too_many_args@io@boost@@8 100257d8     misc.obj
 0002:000017e8       ??_R3?$basic_altstringbuf@_WU?$char_traits@_W@std@@V?$allocator@_W@2@@io@boost@@8 100257e8     misc.obj
 0002:000017f8       ??_R3?$wrapexcept@Vtoo_many_args@io@boost@@@boost@@8 100257f8     misc.obj
 0002:00001808       ??_R1A@?0A@EA@bad_day_of_month@gregorian@boost@@8 10025808     misc.obj
 0002:00001824       ??_R2bad_lexical_cast@boost@@8 10025824     misc.obj
 0002:00001834       ??_R3bad_exception_@exception_detail@boost@@8 10025834     misc.obj
 0002:00001844       ??_R17A@3EA@?$_Iosb@H@std@@8 10025844     misc.obj
 0002:00001860       ??_R3?$clone_impl@Ubad_exception_@exception_detail@boost@@@exception_detail@boost@@8 10025860     misc.obj
 0002:00001870       ??_R1A@?0A@EA@?$basic_stringstream@DU?$char_traits@D@std@@V?$allocator@D@2@@std@@8 10025870     misc.obj
 0002:0000188c       ??_R13?0A@EA@logic_error@std@@8 1002588c     misc.obj
 0002:000018a8       ??_R2exception@boost@@8    100258a8     misc.obj
 0002:000018b0       ??_R1A@?0A@EA@exception@std@@8 100258b0     misc.obj
 0002:000018cc       ??_R2?$_Ref_count@VDateTimeImpl@@@std@@8 100258cc     misc.obj
 0002:000018d8       ??_R1A@?0A@EA@?$basic_stringbuf@_WU?$char_traits@_W@std@@V?$allocator@_W@2@@std@@8 100258d8     misc.obj
 0002:000018f4       ??_R3bad_year@gregorian@boost@@8 100258f4     misc.obj
 0002:00001904       ??_R1A@?0A@EA@bad_format_string@io@boost@@8 10025904     misc.obj
 0002:00001920       ??_R3bad_lexical_cast@boost@@8 10025920     misc.obj
 0002:00001930       ??_R1A@?0A@EA@?$sp_counted_impl_pd@PAV?$basic_altstringbuf@_WU?$char_traits@_W@std@@V?$allocator@_W@2@@io@boost@@VNo_Op@?$basic_oaltstringstream@_WU?$char_traits@_W@std@@V?$allocator@_W@2@@23@@detail@boost@@8 10025930     misc.obj
 0002:0000194c       ??_R1A@?0A@EA@?$basic_streambuf@DU?$char_traits@D@std@@@std@@8 1002594c     misc.obj
 0002:00001968       ??_R2?$numpunct@_W@std@@8  10025968     misc.obj
 0002:0000197c       ??_R1A@?0A@EA@_Facet_base@std@@8 1002597c     misc.obj
 0002:00001998       ??_R1A@?0A@EA@bad_alloc@std@@8 10025998     misc.obj
 0002:000019b4       ??_R1A@?0A@EA@bad_exception_@exception_detail@boost@@8 100259b4     misc.obj
 0002:000019d0       ??_R13?0A@EA@out_of_range@std@@8 100259d0     misc.obj
 0002:000019ec       ??_R3DateDurationAbstr@yloader@@8 100259ec     misc.obj
 0002:000019fc       ??_R1A@?0A@EA@clone_base@exception_detail@boost@@8 100259fc     misc.obj
 0002:00001a18       ??_R4?$wrapexcept@Vbad_format_string@io@boost@@@boost@@6Bexception@1@@ 10025a18     misc.obj
 0002:00001a2c       ??_R2DateTimeAbstr@yloader@@8 10025a2c     misc.obj
 0002:00001a34       ??_R3format_error@io@boost@@8 10025a34     misc.obj
 0002:00001a44       ??_R1A@?0A@EA@bad_year@gregorian@boost@@8 10025a44     misc.obj
 0002:00001a60       ??_R3?$_Ref_count@VDateImpl@@@std@@8 10025a60     misc.obj
 0002:00001a70       ??_R2sp_counted_base@detail@boost@@8 10025a70     misc.obj
 0002:00001a78       ??_R2?$basic_istream@DU?$char_traits@D@std@@@std@@8 10025a78     misc.obj
 0002:00001a8c       ??_R3bad_day_of_month@gregorian@boost@@8 10025a8c     misc.obj
 0002:00001a9c       ??_R4bad_day_of_month@gregorian@boost@@6B@ 10025a9c     misc.obj
 0002:00001ab0       ??_R1BI@?0A@EA@exception@std@@8 10025ab0     misc.obj
 0002:00001acc       ??_R2?$_Ref_count_obj2@VTimeDurationImpl@@@std@@8 10025acc     misc.obj
 0002:00001ad8       ??_R2logic_error@std@@8    10025ad8     misc.obj
 0002:00001ae4       ??_R1A@?0A@EA@?$sp_counted_impl_p@V?$clone_impl@Ubad_alloc_@exception_detail@boost@@@exception_detail@boost@@@detail@boost@@8 10025ae4     misc.obj
 0002:00001b00       ??_R1A@?0A@EA@?$_Ref_count_obj2@VTimeDurationImpl@@@std@@8 10025b00     misc.obj
 0002:00001b1c       ??_R1A@?0A@EA@DateTimeAbstr@yloader@@8 10025b1c     misc.obj
 0002:00001b38       ??_R2?$_Ref_count_obj2@VDateImpl@@@std@@8 10025b38     misc.obj
 0002:00001b44       ??_R3?$sp_counted_impl_p@V?$clone_impl@Ubad_alloc_@exception_detail@boost@@@exception_detail@boost@@@detail@boost@@8 10025b44     misc.obj
 0002:00001b54       ??_R4?$wrapexcept@Ubad_day_of_month@gregorian@boost@@@boost@@6Bbad_day_of_month@gregorian@1@@ 10025b54     misc.obj
 0002:00001b68       ??_R4?$_Ref_count@VDateTimeImpl@@@std@@6B@ 10025b68     misc.obj
 0002:00001b7c       ??_R4?$sp_counted_impl_p@V?$clone_impl@Ubad_alloc_@exception_detail@boost@@@exception_detail@boost@@@detail@boost@@6B@ 10025b7c     misc.obj
 0002:00001b90       ??_R1A@?0A@EA@DateAbstr@yloader@@8 10025b90     misc.obj
 0002:00001bac       ??_R4DateTimeAbstr@yloader@@6B@ 10025bac     misc.obj
 0002:00001bc0       ??_R1BI@?0A@EA@bad_alloc@std@@8 10025bc0     misc.obj
 0002:00001bdc       ??_R3?$basic_ostringstream@_WU?$char_traits@_W@std@@V?$allocator@_W@2@@std@@8 10025bdc     misc.obj
 0002:00001bec       ??_R3?$_Ref_count@VTimeDurationImpl@@@std@@8 10025bec     misc.obj
 0002:00001bfc       ??_R2bad_format_string@io@boost@@8 10025bfc     misc.obj
 0002:00001c0c       ??_R4?$wrapexcept@Vbad_format_string@io@boost@@@boost@@6Bclone_base@exception_detail@1@@ 10025c0c     misc.obj
 0002:00001c20       ??_R3?$basic_stringbuf@DU?$char_traits@D@std@@V?$allocator@D@2@@std@@8 10025c20     misc.obj
 0002:00001c30       ??_R3?$wrapexcept@Vruntime_error@std@@@boost@@8 10025c30     misc.obj
 0002:00001c40       ??_R2bad_cast@std@@8       10025c40     misc.obj
 0002:00001c4c       ??_R2exception@std@@8      10025c4c     misc.obj
 0002:00001c54       ??_R4bad_exception_@exception_detail@boost@@6Bbad_exception@std@@@ 10025c54     misc.obj
 0002:00001c68       ??_R2?$basic_ostream@DU?$char_traits@D@std@@@std@@8 10025c68     misc.obj
 0002:00001c7c       ??_R3?$basic_oaltstringstream@_WU?$char_traits@_W@std@@V?$allocator@_W@2@@io@boost@@8 10025c7c     misc.obj
 0002:00001c8c       ??_R3?$basic_ios@DU?$char_traits@D@std@@@std@@8 10025c8c     misc.obj
 0002:00001c9c       ??_R2DateTimeImpl@@8       10025c9c     misc.obj
 0002:00001ca8       ??_R4bad_format_string@io@boost@@6B@ 10025ca8     misc.obj
 0002:00001cbc       ??_R1A@?0A@EA@DateImpl@@8  10025cbc     misc.obj
 0002:00001cd8       ??_R2?$sp_counted_impl_p@V?$clone_impl@Ubad_alloc_@exception_detail@boost@@@exception_detail@boost@@@detail@boost@@8 10025cd8     misc.obj
 0002:00001ce4       ??_R1A@?0A@EA@?$basic_oaltstringstream@_WU?$char_traits@_W@std@@V?$allocator@_W@2@@io@boost@@8 10025ce4     misc.obj
 0002:00001d00       ??_R2DateImpl@@8           10025d00     misc.obj
 0002:00001d0c       ??_R2?$_Ref_count_obj2@VDateTimeImpl@@@std@@8 10025d0c     misc.obj
 0002:00001d18       ??_R3DateAbstr@yloader@@8  10025d18     misc.obj
 0002:00001d28       ??_R1A@?0A@EA@out_of_range@std@@8 10025d28     misc.obj
 0002:00001d44       ??_R4DateAbstr@yloader@@6B@ 10025d44     misc.obj
 0002:00001d58       ??_R3?$wrapexcept@Ubad_year@gregorian@boost@@@boost@@8 10025d58     misc.obj
 0002:00001d68       ??_R4?$wrapexcept@Vtoo_many_args@io@boost@@@boost@@6Bclone_base@exception_detail@1@@ 10025d68     misc.obj
 0002:00001d7c       ??_R1A@?0A@EA@facet@locale@std@@8 10025d7c     misc.obj
 0002:00001d98       ??_R2?$basic_ios@_WU?$char_traits@_W@std@@@std@@8 10025d98     misc.obj
 0002:00001da8       ??_R3?$wrapexcept@Vtoo_few_args@io@boost@@@boost@@8 10025da8     misc.obj
 0002:00001db8       ??_R1A@?0A@EA@?$_Ref_count_obj2@VDateImpl@@@std@@8 10025db8     misc.obj
 0002:00001dd4       ??_R1A@?0A@EA@?$_Ref_count_obj2@VDateDurationImpl@@@std@@8 10025dd4     misc.obj
 0002:00001df0       ??_R1A@?0A@EA@bad_lexical_cast@boost@@8 10025df0     misc.obj
 0002:00001e0c       ??_R1A@?0A@EA@?$_Ref_count@VDateTimeImpl@@@std@@8 10025e0c     misc.obj
 0002:00001e28       ??_R3too_many_args@io@boost@@8 10025e28     misc.obj
 0002:00001e38       ??_R1BI@?0A@EA@bad_exception@std@@8 10025e38     misc.obj
 0002:00001e54       ??_R4?$wrapexcept@Vbad_lexical_cast@boost@@@boost@@6Bexception@1@@ 10025e54     misc.obj
 0002:00001e68       ??_R1A@?0A@EA@bad_month@gregorian@boost@@8 10025e68     misc.obj
 0002:00001e84       ??_R4sp_counted_base@detail@boost@@6B@ 10025e84     misc.obj
 0002:00001e98       ??_R3?$basic_stringbuf@_WU?$char_traits@_W@std@@V?$allocator@_W@2@@std@@8 10025e98     misc.obj
 0002:00001ea8       ??_R4?$wrapexcept@Vruntime_error@std@@@boost@@6Bclone_base@exception_detail@1@@ 10025ea8     misc.obj
 0002:00001ebc       ??_R13?0A@EA@bad_year@gregorian@boost@@8 10025ebc     misc.obj
 0002:00001ed8       ??_R1A@?0A@EA@DateDurationImpl@@8 10025ed8     misc.obj
 0002:00001ef4       ??_R2too_few_args@io@boost@@8 10025ef4     misc.obj
 0002:00001f04       ??_R4?$basic_oaltstringstream@_WU?$char_traits@_W@std@@V?$allocator@_W@2@@io@boost@@6B@ 10025f04     misc.obj
 0002:00001f18       ??_R3?$numpunct@_W@std@@8  10025f18     misc.obj
 0002:00001f28       ??_R13?0A@EA@too_many_args@io@boost@@8 10025f28     misc.obj
 0002:00001f44       ??_R4format_error@io@boost@@6B@ 10025f44     misc.obj
 0002:00001f58       ??_R1A@?0A@EA@?$wrapexcept@Vruntime_error@std@@@boost@@8 10025f58     misc.obj
 0002:00001f74       ??_R1A@?0A@EA@?$basic_altstringbuf@_WU?$char_traits@_W@std@@V?$allocator@_W@2@@io@boost@@8 10025f74     misc.obj
 0002:00001f90       ??_R3too_few_args@io@boost@@8 10025f90     misc.obj
 0002:00001fa0       ??_R4?$clone_impl@Ubad_alloc_@exception_detail@boost@@@exception_detail@boost@@6B@ 10025fa0     misc.obj
 0002:00001fb4       ??_R4out_of_range@std@@6B@ 10025fb4     misc.obj
 0002:00001fc8       ??_R1A@?0A@EA@?$_Ref_count_obj2@VDateTimeImpl@@@std@@8 10025fc8     misc.obj
 0002:00001fe4       ??_R4?$wrapexcept@Ubad_day_of_month@gregorian@boost@@@boost@@6Bexception@1@@ 10025fe4     misc.obj
 0002:00001ff8       ??_R1A@?0A@EA@?$numpunct@_W@std@@8 10025ff8     misc.obj
 0002:00002014       ??_R3?$sp_counted_impl_pd@PAV?$basic_altstringbuf@_WU?$char_traits@_W@std@@V?$allocator@_W@2@@io@boost@@VNo_Op@?$basic_oaltstringstream@_WU?$char_traits@_W@std@@V?$allocator@_W@2@@23@@detail@boost@@8 10026014     misc.obj
 0002:00002024       ??_R2?$wrapexcept@Ubad_day_of_month@gregorian@boost@@@boost@@8 10026024     misc.obj
 0002:00002044       ??_R3DateTimeImpl@@8       10026044     misc.obj
 0002:00002054       ??_R1A@?0A@EA@TimeDurationImpl@@8 10026054     misc.obj
 0002:00002070       ??_R4DateImpl@@6B@         10026070     misc.obj
 0002:00002084       ??_R1A@?0A@EA@?$sp_counted_impl_p@V?$clone_impl@Ubad_exception_@exception_detail@boost@@@exception_detail@boost@@@detail@boost@@8 10026084     misc.obj
 0002:000020a0       ??_R2?$sp_counted_impl_p@V?$clone_impl@Ubad_exception_@exception_detail@boost@@@exception_detail@boost@@@detail@boost@@8 100260a0     misc.obj
 0002:000020ac       ??_R2bad_year@gregorian@boost@@8 100260ac     misc.obj
 0002:000020c0       ??_R3?$basic_ios@_WU?$char_traits@_W@std@@@std@@8 100260c0     misc.obj
 0002:000020d0       ??_R4?$clone_impl@Ubad_alloc_@exception_detail@boost@@@exception_detail@boost@@6Bexception@2@@ 100260d0     misc.obj
 0002:000020e4       ??_R3logic_error@std@@8    100260e4     misc.obj
 0002:000020f4       ??_R1BA@?0A@EA@?$basic_ostream@DU?$char_traits@D@std@@@std@@8 100260f4     misc.obj
 0002:00002110       ??_R1A@?0A@EA@?$_Ref_count@VTimeDurationImpl@@@std@@8 10026110     misc.obj
 0002:0000212c       ??_R1A@?0A@EA@?$clone_impl@Ubad_exception_@exception_detail@boost@@@exception_detail@boost@@8 1002612c     misc.obj
 0002:00002148       ??_R3?$base_from_member@V?$shared_ptr@V?$basic_altstringbuf@_WU?$char_traits@_W@std@@V?$allocator@_W@2@@io@boost@@@boost@@$0A@@boost@@8 10026148     misc.obj
 0002:00002158       ??_R1A@?0A@EA@ios_base@std@@8 10026158     misc.obj
 0002:00002174       ??_R2?$basic_oaltstringstream@_WU?$char_traits@_W@std@@V?$allocator@_W@2@@io@boost@@8 10026174     misc.obj
 0002:00002190       ??_R1A@?0A@EA@too_few_args@io@boost@@8 10026190     misc.obj
 0002:000021ac       ??_R3exception@std@@8      100261ac     misc.obj
 0002:000021bc       ??_R4bad_month@gregorian@boost@@6B@ 100261bc     misc.obj
 0002:000021d0       ??_R2bad_day_of_month@gregorian@boost@@8 100261d0     misc.obj
 0002:000021e4       ??_R3?$_Ref_count_resource@PA_WU?$default_delete@$$BY0A@_W@std@@@std@@8 100261e4     misc.obj
 0002:000021f4       ??_R2?$basic_stringbuf@_WU?$char_traits@_W@std@@V?$allocator@_W@2@@std@@8 100261f4     misc.obj
 0002:00002200       ??_R1A@?0A@EA@?$basic_ostream@DU?$char_traits@D@std@@@std@@8 10026200     misc.obj
 0002:0000221c       ??_R13?0A@EA@runtime_error@std@@8 1002621c     misc.obj
 0002:00002238       ??_R1A@?0A@EA@?$_Ref_count_resource@PA_WU?$default_delete@$$BY0A@_W@std@@@std@@8 10026238     misc.obj
 0002:00002254       ??_R2bad_alloc_@exception_detail@boost@@8 10026254     misc.obj
 0002:00002268       ??_R4logic_error@std@@6B@  10026268     misc.obj
 0002:0000227c       ??_R2?$_Ref_count@VDateImpl@@@std@@8 1002627c     misc.obj
 0002:00002288       ??_R4?$wrapexcept@Vtoo_few_args@io@boost@@@boost@@6Btoo_few_args@io@1@@ 10026288     misc.obj
 0002:0000229c       ??_R2TimerImpl@@8          1002629c     misc.obj
 0002:000022a8       ??_R2DateAbstr@yloader@@8  100262a8     misc.obj
 0002:000022b0       ??_R2?$numpunct@D@std@@8   100262b0     misc.obj
 0002:000022c4       ??_R2clone_base@exception_detail@boost@@8 100262c4     misc.obj
 0002:000022cc       ??_R3?$wrapexcept@Ubad_day_of_month@gregorian@boost@@@boost@@8 100262cc     misc.obj
 0002:000022dc       ??_R2out_of_range@std@@8   100262dc     misc.obj
 0002:000022ec       ??_R4?$_Ref_count_obj2@VDateImpl@@@std@@6B@ 100262ec     misc.obj
 0002:00002300       ??_R3TimeDurationAbstr@yloader@@8 10026300     misc.obj
 0002:00002310       ??_R2?$basic_streambuf@DU?$char_traits@D@std@@@std@@8 10026310     misc.obj
 0002:00002318       ??_R2?$wrapexcept@Vtoo_many_args@io@boost@@@boost@@8 10026318     misc.obj
 0002:00002334       ??_R1A@?0A@EA@?$_Iosb@H@std@@8 10026334     misc.obj
 0002:00002350       ??_R1A@?0A@EA@?$basic_streambuf@_WU?$char_traits@_W@std@@@std@@8 10026350     misc.obj
 0002:0000236c       ??_R4too_few_args@io@boost@@6B@ 1002636c     misc.obj
 0002:00002380       ??_R2?$wrapexcept@Ubad_year@gregorian@boost@@@boost@@8 10026380     misc.obj
 0002:000023a0       ??_R3?$_Ref_count_resource@PADU?$default_delete@$$BY0A@D@std@@@std@@8 100263a0     misc.obj
 0002:000023b0       ??_R4TimerAbstr@yloader@@6B@ 100263b0     misc.obj
 0002:000023c4       ??_R3facet@locale@std@@8   100263c4     misc.obj
 0002:000023d4       ??_R1A@?0A@EA@?$basic_stringbuf@DU?$char_traits@D@std@@V?$allocator@D@2@@std@@8 100263d4     misc.obj
 0002:000023f0       ??_R3?$wrapexcept@Ubad_month@gregorian@boost@@@boost@@8 100263f0     misc.obj
 0002:00002400       ??_R1A@?0A@EA@?$_Ref_count@VDateImpl@@@std@@8 10026400     misc.obj
 0002:0000241c       ??_R1A@?0A@EA@too_many_args@io@boost@@8 1002641c     misc.obj
 0002:00002438       ??_R4?$_Ref_count_obj2@VTimeDurationImpl@@@std@@6B@ 10026438     misc.obj
 0002:0000244c       ??_R2?$basic_iostream@DU?$char_traits@D@std@@@std@@8 1002644c     misc.obj
 0002:00002474       ??_R3bad_cast@std@@8       10026474     misc.obj
 0002:00002484       ??_R1A@?0A@EA@bad_alloc_@exception_detail@boost@@8 10026484     misc.obj
 0002:000024a0       ??_R4bad_alloc@std@@6B@    100264a0     misc.obj
 0002:000024b4       ??_R1A@?0A@EA@?$base_from_member@V?$shared_ptr@V?$basic_altstringbuf@_WU?$char_traits@_W@std@@V?$allocator@_W@2@@io@boost@@@boost@@$0A@@boost@@8 100264b4     misc.obj
 0002:000024d0       ??_R2?$basic_stringstream@DU?$char_traits@D@std@@V?$allocator@D@2@@std@@8 100264d0     misc.obj
 0002:000024fc       ??_R1A@?0A@EA@?$wrapexcept@Vbad_lexical_cast@boost@@@boost@@8 100264fc     misc.obj
 0002:00002518       ??_R4?$wrapexcept@Vbad_lexical_cast@boost@@@boost@@6Bbad_lexical_cast@1@@ 10026518     misc.obj
 0002:0000252c       ??_R3out_of_range@std@@8   1002652c     misc.obj
 0002:0000253c       ??_R4bad_cast@std@@6B@     1002653c     misc.obj
 0002:00002550       ??_R2?$basic_ostringstream@_WU?$char_traits@_W@std@@V?$allocator@_W@2@@std@@8 10026550     misc.obj
 0002:00002568       ??_R1A@?0A@EA@_Crt_new_delete@std@@8 10026568     misc.obj
 0002:00002584       ??_R2?$clone_impl@Ubad_alloc_@exception_detail@boost@@@exception_detail@boost@@8 10026584     misc.obj
 0002:000025a0       ??_R4?$_Ref_count_resource@PADU?$default_delete@$$BY0A@D@std@@@std@@6B@ 100265a0     misc.obj
 0002:000025b4       ??_R4bad_exception_@exception_detail@boost@@6Bexception@2@@ 100265b4     misc.obj
 0002:000025c8       ??_R13?0A@EA@too_few_args@io@boost@@8 100265c8     misc.obj
 0002:000025e4       ??_R4?$basic_altstringbuf@_WU?$char_traits@_W@std@@V?$allocator@_W@2@@io@boost@@6B@ 100265e4     misc.obj
 0002:000025f8       ??_R3exception@boost@@8    100265f8     misc.obj
 0002:00002608       ??_R1A@?0A@EA@?$_Ref_count_resource@PADU?$default_delete@$$BY0A@D@std@@@std@@8 10026608     misc.obj
 0002:00002624       ??_R13?0A@EA@format_error@io@boost@@8 10026624     misc.obj
 0002:00002640       ??_R3bad_array_new_length@std@@8 10026640     misc.obj
 0002:00002650       ??_R4TimeDurationAbstr@yloader@@6B@ 10026650     misc.obj
 0002:00002664       ??_R4?$basic_stringbuf@DU?$char_traits@D@std@@V?$allocator@D@2@@std@@6B@ 10026664     misc.obj
 0002:00002678       ??_R1A@?0A@EN@?$base_from_member@V?$shared_ptr@V?$basic_altstringbuf@_WU?$char_traits@_W@std@@V?$allocator@_W@2@@io@boost@@@boost@@$0A@@boost@@8 10026678     misc.obj
 0002:00002694       ??_R1A@?0A@EA@TimeDurationAbstr@yloader@@8 10026694     misc.obj
 0002:000026b0       ??_R4?$_Ref_count_obj2@VDateDurationImpl@@@std@@6B@ 100266b0     misc.obj
 0002:000026c4       ??_R1BI@?0A@EA@exception@boost@@8 100266c4     misc.obj
 0002:000026e0       ??_R4?$basic_stringstream@DU?$char_traits@D@std@@V?$allocator@D@2@@std@@6B@ 100266e0     misc.obj
 0002:000026f4       ??_R4exception@boost@@6B@  100266f4     misc.obj
 0002:00002708       ??_R3bad_alloc@std@@8      10026708     misc.obj
 0002:00002718       ??_R2format_error@io@boost@@8 10026718     misc.obj
 0002:00002724       ??_R2?$clone_impl@Ubad_exception_@exception_detail@boost@@@exception_detail@boost@@8 10026724     misc.obj
 0002:00002740       ??_R3DateImpl@@8           10026740     misc.obj
 0002:00002750       ??_R3_Ref_count_base@std@@8 10026750     misc.obj
 0002:00002760       ??_R4?$_Ref_count@VDateImpl@@@std@@6B@ 10026760     misc.obj
 0002:00002774       ??_R1A@?0A@EA@?$basic_ostream@_WU?$char_traits@_W@std@@@std@@8 10026774     misc.obj
 0002:00002790       ??_R3?$numpunct@D@std@@8   10026790     misc.obj
 0002:000027a0       ??_R4?$numpunct@D@std@@6B@ 100267a0     misc.obj
 0002:000027b4       ??_R1A@?0A@EA@?$wrapexcept@Ubad_year@gregorian@boost@@@boost@@8 100267b4     misc.obj
 0002:000027d0       ??_R2runtime_error@std@@8  100267d0     misc.obj
 0002:000027dc       ??_R1A@A@3FA@?$basic_ios@DU?$char_traits@D@std@@@std@@8 100267dc     misc.obj
 0002:000027f8       ??_R4?$numpunct@_W@std@@6B@ 100267f8     misc.obj
 0002:0000280c       ??_R4bad_array_new_length@std@@6B@ 1002680c     misc.obj
 0002:00002820       ??_R4?$clone_impl@Ubad_exception_@exception_detail@boost@@@exception_detail@boost@@6Bexception@2@@ 10026820     misc.obj
 0002:00002834       ??_R4?$wrapexcept@Vtoo_many_args@io@boost@@@boost@@6Bexception@1@@ 10026834     misc.obj
 0002:00002848       ??_R3?$_Ref_count_obj2@VDateDurationImpl@@@std@@8 10026848     misc.obj
 0002:00002858       ??_R2ios_base@std@@8       10026858     misc.obj
 0002:00002864       ??_R4TimeDurationImpl@@6B@ 10026864     misc.obj
 0002:00002878       ??_R2_Ref_count_base@std@@8 10026878     misc.obj
 0002:00002880       ??_R3?$basic_ostream@DU?$char_traits@D@std@@@std@@8 10026880     misc.obj
 0002:00002890       ??_R3?$basic_streambuf@_WU?$char_traits@_W@std@@@std@@8 10026890     misc.obj
 0002:000028a0       ??_R4?$wrapexcept@Vtoo_few_args@io@boost@@@boost@@6Bclone_base@exception_detail@1@@ 100268a0     misc.obj
 0002:000028b4       ??_R1A@A@3FA@?$basic_ios@_WU?$char_traits@_W@std@@@std@@8 100268b4     misc.obj
 0002:000028d0       ??_R13?0A@EA@bad_format_string@io@boost@@8 100268d0     misc.obj
 0002:000028ec       ??_R1A@?0A@EA@?$basic_iostream@DU?$char_traits@D@std@@@std@@8 100268ec     misc.obj
 0002:00002908       ??_R1A@?0A@EA@?$numpunct@D@std@@8 10026908     misc.obj
 0002:00002924       ??_R4?$wrapexcept@Ubad_month@gregorian@boost@@@boost@@6Bclone_base@exception_detail@1@@ 10026924     misc.obj
 0002:00002938       ??_R2_Crt_new_delete@std@@8 10026938     misc.obj
 0002:00002940       ??_R4bad_year@gregorian@boost@@6B@ 10026940     misc.obj
 0002:00002954       ??_R3TimerAbstr@yloader@@8 10026954     misc.obj
 0002:00002964       ??_R13?0A@EA@exception@std@@8 10026964     misc.obj
 0002:00002980       ??_R4?$wrapexcept@Ubad_month@gregorian@boost@@@boost@@6Bexception@1@@ 10026980     misc.obj
 0002:00002994       ??_R3ios_base@std@@8       10026994     misc.obj
 0002:000029a4       ??_R3bad_exception@std@@8  100269a4     misc.obj
 0002:000029b4       ??_R2?$wrapexcept@Ubad_month@gregorian@boost@@@boost@@8 100269b4     misc.obj
 0002:000029d4       ??_R4bad_lexical_cast@boost@@6B@ 100269d4     misc.obj
 0002:000029e8       ??_R3?$basic_streambuf@DU?$char_traits@D@std@@@std@@8 100269e8     misc.obj
 0002:000029f8       ??_R1A@?0A@EA@bad_array_new_length@std@@8 100269f8     misc.obj
 0002:00002a14       ??_R1A@?0A@EA@?$basic_ios@_WU?$char_traits@_W@std@@@std@@8 10026a14     misc.obj
 0002:00002a30       ??_R4?$wrapexcept@Vbad_lexical_cast@boost@@@boost@@6Bclone_base@exception_detail@1@@ 10026a30     misc.obj
 0002:00002a44       ??_R4DateDurationImpl@@6B@ 10026a44     misc.obj
 0002:00002a58       ??_R1A@?0A@EA@?$wrapexcept@Vbad_format_string@io@boost@@@boost@@8 10026a58     misc.obj
 0002:00002a74       ??_R4?$_Ref_count@VTimeDurationImpl@@@std@@6B@ 10026a74     misc.obj
 0002:00002a88       ??_R3?$basic_stringstream@DU?$char_traits@D@std@@V?$allocator@D@2@@std@@8 10026a88     misc.obj
 0002:00002a98       ??_R2bad_month@gregorian@boost@@8 10026a98     misc.obj
 0002:00002aac       ??_R2?$_Ref_count_resource@PA_WU?$default_delete@$$BY0A@_W@std@@@std@@8 10026aac     misc.obj
 0002:00002ab8       ??_R2?$_Iosb@H@std@@8      10026ab8     misc.obj
 0002:00002ac0       ??_R3?$sp_counted_impl_p@V?$clone_impl@Ubad_exception_@exception_detail@boost@@@exception_detail@boost@@@detail@boost@@8 10026ac0     misc.obj
 0002:00002ad0       ??_R13?0A@EA@bad_cast@std@@8 10026ad0     misc.obj
 0002:00002aec       ??_R4?$clone_impl@Ubad_alloc_@exception_detail@boost@@@exception_detail@boost@@6Bbad_alloc@std@@@ 10026aec     misc.obj
 0002:00002b00       ??_R1A@A@3EA@ios_base@std@@8 10026b00     misc.obj
 0002:00002b1c       ??_R4too_many_args@io@boost@@6B@ 10026b1c     misc.obj
 0002:00002b30       ??_R1A@?0A@EA@?$basic_ios@DU?$char_traits@D@std@@@std@@8 10026b30     misc.obj
 0002:00002b4c       ??_R2?$wrapexcept@Vbad_format_string@io@boost@@@boost@@8 10026b4c     misc.obj
 0002:00002b68       ??_R2bad_exception_@exception_detail@boost@@8 10026b68     misc.obj
 0002:00002b7c       ??_R4?$wrapexcept@Ubad_month@gregorian@boost@@@boost@@6Bbad_month@gregorian@1@@ 10026b7c     misc.obj
 0002:00002b90       ??_R4?$wrapexcept@Ubad_year@gregorian@boost@@@boost@@6Bexception@1@@ 10026b90     misc.obj
 0002:00002ba4       ??_R1A@?0A@EA@DateDurationAbstr@yloader@@8 10026ba4     misc.obj
 0002:00002bc0       ??_R3?$_Iosb@H@std@@8      10026bc0     misc.obj
 0002:00002bd0       ??_R2_Facet_base@std@@8    10026bd0     misc.obj
 0002:00002bd8       ??_R2facet@locale@std@@8   10026bd8     misc.obj
 0002:00002be8       ??_R17?0A@EA@?$_Iosb@H@std@@8 10026be8     misc.obj
 0002:00002c04       ??_R3?$basic_ostream@_WU?$char_traits@_W@std@@@std@@8 10026c04     misc.obj
 0002:00002c14       ??_R4?$clone_impl@Ubad_exception_@exception_detail@boost@@@exception_detail@boost@@6B@ 10026c14     misc.obj
 0002:00002c28       ??_R1A@73FA@?$basic_ios@_WU?$char_traits@_W@std@@@std@@8 10026c28     misc.obj
 0002:00002c44       ??_R2TimeDurationImpl@@8   10026c44     misc.obj
 0002:00002c50       ??_R3sp_counted_base@detail@boost@@8 10026c50     misc.obj
 0002:00002c60       ??_R3runtime_error@std@@8  10026c60     misc.obj
 0002:00002c70       ??_R4?$sp_counted_impl_p@V?$clone_impl@Ubad_exception_@exception_detail@boost@@@exception_detail@boost@@@detail@boost@@6B@ 10026c70     misc.obj
 0002:00002c84       ??_R3TimeDurationImpl@@8   10026c84     misc.obj
 0002:00002c94       ??_R2?$basic_ios@DU?$char_traits@D@std@@@std@@8 10026c94     misc.obj
 0002:00002ca4       ??_R4?$basic_ostringstream@_WU?$char_traits@_W@std@@V?$allocator@_W@2@@std@@6B@ 10026ca4     misc.obj
 0002:00002cb8       ??_R4bad_alloc_@exception_detail@boost@@6Bexception@2@@ 10026cb8     misc.obj
 0002:00002ccc       ??_R4?$wrapexcept@Vruntime_error@std@@@boost@@6Bexception@1@@ 10026ccc     misc.obj
 0002:00002ce0       ??_R2TimeDurationAbstr@yloader@@8 10026ce0     misc.obj
 0002:00002ce8       ??_R2bad_exception@std@@8  10026ce8     misc.obj
 0002:00002cf4       ??_R1773EA@?$_Iosb@H@std@@8 10026cf4     misc.obj
 0002:00002d10       ??_R4?$wrapexcept@Vtoo_many_args@io@boost@@@boost@@6Btoo_many_args@io@1@@ 10026d10     misc.obj
 0002:00002d24       ??_R3?$_Ref_count_obj2@VDateImpl@@@std@@8 10026d24     misc.obj
 0002:00002d34       ??_R1A@?0A@EA@format_error@io@boost@@8 10026d34     misc.obj
 0002:00002d50       ??_R1A@?0A@EA@TimerAbstr@yloader@@8 10026d50     misc.obj
 0002:00002d6c       ??_R2?$wrapexcept@Vbad_lexical_cast@boost@@@boost@@8 10026d6c     misc.obj
 0002:00002d88       ??_R4DateDurationAbstr@yloader@@6B@ 10026d88     misc.obj
 0002:00002d9c       ??_R3?$basic_istream@DU?$char_traits@D@std@@@std@@8 10026d9c     misc.obj
 0002:00002dac       ??_R3?$basic_iostream@DU?$char_traits@D@std@@@std@@8 10026dac     misc.obj
 0002:00002dbc       ??_R2?$_Ref_count_obj2@VDateDurationImpl@@@std@@8 10026dbc     misc.obj
 0002:00002dc8       ??_R1A@?0A@EA@logic_error@std@@8 10026dc8     misc.obj
 0002:00002de4       ??_R13?0A@EA@bad_month@gregorian@boost@@8 10026de4     misc.obj
 0002:00002e00       ??_R1A@?0A@EA@?$clone_impl@Ubad_alloc_@exception_detail@boost@@@exception_detail@boost@@8 10026e00     misc.obj
 0002:00002e1c       ??_R13?0A@EA@bad_day_of_month@gregorian@boost@@8 10026e1c     misc.obj
 0002:00002e38       ??_R2?$wrapexcept@Vruntime_error@std@@@boost@@8 10026e38     misc.obj
 0002:00002e50       ??_R3bad_month@gregorian@boost@@8 10026e50     misc.obj
 0002:00002e60       ??_R2DateDurationAbstr@yloader@@8 10026e60     misc.obj
 0002:00002e68       ??_R4?$_Ref_count_obj2@VDateTimeImpl@@@std@@6B@ 10026e68     misc.obj
 0002:00002e7c       ??_R2?$basic_altstringbuf@_WU?$char_traits@_W@std@@V?$allocator@_W@2@@io@boost@@8 10026e7c     misc.obj
 0002:00002e88       ??_R3?$clone_impl@Ubad_alloc_@exception_detail@boost@@@exception_detail@boost@@8 10026e88     misc.obj
 0002:00002e98       ??_R1A@?0A@EA@exception@boost@@8 10026e98     misc.obj
 0002:00002eb4       ??_R2?$sp_counted_impl_pd@PAV?$basic_altstringbuf@_WU?$char_traits@_W@std@@V?$allocator@_W@2@@io@boost@@VNo_Op@?$basic_oaltstringstream@_WU?$char_traits@_W@std@@V?$allocator@_W@2@@23@@detail@boost@@8 10026eb4     misc.obj
 0002:00002ec0       ??_R1A@?0A@EA@bad_exception@std@@8 10026ec0     misc.obj
 0002:00002edc       ??_R4bad_exception@std@@6B@ 10026edc     misc.obj
 0002:00002ef0       ??_R2?$basic_streambuf@_WU?$char_traits@_W@std@@@std@@8 10026ef0     misc.obj
 0002:00002ef8       ??_R4?$basic_stringbuf@_WU?$char_traits@_W@std@@V?$allocator@_W@2@@std@@6B@ 10026ef8     misc.obj
 0002:00002f0c       ??_R4exception@std@@6B@    10026f0c     misc.obj
 0002:00002f20       ??_R4?$wrapexcept@Vruntime_error@std@@@boost@@6Bruntime_error@std@@@ 10026f20     misc.obj
 0002:00002f34       ??_R4?$wrapexcept@Ubad_day_of_month@gregorian@boost@@@boost@@6Bclone_base@exception_detail@1@@ 10026f34     misc.obj
 0002:00002f48       ??_R2bad_array_new_length@std@@8 10026f48     misc.obj
 0002:00002f58       ??_R1A@?0A@EA@?$wrapexcept@Vtoo_many_args@io@boost@@@boost@@8 10026f58     misc.obj
 0002:00002f74       ??_R2TimerAbstr@yloader@@8 10026f74     misc.obj
 0002:00002f7c       ??_R1A@?0A@EA@?$basic_istream@DU?$char_traits@D@std@@@std@@8 10026f7c     misc.obj
 0002:00002f98       ??_R3?$_Ref_count@VDateTimeImpl@@@std@@8 10026f98     misc.obj
 0002:00002fa8       ??_R4?$wrapexcept@Vtoo_few_args@io@boost@@@boost@@6Bexception@1@@ 10026fa8     misc.obj
 0002:00002fbc       ??_R4?$clone_impl@Ubad_exception_@exception_detail@boost@@@exception_detail@boost@@6Bbad_exception@std@@@ 10026fbc     misc.obj
 0002:00002fd0       ??_R1A@?0A@EA@?$wrapexcept@Ubad_month@gregorian@boost@@@boost@@8 10026fd0     misc.obj
 0002:00002fec       ??_R3?$wrapexcept@Vbad_format_string@io@boost@@@boost@@8 10026fec     misc.obj
 0002:00002ffc       ??_R1A@73EA@ios_base@std@@8 10026ffc     misc.obj
 0002:00003018       ??_R3DateTimeAbstr@yloader@@8 10027018     misc.obj
 0002:00003028       ??_R1A@?0A@EA@?$wrapexcept@Vtoo_few_args@io@boost@@@boost@@8 10027028     misc.obj
 0002:00003044       ??_R4DateTimeImpl@@6B@     10027044     misc.obj
 0002:00003058       ??_R4clone_base@exception_detail@boost@@6B@ 10027058     misc.obj
 0002:0000306c       ??_R3?$wrapexcept@Vbad_lexical_cast@boost@@@boost@@8 1002706c     misc.obj
 0002:0000307c       ??_R1A@?0A@EA@sp_counted_base@detail@boost@@8 1002707c     misc.obj
 0002:00003098       ??_R4TimerImpl@@6B@        10027098     misc.obj
 0002:000030ac       ??_R4?$wrapexcept@Ubad_year@gregorian@boost@@@boost@@6Bbad_year@gregorian@1@@ 100270ac     misc.obj
 0002:000030c0       ??_R3DateDurationImpl@@8   100270c0     misc.obj
 0002:000030d0       ??_R2?$_Ref_count_resource@PADU?$default_delete@$$BY0A@D@std@@@std@@8 100270d0     misc.obj
 0002:000030dc       ??_R4runtime_error@std@@6B@ 100270dc     misc.obj
 0002:000030f0       ??_R17?0A@EA@?$basic_ostream@_WU?$char_traits@_W@std@@@std@@8 100270f0     misc.obj
 0002:0000310c       ??_R4?$wrapexcept@Ubad_year@gregorian@boost@@@boost@@6Bclone_base@exception_detail@1@@ 1002710c     misc.obj
 0002:00003120       ??_R3?$_Ref_count_obj2@VDateTimeImpl@@@std@@8 10027120     misc.obj
 0002:00003130       ??_R1A@CE@3FA@clone_base@exception_detail@boost@@8 10027130     misc.obj
 0002:0000314c       ??_R3bad_alloc_@exception_detail@boost@@8 1002714c     misc.obj
 0002:0000315c       ??_R2?$base_from_member@V?$shared_ptr@V?$basic_altstringbuf@_WU?$char_traits@_W@std@@V?$allocator@_W@2@@io@boost@@@boost@@$0A@@boost@@8 1002715c     misc.obj
 0002:00003164       ??_R13?0A@EA@bad_lexical_cast@boost@@8 10027164     misc.obj
 0002:00003180       ??_R4?$_Ref_count_resource@PA_WU?$default_delete@$$BY0A@_W@std@@@std@@6B@ 10027180     misc.obj
 0002:00003194       ??_R1BA@?0A@EA@exception@boost@@8 10027194     misc.obj
 0002:000031b0       ??_R3_Facet_base@std@@8    100271b0     misc.obj
 0002:000031c0       ??_R1A@?0A@EA@?$wrapexcept@Ubad_day_of_month@gregorian@boost@@@boost@@8 100271c0     misc.obj
 0002:000031dc       ??_R1A@?0A@EA@_Ref_count_base@std@@8 100271dc     misc.obj
 0002:000031f8       ??_R1A@?0A@EA@TimerImpl@@8 100271f8     misc.obj
 0002:00003214       ??_R1A@?0A@EA@bad_cast@std@@8 10027214     misc.obj
 0002:00003230       ??_R3bad_format_string@io@boost@@8 10027230     misc.obj
 0002:00003240       ??_R2?$wrapexcept@Vtoo_few_args@io@boost@@@boost@@8 10027240     misc.obj
 0002:0000325c       ??_R3TimerImpl@@8          1002725c     misc.obj
 0002:0000326c       ??_R2bad_alloc@std@@8      1002726c     misc.obj
 0002:00003278       ??_R2?$_Ref_count@VTimeDurationImpl@@@std@@8 10027278     misc.obj
 0002:00003284       ??_R4bad_alloc_@exception_detail@boost@@6Bbad_alloc@std@@@ 10027284     misc.obj
 0002:00003298       ??_R2?$basic_ostream@_WU?$char_traits@_W@std@@@std@@8 10027298     misc.obj
 0002:000032ac       ??_R4?$sp_counted_impl_pd@PAV?$basic_altstringbuf@_WU?$char_traits@_W@std@@V?$allocator@_W@2@@io@boost@@VNo_Op@?$basic_oaltstringstream@_WU?$char_traits@_W@std@@V?$allocator@_W@2@@23@@detail@boost@@6B@ 100272ac     misc.obj
 0002:000032c0       ??_R1A@?0A@EA@DateTimeImpl@@8 100272c0     misc.obj
 0002:000032dc       ??_R3clone_base@exception_detail@boost@@8 100272dc     misc.obj
 0002:000032ec       ??_R2?$basic_stringbuf@DU?$char_traits@D@std@@V?$allocator@D@2@@std@@8 100272ec     misc.obj
 0002:000032f8       ??_R3_Crt_new_delete@std@@8 100272f8     misc.obj
 0002:00003308       ??_R2DateDurationImpl@@8   10027308     misc.obj
 0002:00003314       ??_R1A@?0A@EA@runtime_error@std@@8 10027314     misc.obj
 0002:00003330       ??_R3?$_Ref_count_obj2@VTimeDurationImpl@@@std@@8 10027330     misc.obj
 0002:00003340       ??_R4?$wrapexcept@Vbad_format_string@io@boost@@@boost@@6Bbad_format_string@io@1@@ 10027340     misc.obj
 0002:00003354       ??_R2?$_Ref_count@VNameValue@yloader@@@std@@8 10027354     namevalue.obj
 0002:00003360       ??_R4?$_Ref_count@VNameValue@yloader@@@std@@6B@ 10027360     namevalue.obj
 0002:00003374       ??_R2?$_Ref_count@V?$basic_string@_WU?$char_traits@_W@std@@V?$allocator@_W@2@@std@@@std@@8 10027374     namevalue.obj
 0002:00003380       ??_R1A@?0A@EA@?$_Ref_count@VNameValue@yloader@@@std@@8 10027380     namevalue.obj
 0002:0000339c       ??_R3?$_Ref_count@V?$basic_string@_WU?$char_traits@_W@std@@V?$allocator@_W@2@@std@@@std@@8 1002739c     namevalue.obj
 0002:000033ac       ??_R4?$_Ref_count@V?$basic_string@_WU?$char_traits@_W@std@@V?$allocator@_W@2@@std@@@std@@6B@ 100273ac     namevalue.obj
 0002:000033c0       ??_R1A@?0A@EA@?$_Ref_count@V?$basic_string@_WU?$char_traits@_W@std@@V?$allocator@_W@2@@std@@@std@@8 100273c0     namevalue.obj
 0002:000033dc       ??_R3?$_Ref_count@VNameValue@yloader@@@std@@8 100273dc     namevalue.obj
 0002:000033ec       ___safe_se_handler_table   100273ec     <linker-defined>
 0002:000036bc       ___volatile_metadata       100276bc     <linker-defined>
 0002:00003b14       ___rtc_iaa                 10027b14     MSVCRT:initsect.obj
 0002:00003b18       ___rtc_izz                 10027b18     MSVCRT:initsect.obj
 0002:00003b1c       ___rtc_taa                 10027b1c     MSVCRT:initsect.obj
 0002:00003b20       ___rtc_tzz                 10027b20     MSVCRT:initsect.obj
 0002:00003b24       __tls_start                10027b24     MSVCRT:tlssup.obj
 0002:00003b28       __Init_thread_epoch        10027b28     MSVCRT:thread_safe_statics.obj
 0002:00003b2c       __tls_end                  10027b2c     MSVCRT:tlssup.obj
 0002:0000723c       __TI2?AVbad_alloc@std@@    1002b23c     MSVCRT:throw_bad_alloc.obj
 0002:0000724c       __CTA2?AVbad_alloc@std@@   1002b24c     MSVCRT:throw_bad_alloc.obj
 0002:00007338       __CTA3?AVbad_array_new_length@std@@ 1002b338     misc.obj
 0002:00007348       __CT??_R0?AVexception@boost@@@8??0exception@boost@@QAE@ABV01@@Z24 1002b348     misc.obj
 0002:00007364       __CTA6?AU?$wrapexcept@Vtoo_many_args@io@boost@@@boost@@ 1002b364     misc.obj
 0002:00007380       __TI1?AVVersionException@yloader@@ 1002b380     misc.obj
 0002:00007390       __CT??_R0?AVexception@boost@@@8??0exception@boost@@QAE@ABV01@@Z2416 1002b390     misc.obj
 0002:000073ac       __TI7?AU?$wrapexcept@Ubad_month@gregorian@boost@@@boost@@ 1002b3ac     misc.obj
 0002:000073bc       __CT??_R0?AVbad_alloc@std@@@8??0bad_alloc@std@@QAE@ABV01@@Z12 1002b3bc     misc.obj
 0002:000073d8       __CTA1?AVVersionException@yloader@@ 1002b3d8     misc.obj
 0002:000073e0       __CTA1?AVDateException@yloader@@ 1002b3e0     misc.obj
 0002:000073e8       __CT??_R0?AU?$wrapexcept@Vruntime_error@std@@@boost@@@8??0?$wrapexcept@Vruntime_error@std@@@boost@@QAE@ABU01@@Z40 1002b3e8     misc.obj
 0002:00007404       __CTA2?AVbad_cast@std@@    1002b404     misc.obj
 0002:00007410       __TI6?AU?$wrapexcept@Vbad_format_string@io@boost@@@boost@@ 1002b410     misc.obj
 0002:00007420       __TI7?AU?$wrapexcept@Ubad_year@gregorian@boost@@@boost@@ 1002b420     misc.obj
 0002:00007430       __CT??_R0?AVclone_base@exception_detail@boost@@@8??0clone_base@exception_detail@boost@@QAE@ABV012@@Z40364 1002b430     misc.obj
 0002:0000744c       __CT??_R0?AU?$wrapexcept@Vtoo_many_args@io@boost@@@boost@@@8??0?$wrapexcept@Vtoo_many_args@io@boost@@@boost@@QAE@ABU01@@Z48 1002b44c     misc.obj
 0002:00007468       __CT??_R0?AVDateException@yloader@@@8??0DateException@yloader@@QAE@ABV01@@Z48 1002b468     misc.obj
 0002:00007484       __CT??_R0?AVbad_cast@std@@@8??0bad_cast@std@@QAE@ABV01@@Z12 1002b484     misc.obj
 0002:000074a0       __TI6?AV?$clone_impl@Ubad_alloc_@exception_detail@boost@@@exception_detail@boost@@ 1002b4a0     misc.obj
 0002:000074b0       __CTA6?AU?$wrapexcept@Vbad_lexical_cast@boost@@@boost@@ 1002b4b0     misc.obj
 0002:000074cc       __TI2?AVbad_cast@std@@     1002b4cc     misc.obj
 0002:000074dc       __CT??_R0?AVbad_alloc@std@@@8??0bad_alloc@std@@QAE@ABV01@@Z1224 1002b4dc     misc.obj
 0002:000074f8       __CTA6?AU?$wrapexcept@Vbad_format_string@io@boost@@@boost@@ 1002b4f8     misc.obj
 0002:00007514       __CT??_R0?AVtoo_few_args@io@boost@@@8??0too_few_args@io@boost@@QAE@ABV012@@Z204 1002b514     misc.obj
 0002:00007530       __CT??_R0?AUbad_month@gregorian@boost@@@8??0bad_month@gregorian@boost@@QAE@ABU012@@Z124 1002b530     misc.obj
 0002:0000754c       __CTA6?AV?$clone_impl@Ubad_exception_@exception_detail@boost@@@exception_detail@boost@@ 1002b54c     misc.obj
 0002:00007568       __CT??_R0?AU?$wrapexcept@Vbad_format_string@io@boost@@@boost@@@8??0?$wrapexcept@Vbad_format_string@io@boost@@@boost@@QAE@ABU01@@Z48 1002b568     misc.obj
 0002:00007584       __CTA7?AU?$wrapexcept@Ubad_month@gregorian@boost@@@boost@@ 1002b584     misc.obj
 0002:000075a4       __CT??_R0?AVbad_lexical_cast@boost@@@8??0bad_lexical_cast@boost@@QAE@ABV01@@Z204 1002b5a4     misc.obj
 0002:000075c0       __CTA6?AV?$clone_impl@Ubad_alloc_@exception_detail@boost@@@exception_detail@boost@@ 1002b5c0     misc.obj
 0002:000075dc       __CT??_R0?AU?$wrapexcept@Vtoo_few_args@io@boost@@@boost@@@8??0?$wrapexcept@Vtoo_few_args@io@boost@@@boost@@QAE@ABU01@@Z48 1002b5dc     misc.obj
 0002:000075f8       __CT??_R0?AU?$wrapexcept@Ubad_day_of_month@gregorian@boost@@@boost@@@8??0?$wrapexcept@Ubad_day_of_month@gregorian@boost@@@boost@@QAE@ABU01@@Z40 1002b5f8     misc.obj
 0002:00007614       __CT??_R0?AU?$wrapexcept@Ubad_month@gregorian@boost@@@boost@@@8??0?$wrapexcept@Ubad_month@gregorian@boost@@@boost@@QAE@ABU01@@Z40 1002b614     misc.obj
 0002:00007630       __CTA7?AU?$wrapexcept@Ubad_day_of_month@gregorian@boost@@@boost@@ 1002b630     misc.obj
 0002:00007650       __CT??_R0?AUbad_year@gregorian@boost@@@8??0bad_year@gregorian@boost@@QAE@ABU012@@Z124 1002b650     misc.obj
 0002:0000766c       __TI6?AU?$wrapexcept@Vbad_lexical_cast@boost@@@boost@@ 1002b66c     misc.obj
 0002:0000767c       __CT??_R0?AUbad_exception_@exception_detail@boost@@@8??0bad_exception_@exception_detail@boost@@QAE@ABU012@@Z36 1002b67c     misc.obj
 0002:00007698       __CT??_R0?AVbad_cast@std@@@8??0bad_cast@std@@QAE@ABV01@@Z124 1002b698     misc.obj
 0002:000076b4       __TI6?AV?$clone_impl@Ubad_exception_@exception_detail@boost@@@exception_detail@boost@@ 1002b6b4     misc.obj
 0002:000076c4       __CTA5?AU?$wrapexcept@Vruntime_error@std@@@boost@@ 1002b6c4     misc.obj
 0002:000076dc       __CT??_R0?AVexception@std@@@8??0exception@std@@QAE@ABV01@@Z12 1002b6dc     misc.obj
 0002:000076f8       __CT??_R0?AVclone_base@exception_detail@boost@@@8??0clone_base@exception_detail@boost@@QAE@ABV012@@Z4 1002b6f8     misc.obj
 0002:00007714       __CTA6?AU?$wrapexcept@Vtoo_few_args@io@boost@@@boost@@ 1002b714     misc.obj
 0002:00007730       __CT??_R0?AVbad_format_string@io@boost@@@8??0bad_format_string@io@boost@@QAE@ABV012@@Z204 1002b730     misc.obj
 0002:0000774c       __CT??_R0?AVruntime_error@std@@@8??0runtime_error@std@@QAE@ABV01@@Z124 1002b74c     misc.obj
 0002:00007768       __CT??_R0?AV?$clone_impl@Ubad_exception_@exception_detail@boost@@@exception_detail@boost@@@8??0?$clone_impl@Ubad_exception_@exception_detail@boost@@@exception_detail@boost@@QAE@ABV012@@Z48 1002b768     misc.obj
 0002:00007784       __TI6?AU?$wrapexcept@Vtoo_few_args@io@boost@@@boost@@ 1002b784     misc.obj
 0002:00007794       __TI7?AU?$wrapexcept@Ubad_day_of_month@gregorian@boost@@@boost@@ 1002b794     misc.obj
 0002:000077a4       __TI1?AVDateException@yloader@@ 1002b7a4     misc.obj
 0002:000077b4       __CT??_R0?AVformat_error@io@boost@@@8??0format_error@io@boost@@QAE@ABV012@@Z124 1002b7b4     misc.obj
 0002:000077d0       __CT??_R0?AVlogic_error@std@@@8??0logic_error@std@@QAE@ABV01@@Z124 1002b7d0     misc.obj
 0002:000077ec       __CT??_R0?AVbad_exception@std@@@8??0bad_exception@std@@QAE@ABV01@@Z1224 1002b7ec     misc.obj
 0002:00007808       __TI3?AVbad_array_new_length@std@@ 1002b808     misc.obj
 0002:00007818       __CT??_R0?AVbad_array_new_length@std@@@8??0bad_array_new_length@std@@QAE@ABV01@@Z12 1002b818     misc.obj
 0002:00007834       __CT??_R0?AV?$clone_impl@Ubad_alloc_@exception_detail@boost@@@exception_detail@boost@@@8??0?$clone_impl@Ubad_alloc_@exception_detail@boost@@@exception_detail@boost@@QAE@ABV012@@Z48 1002b834     misc.obj
 0002:00007850       __CT??_R0?AVexception@std@@@8??0exception@std@@QAE@ABV01@@Z124 1002b850     misc.obj
 0002:0000786c       __CT??_R0?AUbad_alloc_@exception_detail@boost@@@8??0bad_alloc_@exception_detail@boost@@QAE@ABU012@@Z36 1002b86c     misc.obj
 0002:00007888       __CT??_R0?AU?$wrapexcept@Ubad_year@gregorian@boost@@@boost@@@8??0?$wrapexcept@Ubad_year@gregorian@boost@@@boost@@QAE@ABU01@@Z40 1002b888     misc.obj
 0002:000078a4       __CT??_R0?AVtoo_many_args@io@boost@@@8??0too_many_args@io@boost@@QAE@ABV012@@Z204 1002b8a4     misc.obj
 0002:000078c0       __CT??_R0?AVexception@boost@@@8??0exception@boost@@QAE@ABV01@@Z2424 1002b8c0     misc.obj
 0002:000078dc       __CT??_R0?AVVersionException@yloader@@@8??0VersionException@yloader@@QAE@ABV01@@Z24 1002b8dc     misc.obj
 0002:000078f8       __CT??_R0?AU?$wrapexcept@Vbad_lexical_cast@boost@@@boost@@@8??0?$wrapexcept@Vbad_lexical_cast@boost@@@boost@@QAE@ABU01@@Z48 1002b8f8     misc.obj
 0002:00007914       __CT??_R0?AVexception@std@@@8??0exception@std@@QAE@ABV01@@Z1224 1002b914     misc.obj
 0002:00007930       __CT??_R0?AUbad_day_of_month@gregorian@boost@@@8??0bad_day_of_month@gregorian@boost@@QAE@ABU012@@Z124 1002b930     misc.obj
 0002:0000794c       __CT??_R0?AVout_of_range@std@@@8??0out_of_range@std@@QAE@ABV01@@Z124 1002b94c     misc.obj
 0002:00007968       __CTA7?AU?$wrapexcept@Ubad_year@gregorian@boost@@@boost@@ 1002b968     misc.obj
 0002:00007988       __TI6?AU?$wrapexcept@Vtoo_many_args@io@boost@@@boost@@ 1002b988     misc.obj
 0002:00007998       __TI5?AU?$wrapexcept@Vruntime_error@std@@@boost@@ 1002b998     misc.obj
 0002:00014800       __IMPORT_DESCRIPTOR_KERNEL32 10038800     kernel32:KERNEL32.dll
 0002:00014814       __IMPORT_DESCRIPTOR_MSVCP140 10038814     msvcprt:MSVCP140.dll
 0002:00014828       __IMPORT_DESCRIPTOR_VCRUNTIME140 10038828     vcruntime:VCRUNTIME140.dll
 0002:0001483c       __IMPORT_DESCRIPTOR_api-ms-win-crt-heap-l1-1-0 1003883c     ucrt:api-ms-win-crt-heap-l1-1-0.dll
 0002:00014850       __IMPORT_DESCRIPTOR_api-ms-win-crt-time-l1-1-0 10038850     ucrt:api-ms-win-crt-time-l1-1-0.dll
 0002:00014864       __IMPORT_DESCRIPTOR_api-ms-win-crt-convert-l1-1-0 10038864     ucrt:api-ms-win-crt-convert-l1-1-0.dll
 0002:00014878       __IMPORT_DESCRIPTOR_api-ms-win-crt-string-l1-1-0 10038878     ucrt:api-ms-win-crt-string-l1-1-0.dll
 0002:0001488c       __IMPORT_DESCRIPTOR_api-ms-win-crt-runtime-l1-1-0 1003888c     ucrt:api-ms-win-crt-runtime-l1-1-0.dll
 0002:000148a0       __IMPORT_DESCRIPTOR_api-ms-win-crt-math-l1-1-0 100388a0     ucrt:api-ms-win-crt-math-l1-1-0.dll
 0002:000148b4       __NULL_IMPORT_DESCRIPTOR   100388b4     kernel32:KERNEL32.dll
 0003:00000000       __Init_global_epoch        1003b000     MSVCRT:thread_safe_statics.obj
 0003:00000004       ___scrt_native_dllmain_reason 1003b004     MSVCRT:utility.obj
 0003:00000008       ___security_cookie_complement 1003b008     MSVCRT:gs_cookie.obj
 0003:0000000c       ___security_cookie         1003b00c     MSVCRT:gs_cookie.obj
 0003:00000010       ___isa_enabled             1003b010     MSVCRT:cpu_disp.obj
 0003:00000020       __fltused                  1003b020     MSVCRT:fltused.obj
 0003:00000024       ___scrt_ucrt_dll_is_in_use 1003b024     MSVCRT:ucrt_stubs.obj
 0003:00000030       ??_R0?AVclone_base@exception_detail@boost@@@8 1003b030     misc.obj
 0003:00000060       ??_R0H@8                   1003b060     misc.obj
 0003:0000006c       ??_R0?AVbad_exception@std@@@8 1003b06c     misc.obj
 0003:0000008c       ??_R0?AVformat_error@io@boost@@@8 1003b08c     misc.obj
 0003:000000b0       ??_R0I@8                   1003b0b0     misc.obj
 0003:000000bc       ??_R0?AUbad_alloc_@exception_detail@boost@@@8 1003b0bc     misc.obj
 0003:000000ec       ??_R0?AU?$wrapexcept@Vtoo_many_args@io@boost@@@boost@@@8 1003b0ec     misc.obj
 0003:00000128       ??_R0?AU?$default_delete@$$BY0A@_W@std@@@8 1003b128     misc.obj
 0003:00000158       ??_R0?AVDateTimeImpl@@@8   1003b158     misc.obj
 0003:00000174       ??_R0?AVDateImpl@@@8       1003b174     misc.obj
 0003:0000018c       ??_R0?AUbad_exception_@exception_detail@boost@@@8 1003b18c     misc.obj
 0003:000001c0       ??_R0?AU?$wrapexcept@Vruntime_error@std@@@boost@@@8 1003b1c0     misc.obj
 0003:000001f8       ??_R0?AV?$clone_impl@Ubad_alloc_@exception_detail@boost@@@exception_detail@boost@@@8 1003b1f8     misc.obj
 0003:00000250       ??_R0?AVlogic_error@std@@@8 1003b250     misc.obj
 0003:00000270       ??_R0?AU?$default_delete@$$BY0A@D@std@@@8 1003b270     misc.obj
 0003:0000029c       ??_R0?AU?$wrapexcept@Vbad_format_string@io@boost@@@boost@@@8 1003b29c     misc.obj
 0003:000002dc       ??_R0?AVbad_cast@std@@@8   1003b2dc     misc.obj
 0003:000002f8       ??_R0F@8                   1003b2f8     misc.obj
 0003:00000304       ??_R0?AVVersionException@yloader@@@8 1003b304     misc.obj
 0003:0000032c       ??_R0?AVDateTimeAbstr@yloader@@@8 1003b32c     misc.obj
 0003:00000350       ??_R0?AVDateDurationImpl@@@8 1003b350     misc.obj
 0003:00000370       ??_R0_J@8                  1003b370     misc.obj
 0003:0000037c       ??_R0?AU?$wrapexcept@Ubad_year@gregorian@boost@@@boost@@@8 1003b37c     misc.obj
 0003:000003bc       ??_R0?AVout_of_range@std@@@8 1003b3bc     misc.obj
 0003:000003dc       ??_R0?AVTimeDurationImpl@@@8 1003b3dc     misc.obj
 0003:00000400       ??_R0?AV?$clone_impl@Ubad_exception_@exception_detail@boost@@@exception_detail@boost@@@8 1003b400     misc.obj
 0003:00000460       ??_R0?AVNo_Op@?$basic_oaltstringstream@_WU?$char_traits@_W@std@@V?$allocator@_W@2@@io@boost@@@8 1003b460     misc.obj
 0003:000004c8       ??_R0?AV?$basic_string@DU?$char_traits@D@std@@V?$allocator@D@2@@std@@@8 1003b4c8     misc.obj
 0003:00000514       ??_R0G@8                   1003b514     misc.obj
 0003:00000520       ??_R0?AV?$basic_string@_WU?$char_traits@_W@std@@V?$allocator@_W@2@@std@@@8 1003b520     misc.obj
 0003:00000570       ??_R0?AU?$wrapexcept@Ubad_day_of_month@gregorian@boost@@@boost@@@8 1003b570     misc.obj
 0003:000005b8       ??_R0?AVbad_lexical_cast@boost@@@8 1003b5b8     misc.obj
 0003:000005e0       ??_R0?AVbad_format_string@io@boost@@@8 1003b5e0     misc.obj
 0003:0000060c       ??_R0?AUbad_year@gregorian@boost@@@8 1003b60c     misc.obj
 0003:00000634       ??_R0?AVexception@std@@@8  1003b634     misc.obj
 0003:00000650       ??_R0?AVDateAbstr@yloader@@@8 1003b650     misc.obj
 0003:00000670       ??_R0?AVbad_array_new_length@std@@@8 1003b670     misc.obj
 0003:00000698       ??_R0?AU?$wrapexcept@Vbad_lexical_cast@boost@@@boost@@@8 1003b698     misc.obj
 0003:000006d4       ??_R0?AVDateDurationAbstr@yloader@@@8 1003b6d4     misc.obj
 0003:000006fc       ??_R0?AVTimeDurationAbstr@yloader@@@8 1003b6fc     misc.obj
 0003:00000724       ??_R0?AVruntime_error@std@@@8 1003b724     misc.obj
 0003:00000744       ??_R0?AU?$wrapexcept@Vtoo_few_args@io@boost@@@boost@@@8 1003b744     misc.obj
 0003:00000780       ??_R0?AVDateException@yloader@@@8 1003b780     misc.obj
 0003:000007a4       ??_R0?AVbad_alloc@std@@@8  1003b7a4     misc.obj
 0003:000007c0       ??_R0?AUbad_month@gregorian@boost@@@8 1003b7c0     misc.obj
 0003:000007e8       ??_R0?AVtoo_few_args@io@boost@@@8 1003b7e8     misc.obj
 0003:0000080c       ??_R0?AVexception@boost@@@8 1003b80c     misc.obj
 0003:0000082c       ??_R0?AU?$wrapexcept@Ubad_month@gregorian@boost@@@boost@@@8 1003b82c     misc.obj
 0003:0000086c       ??_R0?AVtoo_many_args@io@boost@@@8 1003b86c     misc.obj
 0003:00000894       ??_R0?AUbad_day_of_month@gregorian@boost@@@8 1003b894     misc.obj
 0003:000008c8       ??_R0?AVtype_info@@@8      1003b8c8     MSVCRT:std_type_info_static.obj
 0003:000008e0       ??_R0?AV?$basic_iostream@DU?$char_traits@D@std@@@std@@@8 1003b8e0     misc.obj
 0003:0000091c       ??_R0?AV_Facet_base@std@@@8 1003b91c     misc.obj
 0003:0000093c       ??_R0?AV?$_Ref_count@VDateImpl@@@std@@@8 1003b93c     misc.obj
 0003:00000968       ??_R0?AU_Crt_new_delete@std@@@8 1003b968     misc.obj
 0003:0000098c       ??_R0?AV?$_Iosb@H@std@@@8  1003b98c     misc.obj
 0003:000009a8       ??_R0?AV?$numpunct@D@std@@@8 1003b9a8     misc.obj
 0003:000009c8       ??_R0?AV?$sp_counted_impl_p@V?$clone_impl@Ubad_exception_@exception_detail@boost@@@exception_detail@boost@@@detail@boost@@@8 1003b9c8     misc.obj
 0003:00000a48       ??_R0?AV?$basic_streambuf@DU?$char_traits@D@std@@@std@@@8 1003ba48     misc.obj
 0003:00000a84       ??_R0?AV?$_Ref_count@VTimeDurationImpl@@@std@@@8 1003ba84     misc.obj
 0003:00000ab8       ??_R0?AV?$_Ref_count_resource@PA_WU?$default_delete@$$BY0A@_W@std@@@std@@@8 1003bab8     misc.obj
 0003:00000b08       ??_R0?AV?$_Ref_count@VDateTimeImpl@@@std@@@8 1003bb08     misc.obj
 0003:00000b38       ??_R0?AV?$numpunct@_W@std@@@8 1003bb38     misc.obj
 0003:00000b58       ??_R0?AV?$_Ref_count_obj2@VTimeDurationImpl@@@std@@@8 1003bb58     misc.obj
 0003:00000b90       ??_R0?AVTimerAbstr@yloader@@@8 1003bb90     misc.obj
 0003:00000bb8       ??_R0?AV?$sp_counted_impl_pd@PAV?$basic_altstringbuf@_WU?$char_traits@_W@std@@V?$allocator@_W@2@@io@boost@@VNo_Op@?$basic_oaltstringstream@_WU?$char_traits@_W@std@@V?$allocator@_W@2@@23@@detail@boost@@@8 1003bbb8     misc.obj
 0003:00000c88       ??_R0?AV?$basic_istream@DU?$char_traits@D@std@@@std@@@8 1003bc88     misc.obj
 0003:00000cc4       ??_R0?AVTimerImpl@@@8      1003bcc4     misc.obj
 0003:00000cdc       ??_R0?AV?$basic_ostream@_WU?$char_traits@_W@std@@@std@@@8 1003bcdc     misc.obj
 0003:00000d18       ??_R0?AV?$basic_altstringbuf@_WU?$char_traits@_W@std@@V?$allocator@_W@2@@io@boost@@@8 1003bd18     misc.obj
 0003:00000d70       ??_R0?AV?$basic_ios@DU?$char_traits@D@std@@@std@@@8 1003bd70     misc.obj
 0003:00000da8       ??_R0?AVfacet@locale@std@@@8 1003bda8     misc.obj
 0003:00000dc8       ??_R0?AV?$basic_ios@_WU?$char_traits@_W@std@@@std@@@8 1003bdc8     misc.obj
 0003:00000e00       ??_R0?AV?$base_from_member@V?$shared_ptr@V?$basic_altstringbuf@_WU?$char_traits@_W@std@@V?$allocator@_W@2@@io@boost@@@boost@@$0A@@boost@@@8 1003be00     misc.obj
 0003:00000e90       ??_R0?AV?$sp_counted_impl_p@V?$clone_impl@Ubad_alloc_@exception_detail@boost@@@exception_detail@boost@@@detail@boost@@@8 1003be90     misc.obj
 0003:00000f0c       ??_R0?AV_Ref_count_base@std@@@8 1003bf0c     misc.obj
 0003:00000f30       ??_R0?AV?$basic_oaltstringstream@_WU?$char_traits@_W@std@@V?$allocator@_W@2@@io@boost@@@8 1003bf30     misc.obj
 0003:00000f8c       ??_R0?AV?$basic_ostream@DU?$char_traits@D@std@@@std@@@8 1003bf8c     misc.obj
 0003:00000fc8       ??_R0?AV?$basic_streambuf@_WU?$char_traits@_W@std@@@std@@@8 1003bfc8     misc.obj
 0003:00001008       ??_R0?AV?$_Ref_count_obj2@VDateTimeImpl@@@std@@@8 1003c008     misc.obj
 0003:00001040       ??_R0?AV?$basic_ostringstream@_WU?$char_traits@_W@std@@V?$allocator@_W@2@@std@@@8 1003c040     misc.obj
 0003:00001098       ??_R0?AV?$basic_stringstream@DU?$char_traits@D@std@@V?$allocator@D@2@@std@@@8 1003c098     misc.obj
 0003:000010e8       ??_R0?AVsp_counted_base@detail@boost@@@8 1003c0e8     misc.obj
 0003:00001118       ??_R0?AV?$_Ref_count_resource@PADU?$default_delete@$$BY0A@D@std@@@std@@@8 1003c118     misc.obj
 0003:00001168       ??_R0?AV?$basic_stringbuf@_WU?$char_traits@_W@std@@V?$allocator@_W@2@@std@@@8 1003c168     misc.obj
 0003:000011b8       ??_R0?AV?$basic_stringbuf@DU?$char_traits@D@std@@V?$allocator@D@2@@std@@@8 1003c1b8     misc.obj
 0003:00001208       ??_R0?AV?$_Ref_count_obj2@VDateDurationImpl@@@std@@@8 1003c208     misc.obj
 0003:00001240       ??_R0?AVios_base@std@@@8   1003c240     misc.obj
 0003:0000125c       ??_R0?AV?$_Ref_count_obj2@VDateImpl@@@std@@@8 1003c25c     misc.obj
 0003:00001290       ??_R0?AV?$_Ref_count@V?$basic_string@_WU?$char_traits@_W@std@@V?$allocator@_W@2@@std@@@std@@@8 1003c290     namevalue.obj
 0003:000012f4       ??_R0?AV?$_Ref_count@VNameValue@yloader@@@std@@@8 1003c2f4     namevalue.obj
 0003:00001358       ___scrt_current_native_startup_state 1003c358     MSVCRT:utility.obj
 0003:0000135c       ___scrt_native_startup_lock 1003c35c     MSVCRT:utility.obj
 0003:00001380       ___castguard_check_failure_os_handled_fptr 1003c380     MSVCRT:guard_support.obj
 0003:000016a4       ___scrt_debugger_hook_flag 1003c6a4     MSVCRT:utility_desktop.obj
 0003:000016a8       __tls_index                1003c6a8     MSVCRT:tlssup.obj
 0003:000016ac       ___isa_available           1003c6ac     MSVCRT:cpu_disp.obj
 0003:000016b0       ___favor                   1003c6b0     MSVCRT:cpu_disp.obj
 0003:000016b8       ?__type_info_root_node@@3U__type_info_node@@A 1003c6b8     MSVCRT:tncleanup.obj
 0003:000016c0       ?_OptionsStorage@?1??__local_stdio_scanf_options@@9@4_KA 1003c6c0     MSVCRT:default_local_stdio_options.obj
 0003:000016d8       ?_OptionsStorage@?1??__local_stdio_printf_options@@9@4_KA 1003c6d8     misc.obj
 0003:000016e0       ?$TSS0@?6???$month_str_to_ushort@Vgreg_month@gregorian@boost@@@date_time@boost@@YAGABV?$basic_string@DU?$char_traits@D@std@@V?$allocator@D@2@@std@@@Z@4HA 1003c6e0     misc.obj
 0003:000016e4       ?ep@?1???$get_static_exception_object@Ubad_alloc_@exception_detail@boost@@@exception_detail@boost@@YA?AVexception_ptr@2@XZ@4V32@A 1003c6e4     misc.obj
 0003:000016ec       ?$TSS0@?1???$get_static_exception_object@Ubad_exception_@exception_detail@boost@@@exception_detail@boost@@YA?AVexception_ptr@2@XZ@4HA 1003c6ec     misc.obj
 0003:000016f0       ?_Psave@?$_Facetptr@V?$numpunct@_W@std@@@std@@2PBVfacet@locale@2@B 1003c6f0     misc.obj
 0003:000016f4       ?_Psave@?$_Facetptr@V?$numpunct@D@std@@@std@@2PBVfacet@locale@2@B 1003c6f4     misc.obj
 0003:000016f8       ?_Psave@?$_Facetptr@V?$ctype@D@std@@@std@@2PBVfacet@locale@2@B 1003c6f8     misc.obj
 0003:000016fc       ?_Psave@?$_Facetptr@V?$ctype@_W@std@@@std@@2PBVfacet@locale@2@B 1003c6fc     misc.obj
 0003:00001700       ?month_map@?6???$month_str_to_ushort@Vgreg_month@gregorian@boost@@@date_time@boost@@YAGABV?$basic_string@DU?$char_traits@D@std@@V?$allocator@D@2@@std@@@Z@4V?$map@V?$basic_string@DU?$char_traits@D@std@@V?$allocator@D@2@@std@@GU?$less@V?$basic_string@DU?$char_traits@D@std@@V?$allocator@D@2@@std@@@2@V?$allocator@U?$pair@$$CBV?$basic_string@DU?$char_traits@D@std@@V?$allocator@D@2@@std@@G@std@@@2@@4@A 1003c700     misc.obj
 0003:00001708       ?idcount@@3HA              1003c708     misc.obj
 0003:0000170c       ?CURRENT@Version@yloader@@2V12@B 1003c70c     misc.obj
 0003:0000171c       ?m@yloader@@3Vmutex@std@@A 1003c71c     misc.obj
 0003:0000174c       ?$TSS0@?1???$get_static_exception_object@Ubad_alloc_@exception_detail@boost@@@exception_detail@boost@@YA?AVexception_ptr@2@XZ@4HA 1003c74c     misc.obj
 0003:00001750       ?ep@?1???$get_static_exception_object@Ubad_exception_@exception_detail@boost@@@exception_detail@boost@@YA?AVexception_ptr@2@XZ@4V32@A 1003c750     misc.obj
 0003:00001758       ?mx_@?$stdcat_mx_holder@X@detail@system@boost@@2Vmutex@std@@A 1003c758     misc.obj
 0003:000018c0       ?e@?$exception_ptr_static_exception_object@Ubad_exception_@exception_detail@boost@@@exception_detail@boost@@2Vexception_ptr@3@B 1003c8c0     misc.obj
 0003:000018c8       ?e@?$exception_ptr_static_exception_object@Ubad_alloc_@exception_detail@boost@@@exception_detail@boost@@2Vexception_ptr@3@B 1003c8c8     misc.obj
 0003:000018d4       ___dyn_tls_init_callback   1003c8d4     <common>

 entry point at        0001:0001ef2b

 Static symbols

 0000:fffbf000       .debug$S                   10000000     misc.exp
 0000:fffbf000       .debug$S                   10000000     msvcprt:MSVCP140.dll
 0000:fffbf000       .debug$S                   10000000     msvcprt:MSVCP140.dll
 0000:fffbf000       .debug$S                   10000000     msvcprt:MSVCP140.dll
 0000:fffbf000       .debug$S                   10000000     msvcprt:MSVCP140.dll
 0000:fffbf000       .debug$S                   10000000     msvcprt:MSVCP140.dll
 0000:fffbf000       .debug$S                   10000000     msvcprt:MSVCP140.dll
 0000:fffbf000       .debug$S                   10000000     msvcprt:MSVCP140.dll
 0000:fffbf000       .debug$S                   10000000     msvcprt:MSVCP140.dll
 0000:fffbf000       .debug$S                   10000000     msvcprt:MSVCP140.dll
 0000:fffbf000       .debug$S                   10000000     msvcprt:MSVCP140.dll
 0000:fffbf000       .debug$S                   10000000     msvcprt:MSVCP140.dll
 0000:fffbf000       .debug$S                   10000000     msvcprt:MSVCP140.dll
 0000:fffbf000       .debug$S                   10000000     msvcprt:MSVCP140.dll
 0000:fffbf000       .debug$S                   10000000     msvcprt:MSVCP140.dll
 0000:fffbf000       .debug$S                   10000000     msvcprt:MSVCP140.dll
 0000:fffbf000       .debug$S                   10000000     msvcprt:MSVCP140.dll
 0000:fffbf000       .debug$S                   10000000     msvcprt:MSVCP140.dll
 0000:fffbf000       .debug$S                   10000000     msvcprt:MSVCP140.dll
 0000:fffbf000       .debug$S                   10000000     msvcprt:MSVCP140.dll
 0000:fffbf000       .debug$S                   10000000     msvcprt:MSVCP140.dll
 0000:fffbf000       .debug$S                   10000000     msvcprt:MSVCP140.dll
 0000:fffbf000       .debug$S                   10000000     msvcprt:MSVCP140.dll
 0000:fffbf000       .debug$S                   10000000     msvcprt:MSVCP140.dll
 0000:fffbf000       .debug$S                   10000000     msvcprt:MSVCP140.dll
 0000:fffbf000       .debug$S                   10000000     msvcprt:MSVCP140.dll
 0000:fffbf000       .debug$S                   10000000     msvcprt:MSVCP140.dll
 0000:fffbf000       .debug$S                   10000000     msvcprt:MSVCP140.dll
 0000:fffbf000       .debug$S                   10000000     msvcprt:MSVCP140.dll
 0000:fffbf000       .debug$S                   10000000     msvcprt:MSVCP140.dll
 0000:fffbf000       .debug$S                   10000000     msvcprt:MSVCP140.dll
 0000:fffbf000       .debug$S                   10000000     msvcprt:MSVCP140.dll
 0000:fffbf000       .debug$S                   10000000     msvcprt:MSVCP140.dll
 0000:fffbf000       .debug$S                   10000000     msvcprt:MSVCP140.dll
 0000:fffbf000       .debug$S                   10000000     msvcprt:MSVCP140.dll
 0000:fffbf000       .debug$S                   10000000     msvcprt:MSVCP140.dll
 0000:fffbf000       .debug$S                   10000000     msvcprt:MSVCP140.dll
 0000:fffbf000       .debug$S                   10000000     msvcprt:MSVCP140.dll
 0000:fffbf000       .debug$S                   10000000     msvcprt:MSVCP140.dll
 0000:fffbf000       .debug$S                   10000000     msvcprt:MSVCP140.dll
 0000:fffbf000       .debug$S                   10000000     msvcprt:MSVCP140.dll
 0000:fffbf000       .debug$S                   10000000     msvcprt:MSVCP140.dll
 0000:fffbf000       .debug$S                   10000000     msvcprt:MSVCP140.dll
 0000:fffbf000       .debug$S                   10000000     msvcprt:MSVCP140.dll
 0000:fffbf000       .debug$S                   10000000     msvcprt:MSVCP140.dll
 0000:fffbf000       .debug$S                   10000000     msvcprt:MSVCP140.dll
 0000:fffbf000       .debug$S                   10000000     msvcprt:MSVCP140.dll
 0000:fffbf000       .debug$S                   10000000     msvcprt:MSVCP140.dll
 0000:fffbf000       .debug$S                   10000000     msvcprt:MSVCP140.dll
 0000:fffbf000       .debug$S                   10000000     msvcprt:MSVCP140.dll
 0000:fffbf000       .debug$S                   10000000     msvcprt:MSVCP140.dll
 0000:fffbf000       .debug$S                   10000000     msvcprt:MSVCP140.dll
 0000:fffbf000       .debug$S                   10000000     msvcprt:MSVCP140.dll
 0000:fffbf000       .debug$S                   10000000     msvcprt:MSVCP140.dll
 0000:fffbf000       .debug$S                   10000000     msvcprt:MSVCP140.dll
 0000:fffbf000       .debug$S                   10000000     msvcprt:MSVCP140.dll
 0000:fffbf000       .debug$S                   10000000     msvcprt:MSVCP140.dll
 0000:fffbf000       .debug$S                   10000000     msvcprt:MSVCP140.dll
 0000:fffbf000       .debug$S                   10000000     msvcprt:MSVCP140.dll
 0000:fffbf000       .debug$S                   10000000     msvcprt:MSVCP140.dll
 0000:fffbf000       .debug$S                   10000000     msvcprt:MSVCP140.dll
 0000:fffbf000       .debug$S                   10000000     msvcprt:MSVCP140.dll
 0000:fffbf000       .debug$S                   10000000     msvcprt:MSVCP140.dll
 0000:fffbf000       .debug$S                   10000000     msvcprt:MSVCP140.dll
 0000:fffbf000       .debug$S                   10000000     msvcprt:MSVCP140.dll
 0000:fffbf000       .debug$S                   10000000     msvcprt:MSVCP140.dll
 0000:fffbf000       .debug$S                   10000000     msvcprt:MSVCP140.dll
 0000:fffbf000       .debug$S                   10000000     msvcprt:MSVCP140.dll
 0000:fffbf000       .debug$S                   10000000     msvcprt:MSVCP140.dll
 0000:fffbf000       .debug$S                   10000000     msvcprt:MSVCP140.dll
 0000:fffbf000       .debug$S                   10000000     msvcprt:MSVCP140.dll
 0000:fffbf000       .debug$S                   10000000     msvcprt:MSVCP140.dll
 0000:fffbf000       .debug$S                   10000000     msvcprt:MSVCP140.dll
 0000:fffbf000       .debug$S                   10000000     msvcprt:MSVCP140.dll
 0000:fffbf000       .debug$S                   10000000     msvcprt:MSVCP140.dll
 0000:fffbf000       .debug$S                   10000000     msvcprt:MSVCP140.dll
 0000:fffbf000       .debug$S                   10000000     msvcprt:MSVCP140.dll
 0000:fffbf000       .debug$S                   10000000     msvcprt:MSVCP140.dll
 0000:fffbf000       .debug$S                   10000000     msvcprt:MSVCP140.dll
 0000:fffbf000       .debug$S                   10000000     msvcprt:MSVCP140.dll
 0000:fffbf000       .debug$S                   10000000     msvcprt:MSVCP140.dll
 0000:fffbf000       .debug$S                   10000000     msvcprt:MSVCP140.dll
 0000:fffbf000       .debug$S                   10000000     msvcprt:MSVCP140.dll
 0000:fffbf000       .debug$S                   10000000     msvcprt:MSVCP140.dll
 0000:fffbf000       .debug$S                   10000000     msvcprt:MSVCP140.dll
 0000:fffbf000       .debug$S                   10000000     msvcprt:MSVCP140.dll
 0000:fffbf000       .debug$S                   10000000     msvcprt:MSVCP140.dll
 0000:fffbf000       .debug$S                   10000000     msvcprt:MSVCP140.dll
 0000:fffbf000       .debug$S                   10000000     msvcprt:MSVCP140.dll
 0000:fffbf000       .debug$S                   10000000     msvcprt:MSVCP140.dll
 0000:fffbf000       .debug$S                   10000000     msvcprt:MSVCP140.dll
 0000:fffbf000       .debug$S                   10000000     msvcprt:MSVCP140.dll
 0000:fffbf000       .debug$S                   10000000     msvcprt:MSVCP140.dll
 0000:fffbf000       .debug$S                   10000000     msvcprt:MSVCP140.dll
 0000:fffbf000       .debug$S                   10000000     msvcprt:MSVCP140.dll
 0000:fffbf000       .debug$S                   10000000     msvcprt:MSVCP140.dll
 0000:fffbf000       .debug$S                   10000000     msvcprt:MSVCP140.dll
 0000:fffbf000       .debug$S                   10000000     msvcprt:MSVCP140.dll
 0000:fffbf000       .debug$S                   10000000     msvcprt:MSVCP140.dll
 0000:fffbf000       .debug$S                   10000000     msvcprt:MSVCP140.dll
 0000:fffbf000       .debug$S                   10000000     msvcprt:MSVCP140.dll
 0000:fffbf000       .debug$S                   10000000     msvcprt:MSVCP140.dll
 0000:fffbf000       .debug$S                   10000000     msvcprt:MSVCP140.dll
 0000:fffbf000       .debug$S                   10000000     msvcprt:MSVCP140.dll
 0000:fffbf000       .debug$S                   10000000     msvcprt:MSVCP140.dll
 0000:fffbf000       .debug$S                   10000000     msvcprt:MSVCP140.dll
 0000:fffbf000       .debug$S                   10000000     msvcprt:MSVCP140.dll
 0000:fffbf000       .debug$S                   10000000     msvcprt:MSVCP140.dll
 0000:fffbf000       .debug$S                   10000000     msvcprt:MSVCP140.dll
 0000:fffbf000       .debug$S                   10000000     msvcprt:MSVCP140.dll
 0000:fffbf000       .debug$S                   10000000     msvcprt:MSVCP140.dll
 0000:fffbf000       .debug$S                   10000000     msvcprt:MSVCP140.dll
 0000:fffbf000       .debug$S                   10000000     msvcprt:MSVCP140.dll
 0000:fffbf000       .debug$S                   10000000     msvcprt:MSVCP140.dll
 0000:fffbf000       .debug$S                   10000000     msvcprt:MSVCP140.dll
 0000:fffbf000       .debug$S                   10000000     msvcprt:MSVCP140.dll
 0000:fffbf000       .debug$S                   10000000     msvcprt:MSVCP140.dll
 0000:fffbf000       .debug$S                   10000000     msvcprt:MSVCP140.dll
 0000:fffbf000       .debug$S                   10000000     msvcprt:MSVCP140.dll
 0000:fffbf000       .debug$S                   10000000     msvcprt:MSVCP140.dll
 0000:fffbf000       .debug$S                   10000000     msvcprt:MSVCP140.dll
 0000:fffbf000       .debug$S                   10000000     msvcprt:MSVCP140.dll
 0000:fffbf000       .debug$S                   10000000     vcruntime:VCRUNTIME140.dll
 0000:fffbf000       .debug$S                   10000000     vcruntime:VCRUNTIME140.dll
 0000:fffbf000       .debug$S                   10000000     vcruntime:VCRUNTIME140.dll
 0000:fffbf000       .debug$S                   10000000     vcruntime:VCRUNTIME140.dll
 0000:fffbf000       .debug$S                   10000000     vcruntime:VCRUNTIME140.dll
 0000:fffbf000       .debug$S                   10000000     vcruntime:VCRUNTIME140.dll
 0000:fffbf000       .debug$S                   10000000     vcruntime:VCRUNTIME140.dll
 0000:fffbf000       .debug$S                   10000000     vcruntime:VCRUNTIME140.dll
 0000:fffbf000       .debug$S                   10000000     vcruntime:VCRUNTIME140.dll
 0000:fffbf000       .debug$S                   10000000     vcruntime:VCRUNTIME140.dll
 0000:fffbf000       .debug$S                   10000000     vcruntime:VCRUNTIME140.dll
 0000:fffbf000       .debug$S                   10000000     vcruntime:VCRUNTIME140.dll
 0000:fffbf000       .debug$S                   10000000     vcruntime:VCRUNTIME140.dll
 0000:fffbf000       .debug$S                   10000000     vcruntime:VCRUNTIME140.dll
 0000:fffbf000       .debug$S                   10000000     vcruntime:VCRUNTIME140.dll
 0000:fffbf000       .debug$S                   10000000     vcruntime:VCRUNTIME140.dll
 0000:fffbf000       .debug$S                   10000000     ucrt:api-ms-win-crt-convert-l1-1-0.dll
 0000:fffbf000       .debug$S                   10000000     ucrt:api-ms-win-crt-heap-l1-1-0.dll
 0000:fffbf000       .debug$S                   10000000     ucrt:api-ms-win-crt-heap-l1-1-0.dll
 0000:fffbf000       .debug$S                   10000000     ucrt:api-ms-win-crt-heap-l1-1-0.dll
 0000:fffbf000       .debug$S                   10000000     ucrt:api-ms-win-crt-heap-l1-1-0.dll
 0000:fffbf000       .debug$S                   10000000     ucrt:api-ms-win-crt-math-l1-1-0.dll
 0000:fffbf000       .debug$S                   10000000     ucrt:api-ms-win-crt-math-l1-1-0.dll
 0000:fffbf000       .debug$S                   10000000     ucrt:api-ms-win-crt-runtime-l1-1-0.dll
 0000:fffbf000       .debug$S                   10000000     ucrt:api-ms-win-crt-runtime-l1-1-0.dll
 0000:fffbf000       .debug$S                   10000000     ucrt:api-ms-win-crt-runtime-l1-1-0.dll
 0000:fffbf000       .debug$S                   10000000     ucrt:api-ms-win-crt-runtime-l1-1-0.dll
 0000:fffbf000       .debug$S                   10000000     ucrt:api-ms-win-crt-runtime-l1-1-0.dll
 0000:fffbf000       .debug$S                   10000000     ucrt:api-ms-win-crt-runtime-l1-1-0.dll
 0000:fffbf000       .debug$S                   10000000     ucrt:api-ms-win-crt-runtime-l1-1-0.dll
 0000:fffbf000       .debug$S                   10000000     ucrt:api-ms-win-crt-runtime-l1-1-0.dll
 0000:fffbf000       .debug$S                   10000000     ucrt:api-ms-win-crt-runtime-l1-1-0.dll
 0000:fffbf000       .debug$S                   10000000     ucrt:api-ms-win-crt-runtime-l1-1-0.dll
 0000:fffbf000       .debug$S                   10000000     ucrt:api-ms-win-crt-runtime-l1-1-0.dll
 0000:fffbf000       .debug$S                   10000000     ucrt:api-ms-win-crt-runtime-l1-1-0.dll
 0000:fffbf000       .debug$S                   10000000     ucrt:api-ms-win-crt-runtime-l1-1-0.dll
 0000:fffbf000       .debug$S                   10000000     ucrt:api-ms-win-crt-runtime-l1-1-0.dll
 0000:fffbf000       .debug$S                   10000000     ucrt:api-ms-win-crt-runtime-l1-1-0.dll
 0000:fffbf000       .debug$S                   10000000     ucrt:api-ms-win-crt-stdio-l1-1-0.dll
 0002:fffdc000       .idata$6                   10000000     ucrt:api-ms-win-crt-stdio-l1-1-0.dll
 0000:fffbf000       .debug$S                   10000000     ucrt:api-ms-win-crt-string-l1-1-0.dll
 0000:fffbf000       .debug$S                   10000000     ucrt:api-ms-win-crt-string-l1-1-0.dll
 0000:fffbf000       .debug$S                   10000000     ucrt:api-ms-win-crt-string-l1-1-0.dll
 0000:fffbf000       .debug$S                   10000000     ucrt:api-ms-win-crt-string-l1-1-0.dll
 0000:fffbf000       .debug$S                   10000000     ucrt:api-ms-win-crt-time-l1-1-0.dll
 0000:fffbf000       .debug$S                   10000000     ucrt:api-ms-win-crt-time-l1-1-0.dll
 0000:fffbf000       .debug$S                   10000000     ucrt:api-ms-win-crt-time-l1-1-0.dll
 0000:fffbf000       .debug$S                   10000000     ucrt:api-ms-win-crt-time-l1-1-0.dll
 0000:fffbf000       .debug$S                   10000000     kernel32:KERNEL32.dll
 0000:fffbf000       .debug$S                   10000000     kernel32:KERNEL32.dll
 0000:fffbf000       .debug$S                   10000000     kernel32:KERNEL32.dll
 0000:fffbf000       .debug$S                   10000000     kernel32:KERNEL32.dll
 0000:fffbf000       .debug$S                   10000000     kernel32:KERNEL32.dll
 0000:fffbf000       .debug$S                   10000000     kernel32:KERNEL32.dll
 0000:fffbf000       .debug$S                   10000000     kernel32:KERNEL32.dll
 0000:fffbf000       .debug$S                   10000000     kernel32:KERNEL32.dll
 0000:fffbf000       .debug$S                   10000000     kernel32:KERNEL32.dll
 0000:fffbf000       .debug$S                   10000000     kernel32:KERNEL32.dll
 0000:fffbf000       .debug$S                   10000000     kernel32:KERNEL32.dll
 0000:fffbf000       .debug$S                   10000000     kernel32:KERNEL32.dll
 0000:fffbf000       .debug$S                   10000000     kernel32:KERNEL32.dll
 0000:fffbf000       .debug$S                   10000000     kernel32:KERNEL32.dll
 0000:fffbf000       .debug$S                   10000000     kernel32:KERNEL32.dll
 0000:fffbf000       .debug$S                   10000000     kernel32:KERNEL32.dll
 0000:fffbf000       .debug$S                   10000000     kernel32:KERNEL32.dll
 0000:fffbf000       .debug$S                   10000000     kernel32:KERNEL32.dll
 0000:fffbf000       .debug$S                   10000000     kernel32:KERNEL32.dll
 0000:fffbf000       .debug$S                   10000000     kernel32:KERNEL32.dll
 0000:fffbf000       .debug$S                   10000000     kernel32:KERNEL32.dll
 0000:fffbf000       .debug$S                   10000000     kernel32:KERNEL32.dll
 0000:fffbf000       .debug$S                   10000000     kernel32:KERNEL32.dll
 0000:fffbf000       .debug$S                   10000000     kernel32:KERNEL32.dll
 0000:fffbf000       .debug$S                   10000000     kernel32:KERNEL32.dll
 0000:fffbf000       .debug$S                   10000000     kernel32:KERNEL32.dll
 0000:fffbf000       .debug$S                   10000000     kernel32:KERNEL32.dll
 0000:fffbf000       .debug$S                   10000000     kernel32:KERNEL32.dll
 0000:fffbf000       .debug$S                   10000000     kernel32:KERNEL32.dll
 0000:fffbf000       .debug$S                   10000000     kernel32:KERNEL32.dll
 0000:fffbf000       .debug$S                   10000000     kernel32:KERNEL32.dll
 0000:fffbf000       .debug$S                   10000000     kernel32:KERNEL32.dll
 0000:fffbf000       .debug$S                   10000000     kernel32:KERNEL32.dll
 0000:fffbf000       .debug$S                   10000000     kernel32:KERNEL32.dll
 0000:fffbf000       .debug$S                   10000000     kernel32:KERNEL32.dll
 0000:fffbf000       .debug$S                   10000000     kernel32:KERNEL32.dll
 0000:fffbf000       .debug$S                   10000000     kernel32:KERNEL32.dll
 0000:fffbf000       .debug$S                   10000000     kernel32:KERNEL32.dll
 0000:fffbf000       .debug$S                   10000000     kernel32:KERNEL32.dll
 0000:fffbf000       .debug$S                   10000000     kernel32:KERNEL32.dll
 0000:fffbf000       .debug$S                   10000000     kernel32:KERNEL32.dll
 0000:fffbf000       .debug$S                   10000000     kernel32:KERNEL32.dll
 0000:fffbf000       .debug$S                   10000000     kernel32:KERNEL32.dll
 0000:fffbf000       .debug$S                   10000000     kernel32:KERNEL32.dll
 0000:fffbf000       .debug$S                   10000000     kernel32:KERNEL32.dll
 0000:fffbf000       .debug$S                   10000000     kernel32:KERNEL32.dll
 0000:fffbf000       .debug$S                   10000000     kernel32:KERNEL32.dll
 0000:fffbf000       .debug$S                   10000000     kernel32:KERNEL32.dll
 0001:00000000       ??__Em@yloader@@YAXXZ      10001000 f   misc.obj
 0001:00000020       ??__E?CURRENT@Version@yloader@@2V12@B@@YAXXZ 10001020 f   misc.obj
 0001:00000030       ??__E?mx_@?$stdcat_mx_holder@X@detail@system@boost@@2Vmutex@std@@A@@YAXXZ 10001030 f   misc.obj
 0001:00000050       ??__E?e@?$exception_ptr_static_exception_object@Ubad_alloc_@exception_detail@boost@@@exception_detail@boost@@2Vexception_ptr@3@B@@YAXXZ 10001050 f   misc.obj
 0001:00000070       ??__E?e@?$exception_ptr_static_exception_object@Ubad_exception_@exception_detail@boost@@@exception_detail@boost@@2Vexception_ptr@3@B@@YAXXZ 10001070 f   misc.obj
 0001:00000088       ??__F_Fac_tidy_reg@std@@YAXXZ 10001088 f   msvcprt:locale0_implib.obj
 0001:00000ef4       $LN40                      10001ef4     misc.obj
 0001:00000f00       $LN39                      10001f00     misc.obj
 0001:00000fbc       $LN104                     10001fbc     misc.obj
 0001:000011ec       $LN39                      100021ec     misc.obj
 0001:00002220       __catch$??8DateDurationImpl@@UBE_NABVDateDurationAbstr@yloader@@@Z$0 10003220 f i misc.obj
 0001:000022a0       __catch$??9DateDurationImpl@@UBE_NABVDateDurationAbstr@yloader@@@Z$0 100032a0 f i misc.obj
 0001:00002344       __catch$??ODateDurationImpl@@UBE_NABVDateDurationAbstr@yloader@@@Z$0 10003344 f i misc.obj
 0001:000023d1       __catch$??MDateDurationImpl@@UBE_NABVDateDurationAbstr@yloader@@@Z$0 100033d1 f i misc.obj
 0001:00002451       __catch$??PDateDurationImpl@@UBE_NABVDateDurationAbstr@yloader@@@Z$0 10003451 f i misc.obj
 0001:000024f4       __catch$??NDateDurationImpl@@UBE_NABVDateDurationAbstr@yloader@@@Z$0 100034f4 f i misc.obj
 0001:000025ba       __catch$??HDateDurationImpl@@UBE?AV?$shared_ptr@VDateDurationAbstr@yloader@@@std@@ABVDateDurationAbstr@yloader@@@Z$0 100035ba f i misc.obj
 0001:0000267a       __catch$??GDateDurationImpl@@UBE?AV?$shared_ptr@VDateDurationAbstr@yloader@@@std@@ABVDateDurationAbstr@yloader@@@Z$0 1000367a f i misc.obj
 0001:0000271e       __catch$??KDateDurationImpl@@UAE?AV?$shared_ptr@VDateDurationAbstr@yloader@@@std@@H@Z$0 1000371e f i misc.obj
 0001:000027d3       __catch$??ZDateDurationImpl@@UAE?AV?$shared_ptr@VDateDurationAbstr@yloader@@@std@@ABVDateDurationAbstr@yloader@@@Z$0 100037d3 f i misc.obj
 0001:00002893       __catch$??YDateDurationImpl@@UAE?AV?$shared_ptr@VDateDurationAbstr@yloader@@@std@@ABVDateDurationAbstr@yloader@@@Z$0 10003893 f i misc.obj
 0001:00002937       __catch$??_0DateDurationImpl@@UAE?AV?$shared_ptr@VDateDurationAbstr@yloader@@@std@@H@Z$0 10003937 f i misc.obj
 0001:00002d68       __catch$??8DateImpl@@UBE_NABVDateAbstr@yloader@@@Z$0 10003d68 f i misc.obj
 0001:00002de8       __catch$??9DateImpl@@UBE_NABVDateAbstr@yloader@@@Z$0 10003de8 f i misc.obj
 0001:00002e68       __catch$??ODateImpl@@UBE_NABVDateAbstr@yloader@@@Z$0 10003e68 f i misc.obj
 0001:00002ee8       __catch$??MDateImpl@@UBE_NABVDateAbstr@yloader@@@Z$0 10003ee8 f i misc.obj
 0001:00002f68       __catch$??PDateImpl@@UBE_NABVDateAbstr@yloader@@@Z$0 10003f68 f i misc.obj
 0001:00002fe8       __catch$??NDateImpl@@UBE_NABVDateAbstr@yloader@@@Z$0 10003fe8 f i misc.obj
 0001:000030a9       __catch$??GDateImpl@@UBE?AV?$shared_ptr@VDateAbstr@yloader@@@std@@ABVDateDurationAbstr@yloader@@@Z$0 100040a9 f i misc.obj
 0001:00003169       __catch$??HDateImpl@@UBE?AV?$shared_ptr@VDateAbstr@yloader@@@std@@ABVDateDurationAbstr@yloader@@@Z$0 10004169 f i misc.obj
 0001:000032a1       __catch$??GDateImpl@@UBE?AV?$shared_ptr@VDateDurationAbstr@yloader@@@std@@ABVDateAbstr@yloader@@@Z$0 100042a1 f i misc.obj
 0001:0000335a       __catch$??ZDateImpl@@UAE?AV?$shared_ptr@VDateAbstr@yloader@@@std@@ABVDateDurationAbstr@yloader@@@Z$0 1000435a f i misc.obj
 0001:0000341a       __catch$??YDateImpl@@UAE?AV?$shared_ptr@VDateAbstr@yloader@@@std@@ABVDateDurationAbstr@yloader@@@Z$0 1000441a f i misc.obj
 0001:00004540       __catch$??8TimeDurationImpl@@UBE_NABVTimeDurationAbstr@yloader@@@Z$0 10005540 f i misc.obj
 0001:000045c0       __catch$??9TimeDurationImpl@@UBE_NABVTimeDurationAbstr@yloader@@@Z$0 100055c0 f i misc.obj
 0001:00004641       __catch$??OTimeDurationImpl@@UBE_NABVTimeDurationAbstr@yloader@@@Z$0 10005641 f i misc.obj
 0001:000046c1       __catch$??MTimeDurationImpl@@UBE_NABVTimeDurationAbstr@yloader@@@Z$0 100056c1 f i misc.obj
 0001:00004741       __catch$??PTimeDurationImpl@@UBE_NABVTimeDurationAbstr@yloader@@@Z$0 10005741 f i misc.obj
 0001:000047c1       __catch$??NTimeDurationImpl@@UBE_NABVTimeDurationAbstr@yloader@@@Z$0 100057c1 f i misc.obj
 0001:00004875       __catch$??HTimeDurationImpl@@UBE?AV?$shared_ptr@VTimeDurationAbstr@yloader@@@std@@ABVTimeDurationAbstr@yloader@@@Z$0 10005875 f i misc.obj
 0001:00004935       __catch$??GTimeDurationImpl@@UBE?AV?$shared_ptr@VTimeDurationAbstr@yloader@@@std@@ABVTimeDurationAbstr@yloader@@@Z$0 10005935 f i misc.obj
 0001:000049d9       __catch$??KTimeDurationImpl@@UAE?AV?$shared_ptr@VTimeDurationAbstr@yloader@@@std@@H@Z$0 100059d9 f i misc.obj
 0001:00004a79       __catch$??DTimeDurationImpl@@UAE?AV?$shared_ptr@VTimeDurationAbstr@yloader@@@std@@H@Z$0 10005a79 f i misc.obj
 0001:00004b35       __catch$??ZTimeDurationImpl@@UAE?AV?$shared_ptr@VTimeDurationAbstr@yloader@@@std@@ABVTimeDurationAbstr@yloader@@@Z$0 10005b35 f i misc.obj
 0001:00004bf5       __catch$??YTimeDurationImpl@@UAE?AV?$shared_ptr@VTimeDurationAbstr@yloader@@@std@@ABVTimeDurationAbstr@yloader@@@Z$0 10005bf5 f i misc.obj
 0001:00004c99       __catch$??_0TimeDurationImpl@@UAE?AV?$shared_ptr@VTimeDurationAbstr@yloader@@@std@@H@Z$0 10005c99 f i misc.obj
 0001:00004d39       __catch$??XTimeDurationImpl@@UAE?AV?$shared_ptr@VTimeDurationAbstr@yloader@@@std@@H@Z$0 10005d39 f i misc.obj
 0001:00004e3a       __catch$??MDateTimeImpl@@UBE_NABVDateTimeAbstr@yloader@@@Z$0 10005e3a f i misc.obj
 0001:00004eba       __catch$??ODateTimeImpl@@UBE_NABVDateTimeAbstr@yloader@@@Z$0 10005eba f i misc.obj
 0001:00004f3c       __catch$??PDateTimeImpl@@UBE_NABVDateTimeAbstr@yloader@@@Z$0 10005f3c f i misc.obj
 0001:00004fbc       __catch$??NDateTimeImpl@@UBE_NABVDateTimeAbstr@yloader@@@Z$0 10005fbc f i misc.obj
 0001:0000503a       __catch$??8DateTimeImpl@@UBE_NABVDateTimeAbstr@yloader@@@Z$0 1000603a f i misc.obj
 0001:000050bc       __catch$??9DateTimeImpl@@UBE_NABVDateTimeAbstr@yloader@@@Z$0 100060bc f i misc.obj
 0001:000054e3       __catch$??GDateTimeImpl@@UBE?AV?$shared_ptr@VTimeDurationAbstr@yloader@@@std@@ABVDateTimeAbstr@yloader@@@Z$0 100064e3 f i misc.obj
 0001:000055a5       __catch$??HDateTimeImpl@@UBE?AV?$shared_ptr@VDateTimeAbstr@yloader@@@std@@ABVDateDurationAbstr@yloader@@@Z$0 100065a5 f i misc.obj
 0001:00005665       __catch$??YDateTimeImpl@@UAE?AV?$shared_ptr@VDateTimeAbstr@yloader@@@std@@ABVDateDurationAbstr@yloader@@@Z$0 10006665 f i misc.obj
 0001:00005725       __catch$??GDateTimeImpl@@UBE?AV?$shared_ptr@VDateTimeAbstr@yloader@@@std@@ABVDateDurationAbstr@yloader@@@Z$0 10006725 f i misc.obj
 0001:000057e5       __catch$??ZDateTimeImpl@@UAE?AV?$shared_ptr@VDateTimeAbstr@yloader@@@std@@ABVDateDurationAbstr@yloader@@@Z$0 100067e5 f i misc.obj
 0001:000058a5       __catch$??HDateTimeImpl@@UBE?AV?$shared_ptr@VDateTimeAbstr@yloader@@@std@@ABVTimeDurationAbstr@yloader@@@Z$0 100068a5 f i misc.obj
 0001:00005965       __catch$??YDateTimeImpl@@UAE?AV?$shared_ptr@VDateTimeAbstr@yloader@@@std@@ABVTimeDurationAbstr@yloader@@@Z$0 10006965 f i misc.obj
 0001:00005a25       __catch$??GDateTimeImpl@@UBE?AV?$shared_ptr@VDateTimeAbstr@yloader@@@std@@ABVTimeDurationAbstr@yloader@@@Z$0 10006a25 f i misc.obj
 0001:00005ae5       __catch$??ZDateTimeImpl@@UAE?AV?$shared_ptr@VDateTimeAbstr@yloader@@@std@@ABVTimeDurationAbstr@yloader@@@Z$0 10006ae5 f i misc.obj
 0001:000066a1       __catch$?make@DateTimeAbstr@yloader@@SA?AV?$shared_ptr@VDateTimeAbstr@yloader@@@std@@ABVDateAbstr@2@ABVTimeDurationAbstr@2@@Z$0 100076a1 f   misc.obj
 0001:0000682b       __catch$?make@DateTimeAbstr@yloader@@SA?AV?$shared_ptr@VDateTimeAbstr@yloader@@@std@@ABVDateAbstr@2@@Z$0 1000782b f   misc.obj
 0001:000068fc       __catch$?make@DateTimeAbstr@yloader@@SA?AV?$shared_ptr@VDateTimeAbstr@yloader@@@std@@ABV12@@Z$0 100078fc f   misc.obj
 0001:00006e16       __catch$?make@DateAbstr@yloader@@SA?AV?$shared_ptr@VDateAbstr@yloader@@@std@@ABV12@@Z$0 10007e16 f   misc.obj
 0001:00006eec       __catch$?make@TimeDurationAbstr@yloader@@SA?AV?$shared_ptr@VTimeDurationAbstr@yloader@@@std@@ABV12@@Z$0 10007eec f   misc.obj
 0001:00007392       __catch$?parse@Version@yloader@@AAEXPB_W@Z$0 10008392 f   misc.obj
 0001:00007410       $LN316                     10008410     misc.obj
 0001:000079d0       $LN1394                    100089d0     misc.obj
 0001:00007d18       $LN296                     10008d18     misc.obj
 0001:0000ab58       $LN776                     1000bb58     misc.obj
 0001:0000d0e8       $LN489                     1000e0e8     misc.obj
 0001:0000d0f0       $LN488                     1000e0f0     misc.obj
 0001:0000d3f3       __catch$??$?6_WU?$char_traits@_W@std@@@std@@YAAAV?$basic_ostream@_WU?$char_traits@_W@std@@@0@AAV10@PB_W@Z$0 1000e3f3 f i misc.obj
 0001:0000d60c       __catch$??$?6_WU?$char_traits@_W@std@@@std@@YAAAV?$basic_ostream@_WU?$char_traits@_W@std@@@0@AAV10@_W@Z$0 1000e60c f i misc.obj
 0001:0001276d       __catch$??$?6_WU?$char_traits@_W@std@@@std@@YAAAV?$basic_ostream@_WU?$char_traits@_W@std@@@0@AAV10@D@Z$0 1001376d f i misc.obj
 0001:00012e7e       __catch$??$?6_WU?$char_traits@_W@std@@@std@@YAAAV?$basic_ostream@_WU?$char_traits@_W@std@@@0@AAV10@PBD@Z$0 10013e7e f i misc.obj
 0001:00013f34       $LN587                     10014f34     misc.obj
 0001:000144e0       $LN854                     100154e0     misc.obj
 0001:00014c0e       __catch$??$_Insert_string@_WU?$char_traits@_W@std@@I@std@@YAAAV?$basic_ostream@_WU?$char_traits@_W@std@@@0@AAV10@QB_WI@Z$0 10015c0e f i misc.obj
 0001:00014f9b       __catch$??$_Emplace_reallocate@ABV?$basic_string@DU?$char_traits@D@std@@V?$allocator@D@2@@std@@@?$vector@V?$basic_string@DU?$char_traits@D@std@@V?$allocator@D@2@@std@@V?$allocator@V?$basic_string@DU?$char_traits@D@std@@V?$allocator@D@2@@std@@@2@@std@@QAEPAV?$basic_string@DU?$char_traits@D@std@@V?$allocator@D@2@@1@QAV21@ABV21@@Z$0 10015f9b f i misc.obj
 0001:0001806c       $LN451                     1001906c     misc.obj
 0001:00018090       $LN450                     10019090     misc.obj
 0001:000180d0       $LN453                     100190d0     misc.obj
 0001:000180ec       $LN452                     100190ec     misc.obj
 0001:00018138       $LN455                     10019138     misc.obj
 0001:00018180       $LN454                     10019180     misc.obj
 0001:00019166       __catch$??$?0V?$clone_impl@Ubad_alloc_@exception_detail@boost@@@exception_detail@boost@@@shared_count@detail@boost@@QAE@PAV?$clone_impl@Ubad_alloc_@exception_detail@boost@@@exception_detail@2@@Z$0 1001a166 f i misc.obj
 0001:000191f6       __catch$??$?0V?$clone_impl@Ubad_exception_@exception_detail@boost@@@exception_detail@boost@@@shared_count@detail@boost@@QAE@PAV?$clone_impl@Ubad_exception_@exception_detail@boost@@@exception_detail@2@@Z$0 1001a1f6 f i misc.obj
 0001:0001975a       __catch$??$_Resize_reallocate@U?$format_item@_WU?$char_traits@_W@std@@V?$allocator@_W@2@@detail@io@boost@@@?$vector@U?$format_item@_WU?$char_traits@_W@std@@V?$allocator@_W@2@@detail@io@boost@@V?$allocator@U?$format_item@_WU?$char_traits@_W@std@@V?$allocator@_W@2@@detail@io@boost@@@std@@@std@@AAEXIABU?$format_item@_WU?$char_traits@_W@std@@V?$allocator@_W@2@@detail@io@boost@@@Z$0 1001a75a f i misc.obj
 0001:0001b0d6       __catch$??$?0PAV?$basic_altstringbuf@_WU?$char_traits@_W@std@@V?$allocator@_W@2@@io@boost@@VNo_Op@?$basic_oaltstringstream@_WU?$char_traits@_W@std@@V?$allocator@_W@2@@12@@shared_count@detail@boost@@QAE@PAV?$basic_altstringbuf@_WU?$char_traits@_W@std@@V?$allocator@_W@2@@io@2@VNo_Op@?$basic_oaltstringstream@_WU?$char_traits@_W@std@@V?$allocator@_W@2@@42@@Z$0 1001c0d6 f i misc.obj
 0001:0001e0cc       __catch$??$_Copy_nodes@U_Copy_tag@?$_Tree@V?$_Tmap_traits@V?$basic_string@_WU?$char_traits@_W@std@@V?$allocator@_W@2@@std@@V?$shared_ptr@VNameValue@yloader@@@2@U?$less@V?$basic_string@_WU?$char_traits@_W@std@@V?$allocator@_W@2@@std@@@2@V?$allocator@U?$pair@$$CBV?$basic_string@_WU?$char_traits@_W@std@@V?$allocator@_W@2@@std@@V?$shared_ptr@VNameValue@yloader@@@2@@std@@@2@$00@std@@@std@@@?$_Tree@V?$_Tmap_traits@V?$basic_string@_WU?$char_traits@_W@std@@V?$allocator@_W@2@@std@@V?$shared_ptr@VNameValue@yloader@@@2@U?$less@V?$basic_string@_WU?$char_traits@_W@std@@V?$allocator@_W@2@@std@@@2@V?$allocator@U?$pair@$$CBV?$basic_string@_WU?$char_traits@_W@std@@V?$allocator@_W@2@@std@@V?$shared_ptr@VNameValue@yloader@@@2@@std@@@2@$00@std@@@std@@IAEPAU?$_Tree_node@U?$pair@$$CBV?$basic_string@_WU?$char_traits@_W@std@@V?$allocator@_W@2@@std@@V?$shared_ptr@VNameValue@yloader@@@2@@std@@PAX@1@PAU21@0U_Copy_tag@01@@Z$0 1001f0cc f i namevalue.obj
 0001:0001e213       __catch$??$_Copy_nodes@U_Move_tag@?$_Tree@V?$_Tmap_traits@V?$basic_string@_WU?$char_traits@_W@std@@V?$allocator@_W@2@@std@@V?$shared_ptr@VNameValue@yloader@@@2@U?$less@V?$basic_string@_WU?$char_traits@_W@std@@V?$allocator@_W@2@@std@@@2@V?$allocator@U?$pair@$$CBV?$basic_string@_WU?$char_traits@_W@std@@V?$allocator@_W@2@@std@@V?$shared_ptr@VNameValue@yloader@@@2@@std@@@2@$00@std@@@std@@@?$_Tree@V?$_Tmap_traits@V?$basic_string@_WU?$char_traits@_W@std@@V?$allocator@_W@2@@std@@V?$shared_ptr@VNameValue@yloader@@@2@U?$less@V?$basic_string@_WU?$char_traits@_W@std@@V?$allocator@_W@2@@std@@@2@V?$allocator@U?$pair@$$CBV?$basic_string@_WU?$char_traits@_W@std@@V?$allocator@_W@2@@std@@V?$shared_ptr@VNameValue@yloader@@@2@@std@@@2@$00@std@@@std@@IAEPAU?$_Tree_node@U?$pair@$$CBV?$basic_string@_WU?$char_traits@_W@std@@V?$allocator@_W@2@@std@@V?$shared_ptr@VNameValue@yloader@@@2@@std@@PAX@1@PAU21@0U_Move_tag@01@@Z$0 1001f213 f i namevalue.obj
 0001:0001e544       ?__scrt_initialize_thread_safe_statics@@YAHXZ 1001f544 f   MSVCRT:thread_safe_statics.obj
 0001:0001e56b       ?__scrt_initialize_thread_safe_statics_platform_specific@@YAXXZ 1001f56b f   MSVCRT:thread_safe_statics.obj
 0001:0001e5ed       ?__scrt_uninitialize_thread_safe_statics@@YAXXZ 1001f5ed f   MSVCRT:thread_safe_statics.obj
 0001:0001e892       ?find_pe_section@@YAPAU_IMAGE_SECTION_HEADER@@QAEI@Z 1001f892 f   MSVCRT:utility.obj
 0001:0001ebeb       ?dllmain_crt_dispatch@@YGHQAUHINSTANCE__@@KQAX@Z 1001fbeb f   MSVCRT:dll_dllmain.obj
 0001:0001ec3e       ?dllmain_crt_process_attach@@YAHQAUHINSTANCE__@@QAX@Z 1001fc3e f   MSVCRT:dll_dllmain.obj
 0001:0001ed45       ?dllmain_crt_process_detach@@YAH_N@Z 1001fd45 f   MSVCRT:dll_dllmain.obj
 0001:0001edf5       ?dllmain_dispatch@@YAHQAUHINSTANCE__@@KQAX@Z 1001fdf5 f   MSVCRT:dll_dllmain.obj
 0001:0001ef00       ?dllmain_raw@@YGHQAUHINSTANCE__@@KQAX@Z 1001ff00 f   MSVCRT:dll_dllmain.obj
 0001:0001f1d0       $$000000                   100201d0     MSVCRT:sehprolg4.obj
 0001:0001f425       ___get_entropy             10020425 f   MSVCRT:gs_support.obj
 0001:0001f5e0       ?on_tls_prepare@?A0xb3d7cfe5@@YAHXZ 100205e0 f   libboost_thread-vc142-mt-x32-1_80:tss_pe.obj
 0001:0001f5f0       ?on_process_init@?A0xb3d7cfe5@@YAXXZ 100205f0 f   libboost_thread-vc142-mt-x32-1_80:tss_pe.obj
 0001:0001f610       ?on_process_term@?A0xb3d7cfe5@@YAXXZ 10020610 f   libboost_thread-vc142-mt-x32-1_80:tss_pe.obj
 0001:0001f620       ?on_tls_callback@?A0xb3d7cfe5@@YGXPAUHINSTANCE__@@KPAX@Z 10020620 f   libboost_thread-vc142-mt-x32-1_80:tss_pe.obj
 0001:0001f630       ?dll_callback@?A0xb3d7cfe5@@YGHPAUHINSTANCE__@@KPAX@Z 10020630 f   libboost_thread-vc142-mt-x32-1_80:tss_pe.obj
 0001:0001fcfa       __catch$?call_once@boost@@YAXAAUonce_flag@1@P6AXXZ@Z$0 10020cfa f i libboost_thread-vc142-mt-x32-1_80:thread.obj
 0001:0001fd20       ?create_current_thread_tls_key@?A0x651aaad3@boost@@YAXXZ 10020d20 f   libboost_thread-vc142-mt-x32-1_80:thread.obj
 0001:0001ff10       ?run_thread_exit_callbacks@?A0x651aaad3@boost@@YAXXZ 10020f10 f   libboost_thread-vc142-mt-x32-1_80:thread.obj
 0001:00020070       $$000000                   10021070     MSVCRT:lldiv.obj
 0001:00020091       L1                         10021091     MSVCRT:lldiv.obj
 0001:000200ad       L2                         100210ad     MSVCRT:lldiv.obj
 0001:000200c9       L3                         100210c9     MSVCRT:lldiv.obj
 0001:000200d7       L5                         100210d7     MSVCRT:lldiv.obj
 0001:00020105       L6                         10021105     MSVCRT:lldiv.obj
 0001:00020106       L7                         10021106     MSVCRT:lldiv.obj
 0001:0002010a       L4                         1002110a     MSVCRT:lldiv.obj
 0001:00020114       L8                         10021114     MSVCRT:lldiv.obj
 0001:00020120       $$000000                   10021120     MSVCRT:llmul.obj
 0001:00020139       hard                       10021139     MSVCRT:llmul.obj
 0001:000201f0       $$000000                   100211f0     MSVCRT:llrem.obj
 0001:00020210       L1                         10021210     MSVCRT:llrem.obj
 0001:0002022b       L2                         1002122b     MSVCRT:llrem.obj
 0001:0002024a       L3                         1002124a     MSVCRT:llrem.obj
 0001:00020258       L5                         10021258     MSVCRT:llrem.obj
 0001:00020283       L6                         10021283     MSVCRT:llrem.obj
 0001:0002028b       L7                         1002128b     MSVCRT:llrem.obj
 0001:00020296       L4                         10021296     MSVCRT:llrem.obj
 0001:0002029d       L8                         1002129d     MSVCRT:llrem.obj
 0001:000202b0       $$000000                   100212b0     MSVCRT:ulldiv.obj
 0001:000202d2       L1                         100212d2     MSVCRT:ulldiv.obj
 0001:000202e0       L3                         100212e0     MSVCRT:ulldiv.obj
 0001:0002030e       L4                         1002130e     MSVCRT:ulldiv.obj
 0001:0002030f       L5                         1002130f     MSVCRT:ulldiv.obj
 0001:00020313       L2                         10021313     MSVCRT:ulldiv.obj
 0001:00020330       __ehhandler$?name@locale@std@@QBE?AV?$basic_string@DU?$char_traits@D@std@@V?$allocator@D@2@@2@XZ 10021330 f   misc.obj
 0001:00020360       __unwindfunclet$??8locale@std@@QBE_NABV01@@Z$0 10021360 f   misc.obj
 0001:00020379       __unwindfunclet$??8locale@std@@QBE_NABV01@@Z$1 10021379 f   misc.obj
 0001:00020397       __ehhandler$??8locale@std@@QBE_NABV01@@Z 10021397 f   misc.obj
 0001:000203c0       __unwindfunclet$?copy_boost_exception@exception_detail@boost@@YAXPAVexception@2@PBV32@@Z$0 100213c0 f   misc.obj
 0001:000203c8       __unwindfunclet$?copy_boost_exception@exception_detail@boost@@YAXPAVexception@2@PBV32@@Z$1 100213c8 f   misc.obj
 0001:000203d5       __ehhandler$?copy_boost_exception@exception_detail@boost@@YAXPAVexception@2@PBV32@@Z 100213d5 f   misc.obj
 0001:00020400       __ehhandler$??0bad_day_of_month@gregorian@boost@@QAE@XZ 10021400 f   misc.obj
 0001:00020400       __ehhandler$??0bad_month@gregorian@boost@@QAE@XZ 10021400 f   misc.obj
 0001:00020400       __ehhandler$??0bad_year@gregorian@boost@@QAE@XZ 10021400 f   misc.obj
 0001:00020430       __unwindfunclet$??0date@gregorian@boost@@QAE@Vgreg_year@12@Vgreg_month@12@Vgreg_day@12@@Z$0 10021430 f   misc.obj
 0001:00020438       __unwindfunclet$??0date@gregorian@boost@@QAE@Vgreg_year@12@Vgreg_month@12@Vgreg_day@12@@Z$1 10021438 f   misc.obj
 0001:00020445       __ehhandler$??0date@gregorian@boost@@QAE@Vgreg_year@12@Vgreg_month@12@Vgreg_day@12@@Z 10021445 f   misc.obj
 0001:00020470       __unwindfunclet$?localtime@c_time@date_time@boost@@SAPAUtm@@PB_JPAU4@@Z$0 10021470 f   misc.obj
 0001:00020470       __unwindfunclet$?on_error@?$simple_exception_policy@G$00$0BP@Ubad_day_of_month@gregorian@boost@@@CV@boost@@SAXGGW4violation_enum@23@@Z$0 10021470 f   misc.obj
 0001:00020470       __unwindfunclet$?on_error@?$simple_exception_policy@G$00$0M@Ubad_month@gregorian@boost@@@CV@boost@@SAXGGW4violation_enum@23@@Z$0 10021470 f   misc.obj
 0001:00020470       __unwindfunclet$?on_error@?$simple_exception_policy@G$0FHI@$0CHAP@Ubad_year@gregorian@boost@@@CV@boost@@SAXGGW4violation_enum@23@@Z$0 10021470 f   misc.obj
 0001:0002047d       __ehhandler$?localtime@c_time@date_time@boost@@SAPAUtm@@PB_JPAU4@@Z 1002147d f   misc.obj
 0001:0002047d       __ehhandler$?on_error@?$simple_exception_policy@G$00$0BP@Ubad_day_of_month@gregorian@boost@@@CV@boost@@SAXGGW4violation_enum@23@@Z 1002147d f   misc.obj
 0001:0002047d       __ehhandler$?on_error@?$simple_exception_policy@G$00$0M@Ubad_month@gregorian@boost@@@CV@boost@@SAXGGW4violation_enum@23@@Z 1002147d f   misc.obj
 0001:0002047d       __ehhandler$?on_error@?$simple_exception_policy@G$0FHI@$0CHAP@Ubad_year@gregorian@boost@@@CV@boost@@SAXGGW4violation_enum@23@@Z 1002147d f   misc.obj
 0001:000204a0       __ehhandler$?split@date_time@boost@@YA_NABV?$basic_string@DU?$char_traits@D@std@@V?$allocator@D@2@@std@@DAAV34@1@Z 100214a0 f   misc.obj
 0001:000204d0       __ehhandler$??1?$wrapexcept@Ubad_day_of_month@gregorian@boost@@@boost@@UAE@XZ 100214d0 f   misc.obj
 0001:000204d0       __ehhandler$??1?$wrapexcept@Ubad_month@gregorian@boost@@@boost@@UAE@XZ 100214d0 f   misc.obj
 0001:000204d0       __ehhandler$??1?$wrapexcept@Ubad_year@gregorian@boost@@@boost@@UAE@XZ 100214d0 f   misc.obj
 0001:000204d0       __ehhandler$??1?$wrapexcept@Vbad_format_string@io@boost@@@boost@@UAE@XZ 100214d0 f   misc.obj
 0001:000204d0       __ehhandler$??1?$wrapexcept@Vbad_lexical_cast@boost@@@boost@@UAE@XZ 100214d0 f   misc.obj
 0001:000204d0       __ehhandler$??1?$wrapexcept@Vruntime_error@std@@@boost@@UAE@XZ 100214d0 f   misc.obj
 0001:000204d0       __ehhandler$??1?$wrapexcept@Vtoo_few_args@io@boost@@@boost@@UAE@XZ 100214d0 f   misc.obj
 0001:000204d0       __ehhandler$??1?$wrapexcept@Vtoo_many_args@io@boost@@@boost@@UAE@XZ 100214d0 f   misc.obj
 0001:000204d0       __ehhandler$??1bad_alloc_@exception_detail@boost@@UAE@XZ 100214d0 f   misc.obj
 0001:000204d0       __ehhandler$??1bad_exception_@exception_detail@boost@@UAE@XZ 100214d0 f   misc.obj
 0001:000204d0       __ehhandler$??1sentry@?$basic_ostream@_WU?$char_traits@_W@std@@@std@@QAE@XZ 100214d0 f   misc.obj
 0001:000204d0       __ehhandler$??_D?$clone_impl@Ubad_alloc_@exception_detail@boost@@@exception_detail@boost@@QAEXXZ 100214d0 f   misc.obj
 0001:000204d0       __ehhandler$??_D?$clone_impl@Ubad_exception_@exception_detail@boost@@@exception_detail@boost@@QAEXXZ 100214d0 f   misc.obj
 0001:000204d0       __ehhandler$??_G?$wrapexcept@Ubad_day_of_month@gregorian@boost@@@boost@@UAEPAXI@Z 100214d0 f   misc.obj
 0001:000204d0       __ehhandler$??_G?$wrapexcept@Ubad_month@gregorian@boost@@@boost@@UAEPAXI@Z 100214d0 f   misc.obj
 0001:000204d0       __ehhandler$??_G?$wrapexcept@Ubad_year@gregorian@boost@@@boost@@UAEPAXI@Z 100214d0 f   misc.obj
 0001:000204d0       __ehhandler$??_G?$wrapexcept@Vbad_format_string@io@boost@@@boost@@UAEPAXI@Z 100214d0 f   misc.obj
 0001:000204d0       __ehhandler$??_G?$wrapexcept@Vbad_lexical_cast@boost@@@boost@@UAEPAXI@Z 100214d0 f   misc.obj
 0001:000204d0       __ehhandler$??_G?$wrapexcept@Vruntime_error@std@@@boost@@UAEPAXI@Z 100214d0 f   misc.obj
 0001:000204d0       __ehhandler$??_G?$wrapexcept@Vtoo_few_args@io@boost@@@boost@@UAEPAXI@Z 100214d0 f   misc.obj
 0001:000204d0       __ehhandler$??_G?$wrapexcept@Vtoo_many_args@io@boost@@@boost@@UAEPAXI@Z 100214d0 f   misc.obj
 0001:000204d0       __ehhandler$??_Gbad_alloc_@exception_detail@boost@@UAEPAXI@Z 100214d0 f   misc.obj
 0001:000204d0       __ehhandler$??_Gbad_exception_@exception_detail@boost@@UAEPAXI@Z 100214d0 f   misc.obj
 0001:000204f0       __unwindfunclet$?s2ws@yloader@@YA?AV?$basic_string@_WU?$char_traits@_W@std@@V?$allocator@_W@2@@std@@PBD@Z$6 100214f0 f   misc.obj
 0001:000204f8       __unwindfunclet$?s2ws@yloader@@YA?AV?$basic_string@_WU?$char_traits@_W@std@@V?$allocator@_W@2@@std@@PBD@Z$1 100214f8 f   misc.obj
 0001:00020505       __ehhandler$?s2ws@yloader@@YA?AV?$basic_string@_WU?$char_traits@_W@std@@V?$allocator@_W@2@@std@@PBD@Z 10021505 f   misc.obj
 0001:00020530       __unwindfunclet$?ws2s@yloader@@YA?AV?$basic_string@DU?$char_traits@D@std@@V?$allocator@D@2@@std@@ABV?$basic_string@_WU?$char_traits@_W@std@@V?$allocator@_W@2@@3@@Z$7 10021530 f   misc.obj
 0001:00020538       __unwindfunclet$?ws2s@yloader@@YA?AV?$basic_string@DU?$char_traits@D@std@@V?$allocator@D@2@@std@@ABV?$basic_string@_WU?$char_traits@_W@std@@V?$allocator@_W@2@@3@@Z$2 10021538 f   misc.obj
 0001:00020545       __ehhandler$?ws2s@yloader@@YA?AV?$basic_string@DU?$char_traits@D@std@@V?$allocator@D@2@@std@@ABV?$basic_string@_WU?$char_traits@_W@std@@V?$allocator@_W@2@@3@@Z 10021545 f   misc.obj
 0001:00020570       __unwindfunclet$??0DateException@yloader@@QAE@ABV?$basic_string@_WU?$char_traits@_W@std@@V?$allocator@_W@2@@std@@0@Z$0 10021570 f   misc.obj
 0001:0002057d       __ehhandler$??0DateException@yloader@@QAE@ABV?$basic_string@_WU?$char_traits@_W@std@@V?$allocator@_W@2@@std@@0@Z 1002157d f   misc.obj
 0001:000205a0       __unwindfunclet$?toShortString@Version@yloader@@QBE?AV?$basic_string@_WU?$char_traits@_W@std@@V?$allocator@_W@2@@std@@XZ$0 100215a0 f   misc.obj
 0001:000205b0       __ehhandler$?toShortString@Version@yloader@@QBE?AV?$basic_string@_WU?$char_traits@_W@std@@V?$allocator@_W@2@@std@@XZ 100215b0 f   misc.obj
 0001:000205d0       __unwindfunclet$?toString@Version@yloader@@QBE?AV?$basic_string@_WU?$char_traits@_W@std@@V?$allocator@_W@2@@std@@XZ$0 100215d0 f   misc.obj
 0001:000205db       __unwindfunclet$?toString@Version@yloader@@QBE?AV?$basic_string@_WU?$char_traits@_W@std@@V?$allocator@_W@2@@std@@XZ$1 100215db f   misc.obj
 0001:000205e8       __ehhandler$?toString@Version@yloader@@QBE?AV?$basic_string@_WU?$char_traits@_W@std@@V?$allocator@_W@2@@std@@XZ 100215e8 f   misc.obj
 0001:00020620       __unwindfunclet$?tsprint@yloader@@YAAAV?$basic_ostream@_WU?$char_traits@_W@std@@@std@@ABV?$basic_string@_WU?$char_traits@_W@std@@V?$allocator@_W@2@@3@AAV23@@Z$0 10021620 f   misc.obj
 0001:0002062d       __ehhandler$?tsprint@yloader@@YAAAV?$basic_ostream@_WU?$char_traits@_W@std@@@std@@ABV?$basic_string@_WU?$char_traits@_W@std@@V?$allocator@_W@2@@3@AAV23@@Z 1002162d f   misc.obj
 0001:00020650       __unwindfunclet$?tsprint@yloader@@YAAAV?$basic_ostream@_WU?$char_traits@_W@std@@@std@@ABV?$basic_ostringstream@_WU?$char_traits@_W@std@@V?$allocator@_W@2@@3@AAV23@@Z$0 10021650 f   misc.obj
 0001:0002065d       __ehhandler$?tsprint@yloader@@YAAAV?$basic_ostream@_WU?$char_traits@_W@std@@@std@@ABV?$basic_ostringstream@_WU?$char_traits@_W@std@@V?$allocator@_W@2@@3@AAV23@@Z 1002165d f   misc.obj
 0001:00020690       __ehhandler$??8DateDurationImpl@@UBE_NABVDateDurationAbstr@yloader@@@Z 10021690 f   misc.obj
 0001:000206b0       __ehhandler$??9DateDurationImpl@@UBE_NABVDateDurationAbstr@yloader@@@Z 100216b0 f   misc.obj
 0001:000206d0       __ehhandler$??ODateDurationImpl@@UBE_NABVDateDurationAbstr@yloader@@@Z 100216d0 f   misc.obj
 0001:000206f0       __ehhandler$??MDateDurationImpl@@UBE_NABVDateDurationAbstr@yloader@@@Z 100216f0 f   misc.obj
 0001:00020710       __ehhandler$??PDateDurationImpl@@UBE_NABVDateDurationAbstr@yloader@@@Z 10021710 f   misc.obj
 0001:00020730       __ehhandler$??NDateDurationImpl@@UBE_NABVDateDurationAbstr@yloader@@@Z 10021730 f   misc.obj
 0001:00020750       __ehhandler$??HDateDurationImpl@@UBE?AV?$shared_ptr@VDateDurationAbstr@yloader@@@std@@ABVDateDurationAbstr@yloader@@@Z 10021750 f   misc.obj
 0001:00020770       __ehhandler$??GDateDurationImpl@@UBE?AV?$shared_ptr@VDateDurationAbstr@yloader@@@std@@ABVDateDurationAbstr@yloader@@@Z 10021770 f   misc.obj
 0001:00020790       __ehhandler$??KDateDurationImpl@@UAE?AV?$shared_ptr@VDateDurationAbstr@yloader@@@std@@H@Z 10021790 f   misc.obj
 0001:000207b0       __ehhandler$??ZDateDurationImpl@@UAE?AV?$shared_ptr@VDateDurationAbstr@yloader@@@std@@ABVDateDurationAbstr@yloader@@@Z 100217b0 f   misc.obj
 0001:000207d0       __ehhandler$??YDateDurationImpl@@UAE?AV?$shared_ptr@VDateDurationAbstr@yloader@@@std@@ABVDateDurationAbstr@yloader@@@Z 100217d0 f   misc.obj
 0001:000207f0       __ehhandler$??_0DateDurationImpl@@UAE?AV?$shared_ptr@VDateDurationAbstr@yloader@@@std@@H@Z 100217f0 f   misc.obj
 0001:00020810       __ehhandler$?to_iso_extended_string@DateImpl@@UBE?AV?$basic_string@_WU?$char_traits@_W@std@@V?$allocator@_W@2@@std@@XZ 10021810 f   misc.obj
 0001:00020830       __ehhandler$??8DateImpl@@UBE_NABVDateAbstr@yloader@@@Z 10021830 f   misc.obj
 0001:00020850       __ehhandler$??9DateImpl@@UBE_NABVDateAbstr@yloader@@@Z 10021850 f   misc.obj
 0001:00020870       __ehhandler$??ODateImpl@@UBE_NABVDateAbstr@yloader@@@Z 10021870 f   misc.obj
 0001:00020890       __ehhandler$??MDateImpl@@UBE_NABVDateAbstr@yloader@@@Z 10021890 f   misc.obj
 0001:000208b0       __ehhandler$??PDateImpl@@UBE_NABVDateAbstr@yloader@@@Z 100218b0 f   misc.obj
 0001:000208d0       __ehhandler$??NDateImpl@@UBE_NABVDateAbstr@yloader@@@Z 100218d0 f   misc.obj
 0001:000208f0       __ehhandler$??GDateImpl@@UBE?AV?$shared_ptr@VDateAbstr@yloader@@@std@@ABVDateDurationAbstr@yloader@@@Z 100218f0 f   misc.obj
 0001:00020910       __ehhandler$??HDateImpl@@UBE?AV?$shared_ptr@VDateAbstr@yloader@@@std@@ABVDateDurationAbstr@yloader@@@Z 10021910 f   misc.obj
 0001:00020930       __ehhandler$??GDateImpl@@UBE?AV?$shared_ptr@VDateDurationAbstr@yloader@@@std@@ABVDateAbstr@yloader@@@Z 10021930 f   misc.obj
 0001:00020950       __ehhandler$??ZDateImpl@@UAE?AV?$shared_ptr@VDateAbstr@yloader@@@std@@ABVDateDurationAbstr@yloader@@@Z 10021950 f   misc.obj
 0001:00020970       __ehhandler$??YDateImpl@@UAE?AV?$shared_ptr@VDateAbstr@yloader@@@std@@ABVDateDurationAbstr@yloader@@@Z 10021970 f   misc.obj
 0001:00020990       __unwindfunclet$??0Date@yloader@@QAE@ABV?$basic_string@_WU?$char_traits@_W@std@@V?$allocator@_W@2@@std@@W4DateFormat@1@0@Z$0 10021990 f   misc.obj
 0001:0002099d       __ehhandler$??0Date@yloader@@QAE@ABV?$basic_string@_WU?$char_traits@_W@std@@V?$allocator@_W@2@@std@@W4DateFormat@1@0@Z 1002199d f   misc.obj
 0001:000209c0       __unwindfunclet$?parse@Date@yloader@@AAEXABV?$basic_string@_WU?$char_traits@_W@std@@V?$allocator@_W@2@@std@@W4DateFormat@2@0@Z$0 100219c0 f   misc.obj
 0001:000209c8       __unwindfunclet$?parse@Date@yloader@@AAEXABV?$basic_string@_WU?$char_traits@_W@std@@V?$allocator@_W@2@@std@@W4DateFormat@2@0@Z$1 100219c8 f   misc.obj
 0001:000209d0       __unwindfunclet$?parse@Date@yloader@@AAEXABV?$basic_string@_WU?$char_traits@_W@std@@V?$allocator@_W@2@@std@@W4DateFormat@2@0@Z$2 100219d0 f   misc.obj
 0001:000209d8       __unwindfunclet$?parse@Date@yloader@@AAEXABV?$basic_string@_WU?$char_traits@_W@std@@V?$allocator@_W@2@@std@@W4DateFormat@2@0@Z$15 100219d8 f   misc.obj
 0001:000209e0       __unwindfunclet$?parse@Date@yloader@@AAEXABV?$basic_string@_WU?$char_traits@_W@std@@V?$allocator@_W@2@@std@@W4DateFormat@2@0@Z$19 100219e0 f   misc.obj
 0001:000209e8       __unwindfunclet$?parse@Date@yloader@@AAEXABV?$basic_string@_WU?$char_traits@_W@std@@V?$allocator@_W@2@@std@@W4DateFormat@2@0@Z$22 100219e8 f   misc.obj
 0001:000209f0       __unwindfunclet$?parse@Date@yloader@@AAEXABV?$basic_string@_WU?$char_traits@_W@std@@V?$allocator@_W@2@@std@@W4DateFormat@2@0@Z$21 100219f0 f   misc.obj
 0001:000209f8       __unwindfunclet$?parse@Date@yloader@@AAEXABV?$basic_string@_WU?$char_traits@_W@std@@V?$allocator@_W@2@@std@@W4DateFormat@2@0@Z$20 100219f8 f   misc.obj
 0001:00020a00       __unwindfunclet$?parse@Date@yloader@@AAEXABV?$basic_string@_WU?$char_traits@_W@std@@V?$allocator@_W@2@@std@@W4DateFormat@2@0@Z$16 10021a00 f   misc.obj
 0001:00020a08       __unwindfunclet$?parse@Date@yloader@@AAEXABV?$basic_string@_WU?$char_traits@_W@std@@V?$allocator@_W@2@@std@@W4DateFormat@2@0@Z$18 10021a08 f   misc.obj
 0001:00020a10       __unwindfunclet$?parse@Date@yloader@@AAEXABV?$basic_string@_WU?$char_traits@_W@std@@V?$allocator@_W@2@@std@@W4DateFormat@2@0@Z$23 10021a10 f   misc.obj
 0001:00020a1a       __unwindfunclet$?parse@Date@yloader@@AAEXABV?$basic_string@_WU?$char_traits@_W@std@@V?$allocator@_W@2@@std@@W4DateFormat@2@0@Z$24 10021a1a f   misc.obj
 0001:00020a24       __unwindfunclet$?parse@Date@yloader@@AAEXABV?$basic_string@_WU?$char_traits@_W@std@@V?$allocator@_W@2@@std@@W4DateFormat@2@0@Z$25 10021a24 f   misc.obj
 0001:00020a2e       __unwindfunclet$?parse@Date@yloader@@AAEXABV?$basic_string@_WU?$char_traits@_W@std@@V?$allocator@_W@2@@std@@W4DateFormat@2@0@Z$26 10021a2e f   misc.obj
 0001:00020a38       __unwindfunclet$?parse@Date@yloader@@AAEXABV?$basic_string@_WU?$char_traits@_W@std@@V?$allocator@_W@2@@std@@W4DateFormat@2@0@Z$27 10021a38 f   misc.obj
 0001:00020a42       __unwindfunclet$?parse@Date@yloader@@AAEXABV?$basic_string@_WU?$char_traits@_W@std@@V?$allocator@_W@2@@std@@W4DateFormat@2@0@Z$28 10021a42 f   misc.obj
 0001:00020a4c       __unwindfunclet$?parse@Date@yloader@@AAEXABV?$basic_string@_WU?$char_traits@_W@std@@V?$allocator@_W@2@@std@@W4DateFormat@2@0@Z$29 10021a4c f   misc.obj
 0001:00020a56       __unwindfunclet$?parse@Date@yloader@@AAEXABV?$basic_string@_WU?$char_traits@_W@std@@V?$allocator@_W@2@@std@@W4DateFormat@2@0@Z$30 10021a56 f   misc.obj
 0001:00020a60       __unwindfunclet$?parse@Date@yloader@@AAEXABV?$basic_string@_WU?$char_traits@_W@std@@V?$allocator@_W@2@@std@@W4DateFormat@2@0@Z$31 10021a60 f   misc.obj
 0001:00020a6a       __unwindfunclet$?parse@Date@yloader@@AAEXABV?$basic_string@_WU?$char_traits@_W@std@@V?$allocator@_W@2@@std@@W4DateFormat@2@0@Z$32 10021a6a f   misc.obj
 0001:00020a74       __unwindfunclet$?parse@Date@yloader@@AAEXABV?$basic_string@_WU?$char_traits@_W@std@@V?$allocator@_W@2@@std@@W4DateFormat@2@0@Z$33 10021a74 f   misc.obj
 0001:00020a7e       __unwindfunclet$?parse@Date@yloader@@AAEXABV?$basic_string@_WU?$char_traits@_W@std@@V?$allocator@_W@2@@std@@W4DateFormat@2@0@Z$34 10021a7e f   misc.obj
 0001:00020a88       __unwindfunclet$?parse@Date@yloader@@AAEXABV?$basic_string@_WU?$char_traits@_W@std@@V?$allocator@_W@2@@std@@W4DateFormat@2@0@Z$36 10021a88 f   misc.obj
 0001:00020a90       __unwindfunclet$?parse@Date@yloader@@AAEXABV?$basic_string@_WU?$char_traits@_W@std@@V?$allocator@_W@2@@std@@W4DateFormat@2@0@Z$37 10021a90 f   misc.obj
 0001:00020a98       __unwindfunclet$?parse@Date@yloader@@AAEXABV?$basic_string@_WU?$char_traits@_W@std@@V?$allocator@_W@2@@std@@W4DateFormat@2@0@Z$38 10021a98 f   misc.obj
 0001:00020aa0       __unwindfunclet$?parse@Date@yloader@@AAEXABV?$basic_string@_WU?$char_traits@_W@std@@V?$allocator@_W@2@@std@@W4DateFormat@2@0@Z$39 10021aa0 f   misc.obj
 0001:00020aa8       __unwindfunclet$?parse@Date@yloader@@AAEXABV?$basic_string@_WU?$char_traits@_W@std@@V?$allocator@_W@2@@std@@W4DateFormat@2@0@Z$3 10021aa8 f   misc.obj
 0001:00020ab0       __unwindfunclet$?parse@Date@yloader@@AAEXABV?$basic_string@_WU?$char_traits@_W@std@@V?$allocator@_W@2@@std@@W4DateFormat@2@0@Z$5 10021ab0 f   misc.obj
 0001:00020abd       __ehhandler$?parse@Date@yloader@@AAEXABV?$basic_string@_WU?$char_traits@_W@std@@V?$allocator@_W@2@@std@@W4DateFormat@2@0@Z 10021abd f   misc.obj
 0001:00020af0       __ehhandler$??0?$basic_string@DU?$char_traits@D@std@@V?$allocator@D@2@@std@@QAE@QBD@Z 10021af0 f   misc.obj
 0001:00020af0       __ehhandler$??0?$basic_string@_WU?$char_traits@_W@std@@V?$allocator@_W@2@@std@@QAE@QB_W@Z 10021af0 f   misc.obj
 0001:00020af0       __ehhandler$?do_falsename@?$numpunct@D@std@@MBE?AV?$basic_string@DU?$char_traits@D@std@@V?$allocator@D@2@@2@XZ 10021af0 f   misc.obj
 0001:00020af0       __ehhandler$?do_falsename@?$numpunct@_W@std@@MBE?AV?$basic_string@_WU?$char_traits@_W@std@@V?$allocator@_W@2@@2@XZ 10021af0 f   misc.obj
 0001:00020af0       __ehhandler$?do_grouping@?$numpunct@D@std@@MBE?AV?$basic_string@DU?$char_traits@D@std@@V?$allocator@D@2@@2@XZ 10021af0 f   misc.obj
 0001:00020af0       __ehhandler$?do_grouping@?$numpunct@_W@std@@MBE?AV?$basic_string@DU?$char_traits@D@std@@V?$allocator@D@2@@2@XZ 10021af0 f   misc.obj
 0001:00020af0       __ehhandler$?do_truename@?$numpunct@D@std@@MBE?AV?$basic_string@DU?$char_traits@D@std@@V?$allocator@D@2@@2@XZ 10021af0 f   misc.obj
 0001:00020af0       __ehhandler$?do_truename@?$numpunct@_W@std@@MBE?AV?$basic_string@_WU?$char_traits@_W@std@@V?$allocator@_W@2@@2@XZ 10021af0 f   misc.obj
 0001:00020af0       __ehhandler$?getloc@?$basic_format@_WU?$char_traits@_W@std@@V?$allocator@_W@2@@boost@@QBE?AVlocale@std@@XZ 10021af0 f   misc.obj
 0001:00020af0       __ehhandler$?substr@?$basic_string@_WU?$char_traits@_W@std@@V?$allocator@_W@2@@std@@QBE?AV12@II@Z 10021af0 f   misc.obj
 0001:00020b10       __unwindfunclet$??0DateException@yloader@@QAE@ABV01@@Z$0 10021b10 f   misc.obj
 0001:00020b1d       __ehhandler$??0DateException@yloader@@QAE@ABV01@@Z 10021b1d f   misc.obj
 0001:00020b40       __ehhandler$??8TimeDurationImpl@@UBE_NABVTimeDurationAbstr@yloader@@@Z 10021b40 f   misc.obj
 0001:00020b60       __ehhandler$??9TimeDurationImpl@@UBE_NABVTimeDurationAbstr@yloader@@@Z 10021b60 f   misc.obj
 0001:00020b80       __ehhandler$??OTimeDurationImpl@@UBE_NABVTimeDurationAbstr@yloader@@@Z 10021b80 f   misc.obj
 0001:00020ba0       __ehhandler$??MTimeDurationImpl@@UBE_NABVTimeDurationAbstr@yloader@@@Z 10021ba0 f   misc.obj
 0001:00020bc0       __ehhandler$??PTimeDurationImpl@@UBE_NABVTimeDurationAbstr@yloader@@@Z 10021bc0 f   misc.obj
 0001:00020be0       __ehhandler$??NTimeDurationImpl@@UBE_NABVTimeDurationAbstr@yloader@@@Z 10021be0 f   misc.obj
 0001:00020c00       __ehhandler$??HTimeDurationImpl@@UBE?AV?$shared_ptr@VTimeDurationAbstr@yloader@@@std@@ABVTimeDurationAbstr@yloader@@@Z 10021c00 f   misc.obj
 0001:00020c20       __ehhandler$??GTimeDurationImpl@@UBE?AV?$shared_ptr@VTimeDurationAbstr@yloader@@@std@@ABVTimeDurationAbstr@yloader@@@Z 10021c20 f   misc.obj
 0001:00020c40       __ehhandler$??KTimeDurationImpl@@UAE?AV?$shared_ptr@VTimeDurationAbstr@yloader@@@std@@H@Z 10021c40 f   misc.obj
 0001:00020c60       __ehhandler$??DTimeDurationImpl@@UAE?AV?$shared_ptr@VTimeDurationAbstr@yloader@@@std@@H@Z 10021c60 f   misc.obj
 0001:00020c80       __ehhandler$??ZTimeDurationImpl@@UAE?AV?$shared_ptr@VTimeDurationAbstr@yloader@@@std@@ABVTimeDurationAbstr@yloader@@@Z 10021c80 f   misc.obj
 0001:00020ca0       __ehhandler$??YTimeDurationImpl@@UAE?AV?$shared_ptr@VTimeDurationAbstr@yloader@@@std@@ABVTimeDurationAbstr@yloader@@@Z 10021ca0 f   misc.obj
 0001:00020cc0       __ehhandler$??_0TimeDurationImpl@@UAE?AV?$shared_ptr@VTimeDurationAbstr@yloader@@@std@@H@Z 10021cc0 f   misc.obj
 0001:00020ce0       __ehhandler$??XTimeDurationImpl@@UAE?AV?$shared_ptr@VTimeDurationAbstr@yloader@@@std@@H@Z 10021ce0 f   misc.obj
 0001:00020d00       __ehhandler$??MDateTimeImpl@@UBE_NABVDateTimeAbstr@yloader@@@Z 10021d00 f   misc.obj
 0001:00020d20       __ehhandler$??ODateTimeImpl@@UBE_NABVDateTimeAbstr@yloader@@@Z 10021d20 f   misc.obj
 0001:00020d40       __ehhandler$??PDateTimeImpl@@UBE_NABVDateTimeAbstr@yloader@@@Z 10021d40 f   misc.obj
 0001:00020d60       __ehhandler$??NDateTimeImpl@@UBE_NABVDateTimeAbstr@yloader@@@Z 10021d60 f   misc.obj
 0001:00020d80       __ehhandler$??8DateTimeImpl@@UBE_NABVDateTimeAbstr@yloader@@@Z 10021d80 f   misc.obj
 0001:00020da0       __ehhandler$??9DateTimeImpl@@UBE_NABVDateTimeAbstr@yloader@@@Z 10021da0 f   misc.obj
 0001:00020dc0       __unwindfunclet$?date@DateTimeImpl@@UBE?AV?$shared_ptr@VDateAbstr@yloader@@@std@@XZ$0 10021dc0 f   misc.obj
 0001:00020dcf       __unwindfunclet$?date@DateTimeImpl@@UBE?AV?$shared_ptr@VDateAbstr@yloader@@@std@@XZ$2 10021dcf f   misc.obj
 0001:00020ddc       __ehhandler$?date@DateTimeImpl@@UBE?AV?$shared_ptr@VDateAbstr@yloader@@@std@@XZ 10021ddc f   misc.obj
 0001:00020e00       __unwindfunclet$?time_of_day@DateTimeImpl@@UBE?AV?$shared_ptr@VTimeDurationAbstr@yloader@@@std@@XZ$2 10021e00 f   misc.obj
 0001:00020e0d       __ehhandler$?time_of_day@DateTimeImpl@@UBE?AV?$shared_ptr@VTimeDurationAbstr@yloader@@@std@@XZ 10021e0d f   misc.obj
 0001:00020e30       __ehhandler$??GDateTimeImpl@@UBE?AV?$shared_ptr@VTimeDurationAbstr@yloader@@@std@@ABVDateTimeAbstr@yloader@@@Z 10021e30 f   misc.obj
 0001:00020e50       __ehhandler$??HDateTimeImpl@@UBE?AV?$shared_ptr@VDateTimeAbstr@yloader@@@std@@ABVDateDurationAbstr@yloader@@@Z 10021e50 f   misc.obj
 0001:00020e70       __ehhandler$??YDateTimeImpl@@UAE?AV?$shared_ptr@VDateTimeAbstr@yloader@@@std@@ABVDateDurationAbstr@yloader@@@Z 10021e70 f   misc.obj
 0001:00020e90       __ehhandler$??GDateTimeImpl@@UBE?AV?$shared_ptr@VDateTimeAbstr@yloader@@@std@@ABVDateDurationAbstr@yloader@@@Z 10021e90 f   misc.obj
 0001:00020eb0       __ehhandler$??ZDateTimeImpl@@UAE?AV?$shared_ptr@VDateTimeAbstr@yloader@@@std@@ABVDateDurationAbstr@yloader@@@Z 10021eb0 f   misc.obj
 0001:00020ed0       __ehhandler$??HDateTimeImpl@@UBE?AV?$shared_ptr@VDateTimeAbstr@yloader@@@std@@ABVTimeDurationAbstr@yloader@@@Z 10021ed0 f   misc.obj
 0001:00020ef0       __ehhandler$??YDateTimeImpl@@UAE?AV?$shared_ptr@VDateTimeAbstr@yloader@@@std@@ABVTimeDurationAbstr@yloader@@@Z 10021ef0 f   misc.obj
 0001:00020f10       __ehhandler$??GDateTimeImpl@@UBE?AV?$shared_ptr@VDateTimeAbstr@yloader@@@std@@ABVTimeDurationAbstr@yloader@@@Z 10021f10 f   misc.obj
 0001:00020f30       __ehhandler$??ZDateTimeImpl@@UAE?AV?$shared_ptr@VDateTimeAbstr@yloader@@@std@@ABVTimeDurationAbstr@yloader@@@Z 10021f30 f   misc.obj
 0001:00020f50       __unwindfunclet$?localTimeSec@DateTimeAbstr@yloader@@SA?AV?$shared_ptr@VDateTimeAbstr@yloader@@@std@@XZ$2 10021f50 f   misc.obj
 0001:00020f50       __unwindfunclet$?universalTime@DateTimeAbstr@yloader@@SA?AV?$shared_ptr@VDateTimeAbstr@yloader@@@std@@XZ$2 10021f50 f   misc.obj
 0001:00020f5d       __ehhandler$?localTimeSec@DateTimeAbstr@yloader@@SA?AV?$shared_ptr@VDateTimeAbstr@yloader@@@std@@XZ 10021f5d f   misc.obj
 0001:00020f5d       __ehhandler$?universalTime@DateTimeAbstr@yloader@@SA?AV?$shared_ptr@VDateTimeAbstr@yloader@@@std@@XZ 10021f5d f   misc.obj
 0001:00020f80       __unwindfunclet$?makeFromDelimitedString@DateTimeAbstr@yloader@@SA?AV?$shared_ptr@VDateTimeAbstr@yloader@@@std@@ABV?$basic_string@_WU?$char_traits@_W@std@@V?$allocator@_W@2@@4@@Z$0 10021f80 f   misc.obj
 0001:00020f80       __unwindfunclet$?makeFromIsoExtendedString@DateTimeAbstr@yloader@@SA?AV?$shared_ptr@VDateTimeAbstr@yloader@@@std@@ABV?$basic_string@_WU?$char_traits@_W@std@@V?$allocator@_W@2@@4@@Z$0 10021f80 f   misc.obj
 0001:00020f80       __unwindfunclet$?makeFromIsoString@DateTimeAbstr@yloader@@SA?AV?$shared_ptr@VDateTimeAbstr@yloader@@@std@@ABV?$basic_string@_WU?$char_traits@_W@std@@V?$allocator@_W@2@@4@@Z$0 10021f80 f   misc.obj
 0001:00020f8d       __ehhandler$?makeFromDelimitedString@DateTimeAbstr@yloader@@SA?AV?$shared_ptr@VDateTimeAbstr@yloader@@@std@@ABV?$basic_string@_WU?$char_traits@_W@std@@V?$allocator@_W@2@@4@@Z 10021f8d f   misc.obj
 0001:00020f8d       __ehhandler$?makeFromIsoExtendedString@DateTimeAbstr@yloader@@SA?AV?$shared_ptr@VDateTimeAbstr@yloader@@@std@@ABV?$basic_string@_WU?$char_traits@_W@std@@V?$allocator@_W@2@@4@@Z 10021f8d f   misc.obj
 0001:00020f8d       __ehhandler$?makeFromIsoString@DateTimeAbstr@yloader@@SA?AV?$shared_ptr@VDateTimeAbstr@yloader@@@std@@ABV?$basic_string@_WU?$char_traits@_W@std@@V?$allocator@_W@2@@4@@Z 10021f8d f   misc.obj
 0001:00020fc0       __unwindfunclet$?makeFromNonDelimitedString@DateTimeAbstr@yloader@@SA?AV?$shared_ptr@VDateTimeAbstr@yloader@@@std@@ABV?$basic_string@_WU?$char_traits@_W@std@@V?$allocator@_W@2@@4@@Z$9 10021fc0 f   misc.obj
 0001:00020fcf       __unwindfunclet$?makeFromNonDelimitedString@DateTimeAbstr@yloader@@SA?AV?$shared_ptr@VDateTimeAbstr@yloader@@@std@@ABV?$basic_string@_WU?$char_traits@_W@std@@V?$allocator@_W@2@@4@@Z$12 10021fcf f   misc.obj
 0001:00020fd7       __unwindfunclet$?makeFromNonDelimitedString@DateTimeAbstr@yloader@@SA?AV?$shared_ptr@VDateTimeAbstr@yloader@@@std@@ABV?$basic_string@_WU?$char_traits@_W@std@@V?$allocator@_W@2@@4@@Z$3 10021fd7 f   misc.obj
 0001:00020fe4       __ehhandler$?makeFromNonDelimitedString@DateTimeAbstr@yloader@@SA?AV?$shared_ptr@VDateTimeAbstr@yloader@@@std@@ABV?$basic_string@_WU?$char_traits@_W@std@@V?$allocator@_W@2@@4@@Z 10021fe4 f   misc.obj
 0001:00021010       __unwindfunclet$?make@DateAbstr@yloader@@SA?AV?$shared_ptr@VDateAbstr@yloader@@@std@@III@Z$0 10022010 f   misc.obj
 0001:0002101f       __unwindfunclet$?make@DateAbstr@yloader@@SA?AV?$shared_ptr@VDateAbstr@yloader@@@std@@III@Z$2 1002201f f   misc.obj
 0001:00021027       __unwindfunclet$?make@DateAbstr@yloader@@SA?AV?$shared_ptr@VDateAbstr@yloader@@@std@@III@Z$3 10022027 f   misc.obj
 0001:00021034       __ehhandler$?make@DateAbstr@yloader@@SA?AV?$shared_ptr@VDateAbstr@yloader@@@std@@III@Z 10022034 f   misc.obj
 0001:00021060       __ehhandler$?make@DateTimeAbstr@yloader@@SA?AV?$shared_ptr@VDateTimeAbstr@yloader@@@std@@ABVDateAbstr@2@ABVTimeDurationAbstr@2@@Z 10022060 f   misc.obj
 0001:00021080       __unwindfunclet$?make@DateTimeAbstr@yloader@@SA?AV?$shared_ptr@VDateTimeAbstr@yloader@@@std@@XZ$0 10022080 f   misc.obj
 0001:0002108f       __unwindfunclet$?make@DateTimeAbstr@yloader@@SA?AV?$shared_ptr@VDateTimeAbstr@yloader@@@std@@XZ$2 1002208f f   misc.obj
 0001:00021097       __unwindfunclet$?make@DateTimeAbstr@yloader@@SA?AV?$shared_ptr@VDateTimeAbstr@yloader@@@std@@XZ$3 10022097 f   misc.obj
 0001:000210a4       __ehhandler$?make@DateTimeAbstr@yloader@@SA?AV?$shared_ptr@VDateTimeAbstr@yloader@@@std@@XZ 100220a4 f   misc.obj
 0001:000210d0       __ehhandler$?make@DateTimeAbstr@yloader@@SA?AV?$shared_ptr@VDateTimeAbstr@yloader@@@std@@ABVDateAbstr@2@@Z 100220d0 f   misc.obj
 0001:000210f0       __ehhandler$?make@DateTimeAbstr@yloader@@SA?AV?$shared_ptr@VDateTimeAbstr@yloader@@@std@@ABV12@@Z 100220f0 f   misc.obj
 0001:00021110       __ehhandler$?make@DateAbstr@yloader@@SA?AV?$shared_ptr@VDateAbstr@yloader@@@std@@ABV12@@Z 10022110 f   misc.obj
 0001:00021130       __ehhandler$?make@TimeDurationAbstr@yloader@@SA?AV?$shared_ptr@VTimeDurationAbstr@yloader@@@std@@ABV12@@Z 10022130 f   misc.obj
 0001:00021150       __unwindfunclet$?parse@Version@yloader@@AAEXPB_W@Z$2 10022150 f   misc.obj
 0001:00021158       __unwindfunclet$?parse@Version@yloader@@AAEXPB_W@Z$3 10022158 f   misc.obj
 0001:00021160       __unwindfunclet$?parse@Version@yloader@@AAEXPB_W@Z$4 10022160 f   misc.obj
 0001:0002116b       __unwindfunclet$?parse@Version@yloader@@AAEXPB_W@Z$5 1002216b f   misc.obj
 0001:00021173       __unwindfunclet$?parse@Version@yloader@@AAEXPB_W@Z$6 10022173 f   misc.obj
 0001:0002117e       __unwindfunclet$?parse@Version@yloader@@AAEXPB_W@Z$7 1002217e f   misc.obj
 0001:00021189       __unwindfunclet$?parse@Version@yloader@@AAEXPB_W@Z$8 10022189 f   misc.obj
 0001:00021194       __unwindfunclet$?parse@Version@yloader@@AAEXPB_W@Z$9 10022194 f   misc.obj
 0001:0002119f       __unwindfunclet$?parse@Version@yloader@@AAEXPB_W@Z$10 1002219f f   misc.obj
 0001:000211af       __ehhandler$?parse@Version@yloader@@AAEXPB_W@Z 100221af f   misc.obj
 0001:000211e0       __unwindfunclet$?cmdLineSplitter@yloader@@YA?AV?$vector@V?$basic_string@DU?$char_traits@D@std@@V?$allocator@D@2@@std@@V?$allocator@V?$basic_string@DU?$char_traits@D@std@@V?$allocator@D@2@@std@@@2@@std@@ABV?$basic_string@_WU?$char_traits@_W@std@@V?$allocator@_W@2@@3@@Z$0 100221e0 f   misc.obj
 0001:000211f9       __unwindfunclet$?cmdLineSplitter@yloader@@YA?AV?$vector@V?$basic_string@DU?$char_traits@D@std@@V?$allocator@D@2@@std@@V?$allocator@V?$basic_string@DU?$char_traits@D@std@@V?$allocator@D@2@@std@@@2@@std@@ABV?$basic_string@_WU?$char_traits@_W@std@@V?$allocator@_W@2@@3@@Z$1 100221f9 f   misc.obj
 0001:00021201       __unwindfunclet$?cmdLineSplitter@yloader@@YA?AV?$vector@V?$basic_string@DU?$char_traits@D@std@@V?$allocator@D@2@@std@@V?$allocator@V?$basic_string@DU?$char_traits@D@std@@V?$allocator@D@2@@std@@@2@@std@@ABV?$basic_string@_WU?$char_traits@_W@std@@V?$allocator@_W@2@@3@@Z$2 10022201 f   misc.obj
 0001:00021209       __unwindfunclet$?cmdLineSplitter@yloader@@YA?AV?$vector@V?$basic_string@DU?$char_traits@D@std@@V?$allocator@D@2@@std@@V?$allocator@V?$basic_string@DU?$char_traits@D@std@@V?$allocator@D@2@@std@@@2@@std@@ABV?$basic_string@_WU?$char_traits@_W@std@@V?$allocator@_W@2@@3@@Z$3 10022209 f   misc.obj
 0001:00021211       __unwindfunclet$?cmdLineSplitter@yloader@@YA?AV?$vector@V?$basic_string@DU?$char_traits@D@std@@V?$allocator@D@2@@std@@V?$allocator@V?$basic_string@DU?$char_traits@D@std@@V?$allocator@D@2@@std@@@2@@std@@ABV?$basic_string@_WU?$char_traits@_W@std@@V?$allocator@_W@2@@3@@Z$4 10022211 f   misc.obj
 0001:00021219       __unwindfunclet$?cmdLineSplitter@yloader@@YA?AV?$vector@V?$basic_string@DU?$char_traits@D@std@@V?$allocator@D@2@@std@@V?$allocator@V?$basic_string@DU?$char_traits@D@std@@V?$allocator@D@2@@std@@@2@@std@@ABV?$basic_string@_WU?$char_traits@_W@std@@V?$allocator@_W@2@@3@@Z$5 10022219 f   misc.obj
 0001:00021226       __ehhandler$?cmdLineSplitter@yloader@@YA?AV?$vector@V?$basic_string@DU?$char_traits@D@std@@V?$allocator@D@2@@std@@V?$allocator@V?$basic_string@DU?$char_traits@D@std@@V?$allocator@D@2@@std@@@2@@std@@ABV?$basic_string@_WU?$char_traits@_W@std@@V?$allocator@_W@2@@3@@Z 10022226 f   misc.obj
 0001:00021250       __unwindfunclet$?toString@Date@yloader@@QBE?AV?$basic_string@_WU?$char_traits@_W@std@@V?$allocator@_W@2@@std@@W4DateFormat@2@ABV34@@Z$5 10022250 f   misc.obj
 0001:00021258       __unwindfunclet$?toString@Date@yloader@@QBE?AV?$basic_string@_WU?$char_traits@_W@std@@V?$allocator@_W@2@@std@@W4DateFormat@2@ABV34@@Z$13 10022258 f   misc.obj
 0001:00021260       __unwindfunclet$?toString@Date@yloader@@QBE?AV?$basic_string@_WU?$char_traits@_W@std@@V?$allocator@_W@2@@std@@W4DateFormat@2@ABV34@@Z$14 10022260 f   misc.obj
 0001:0002126b       __unwindfunclet$?toString@Date@yloader@@QBE?AV?$basic_string@_WU?$char_traits@_W@std@@V?$allocator@_W@2@@std@@W4DateFormat@2@ABV34@@Z$3 1002226b f   misc.obj
 0001:00021273       __unwindfunclet$?toString@Date@yloader@@QBE?AV?$basic_string@_WU?$char_traits@_W@std@@V?$allocator@_W@2@@std@@W4DateFormat@2@ABV34@@Z$4 10022273 f   misc.obj
 0001:0002127b       __unwindfunclet$?toString@Date@yloader@@QBE?AV?$basic_string@_WU?$char_traits@_W@std@@V?$allocator@_W@2@@std@@W4DateFormat@2@ABV34@@Z$1 1002227b f   misc.obj
 0001:00021283       __unwindfunclet$?toString@Date@yloader@@QBE?AV?$basic_string@_WU?$char_traits@_W@std@@V?$allocator@_W@2@@std@@W4DateFormat@2@ABV34@@Z$2 10022283 f   misc.obj
 0001:00021290       __ehhandler$?toString@Date@yloader@@QBE?AV?$basic_string@_WU?$char_traits@_W@std@@V?$allocator@_W@2@@std@@W4DateFormat@2@ABV34@@Z 10022290 f   misc.obj
 0001:000212c0       __unwindfunclet$??0?$CTokenizer@_WV?$CIsFromString@_W@@@@QAE@ABV?$basic_string@_WU?$char_traits@_W@std@@V?$allocator@_W@2@@std@@ABV?$CIsFromString@_W@@V?$optional@I@2@@Z$0 100222c0 f   misc.obj
 0001:000212c8       __unwindfunclet$??0?$CTokenizer@_WV?$CIsFromString@_W@@@@QAE@ABV?$basic_string@_WU?$char_traits@_W@std@@V?$allocator@_W@2@@std@@ABV?$CIsFromString@_W@@V?$optional@I@2@@Z$2 100222c8 f   misc.obj
 0001:000212d0       __unwindfunclet$??0?$CTokenizer@_WV?$CIsFromString@_W@@@@QAE@ABV?$basic_string@_WU?$char_traits@_W@std@@V?$allocator@_W@2@@std@@ABV?$CIsFromString@_W@@V?$optional@I@2@@Z$3 100222d0 f   misc.obj
 0001:000212dd       __ehhandler$??0?$CTokenizer@_WV?$CIsFromString@_W@@@@QAE@ABV?$basic_string@_WU?$char_traits@_W@std@@V?$allocator@_W@2@@std@@ABV?$CIsFromString@_W@@V?$optional@I@2@@Z 100222dd f   misc.obj
 0001:00021310       __unwindfunclet$?str@?$basic_ostringstream@_WU?$char_traits@_W@std@@V?$allocator@_W@2@@std@@QGBE?AV?$basic_string@_WU?$char_traits@_W@std@@V?$allocator@_W@2@@2@XZ$1 10022310 f   misc.obj
 0001:0002132e       __ehhandler$?str@?$basic_ostringstream@_WU?$char_traits@_W@std@@V?$allocator@_W@2@@std@@QGBE?AV?$basic_string@_WU?$char_traits@_W@std@@V?$allocator@_W@2@@2@XZ 1002232e f   misc.obj
 0001:00021350       __unwindfunclet$??0?$basic_ostringstream@_WU?$char_traits@_W@std@@V?$allocator@_W@2@@std@@QAE@XZ$0 10022350 f   misc.obj
 0001:0002136d       __unwindfunclet$??0?$basic_ostringstream@_WU?$char_traits@_W@std@@V?$allocator@_W@2@@std@@QAE@XZ$1 1002236d f   misc.obj
 0001:0002137e       __ehhandler$??0?$basic_ostringstream@_WU?$char_traits@_W@std@@V?$allocator@_W@2@@std@@QAE@XZ 1002237e f   misc.obj
 0001:000213a0       __ehhandler$??1?$refcount_ptr@Uerror_info_container@exception_detail@boost@@@exception_detail@boost@@QAE@XZ 100223a0 f   misc.obj
 0001:000213a0       __ehhandler$??1?$intrusive_ptr@Uthread_data_base@detail@boost@@@boost@@QAE@XZ 100223a0 f   libboost_thread-vc142-mt-x32-1_80:thread.obj
 0001:000213c0       __ehhandler$??4?$basic_string@DU?$char_traits@D@std@@V?$allocator@D@2@@std@@QAEAAV01@$$QAV01@@Z 100223c0 f   misc.obj
 0001:000213e0       __ehhandler$??1_Sentry_base@?$basic_ostream@_WU?$char_traits@_W@std@@@std@@QAE@XZ 100223e0 f   misc.obj
 0001:00021400       __ehhandler$??$to_iso_string_type@_W@gregorian@boost@@YA?AV?$basic_string@_WU?$char_traits@_W@std@@V?$allocator@_W@2@@std@@ABVdate@01@@Z 10022400 f   misc.obj
 0001:00021400       __ehhandler$??$to_simple_string_type@_W@gregorian@boost@@YA?AV?$basic_string@_WU?$char_traits@_W@std@@V?$allocator@_W@2@@std@@ABVdate@01@@Z 10022400 f   misc.obj
 0001:00021420       __unwindfunclet$??$tolower@D@std@@YADDABVlocale@0@@Z$0 10022420 f   misc.obj
 0001:00021429       __unwindfunclet$??$tolower@D@std@@YADDABVlocale@0@@Z$1 10022429 f   misc.obj
 0001:00021436       __ehhandler$??$tolower@D@std@@YADDABVlocale@0@@Z 10022436 f   misc.obj
 0001:00021460       __unwindfunclet$??$parse_date@Vdate@gregorian@boost@@@date_time@boost@@YA?AVdate@gregorian@1@ABV?$basic_string@DU?$char_traits@D@std@@V?$allocator@D@2@@std@@H@Z$0 10022460 f   misc.obj
 0001:00021468       __unwindfunclet$??$parse_date@Vdate@gregorian@boost@@@date_time@boost@@YA?AVdate@gregorian@1@ABV?$basic_string@DU?$char_traits@D@std@@V?$allocator@D@2@@std@@H@Z$9 10022468 f   misc.obj
 0001:00021470       __unwindfunclet$??$parse_date@Vdate@gregorian@boost@@@date_time@boost@@YA?AVdate@gregorian@1@ABV?$basic_string@DU?$char_traits@D@std@@V?$allocator@D@2@@std@@H@Z$10 10022470 f   misc.obj
 0001:00021478       __unwindfunclet$??$parse_date@Vdate@gregorian@boost@@@date_time@boost@@YA?AVdate@gregorian@1@ABV?$basic_string@DU?$char_traits@D@std@@V?$allocator@D@2@@std@@H@Z$1 10022478 f   misc.obj
 0001:00021480       __unwindfunclet$??$parse_date@Vdate@gregorian@boost@@@date_time@boost@@YA?AVdate@gregorian@1@ABV?$basic_string@DU?$char_traits@D@std@@V?$allocator@D@2@@std@@H@Z$2 10022480 f   misc.obj
 0001:0002148b       __unwindfunclet$??$parse_date@Vdate@gregorian@boost@@@date_time@boost@@YA?AVdate@gregorian@1@ABV?$basic_string@DU?$char_traits@D@std@@V?$allocator@D@2@@std@@H@Z$20 1002248b f   misc.obj
 0001:00021496       __unwindfunclet$??$parse_date@Vdate@gregorian@boost@@@date_time@boost@@YA?AVdate@gregorian@1@ABV?$basic_string@DU?$char_traits@D@std@@V?$allocator@D@2@@std@@H@Z$3 10022496 f   misc.obj
 0001:000214a1       __unwindfunclet$??$parse_date@Vdate@gregorian@boost@@@date_time@boost@@YA?AVdate@gregorian@1@ABV?$basic_string@DU?$char_traits@D@std@@V?$allocator@D@2@@std@@H@Z$24 100224a1 f   misc.obj
 0001:000214ae       __ehhandler$??$parse_date@Vdate@gregorian@boost@@@date_time@boost@@YA?AVdate@gregorian@1@ABV?$basic_string@DU?$char_traits@D@std@@V?$allocator@D@2@@std@@H@Z 100224ae f   misc.obj
 0001:000214e0       __unwindfunclet$??$parse_undelimited_date@Vdate@gregorian@boost@@@date_time@boost@@YA?AVdate@gregorian@1@ABV?$basic_string@DU?$char_traits@D@std@@V?$allocator@D@2@@std@@@Z$0 100224e0 f   misc.obj
 0001:000214e8       __unwindfunclet$??$parse_undelimited_date@Vdate@gregorian@boost@@@date_time@boost@@YA?AVdate@gregorian@1@ABV?$basic_string@DU?$char_traits@D@std@@V?$allocator@D@2@@std@@@Z$1 100224e8 f   misc.obj
 0001:000214f0       __unwindfunclet$??$parse_undelimited_date@Vdate@gregorian@boost@@@date_time@boost@@YA?AVdate@gregorian@1@ABV?$basic_string@DU?$char_traits@D@std@@V?$allocator@D@2@@std@@@Z$2 100224f0 f   misc.obj
 0001:000214fd       __ehhandler$??$parse_undelimited_date@Vdate@gregorian@boost@@@date_time@boost@@YA?AVdate@gregorian@1@ABV?$basic_string@DU?$char_traits@D@std@@V?$allocator@D@2@@std@@@Z 100224fd f   misc.obj
 0001:00021530       __unwindfunclet$??$to_iso_string_type@_W@posix_time@boost@@YA?AV?$basic_string@_WU?$char_traits@_W@std@@V?$allocator@_W@2@@std@@Vtime_duration@01@@Z$0 10022530 f   misc.obj
 0001:00021530       __unwindfunclet$??$to_simple_string_type@_W@posix_time@boost@@YA?AV?$basic_string@_WU?$char_traits@_W@std@@V?$allocator@_W@2@@std@@Vtime_duration@01@@Z$0 10022530 f   misc.obj
 0001:00021540       __ehhandler$??$to_iso_string_type@_W@posix_time@boost@@YA?AV?$basic_string@_WU?$char_traits@_W@std@@V?$allocator@_W@2@@std@@Vtime_duration@01@@Z 10022540 f   misc.obj
 0001:00021540       __ehhandler$??$to_simple_string_type@_W@posix_time@boost@@YA?AV?$basic_string@_WU?$char_traits@_W@std@@V?$allocator@_W@2@@std@@Vtime_duration@01@@Z 10022540 f   misc.obj
 0001:00021560       __unwindfunclet$??$to_iso_string_type@_W@posix_time@boost@@YA?AV?$basic_string@_WU?$char_traits@_W@std@@V?$allocator@_W@2@@std@@Vptime@01@@Z$0 10022560 f   misc.obj
 0001:00021560       __unwindfunclet$??$to_simple_string_type@_W@posix_time@boost@@YA?AV?$basic_string@_WU?$char_traits@_W@std@@V?$allocator@_W@2@@std@@Vptime@01@@Z$0 10022560 f   misc.obj
 0001:00021568       __unwindfunclet$??$to_iso_string_type@_W@posix_time@boost@@YA?AV?$basic_string@_WU?$char_traits@_W@std@@V?$allocator@_W@2@@std@@Vptime@01@@Z$1 10022568 f   misc.obj
 0001:00021568       __unwindfunclet$??$to_simple_string_type@_W@posix_time@boost@@YA?AV?$basic_string@_WU?$char_traits@_W@std@@V?$allocator@_W@2@@std@@Vptime@01@@Z$1 10022568 f   misc.obj
 0001:00021570       __unwindfunclet$??$to_iso_string_type@_W@posix_time@boost@@YA?AV?$basic_string@_WU?$char_traits@_W@std@@V?$allocator@_W@2@@std@@Vptime@01@@Z$2 10022570 f   misc.obj
 0001:00021570       __unwindfunclet$??$to_simple_string_type@_W@posix_time@boost@@YA?AV?$basic_string@_WU?$char_traits@_W@std@@V?$allocator@_W@2@@std@@Vptime@01@@Z$2 10022570 f   misc.obj
 0001:0002157d       __ehhandler$??$to_iso_string_type@_W@posix_time@boost@@YA?AV?$basic_string@_WU?$char_traits@_W@std@@V?$allocator@_W@2@@std@@Vptime@01@@Z 1002257d f   misc.obj
 0001:0002157d       __ehhandler$??$to_simple_string_type@_W@posix_time@boost@@YA?AV?$basic_string@_WU?$char_traits@_W@std@@V?$allocator@_W@2@@std@@Vptime@01@@Z 1002257d f   misc.obj
 0001:000215b0       __unwindfunclet$??$parse_delimited_time@Vptime@posix_time@boost@@@date_time@boost@@YA?AVptime@posix_time@1@ABV?$basic_string@DU?$char_traits@D@std@@V?$allocator@D@2@@std@@D@Z$0 100225b0 f   misc.obj
 0001:000215b8       __unwindfunclet$??$parse_delimited_time@Vptime@posix_time@boost@@@date_time@boost@@YA?AVptime@posix_time@1@ABV?$basic_string@DU?$char_traits@D@std@@V?$allocator@D@2@@std@@D@Z$1 100225b8 f   misc.obj
 0001:000215c5       __ehhandler$??$parse_delimited_time@Vptime@posix_time@boost@@@date_time@boost@@YA?AVptime@posix_time@1@ABV?$basic_string@DU?$char_traits@D@std@@V?$allocator@D@2@@std@@D@Z 100225c5 f   misc.obj
 0001:000215f0       __unwindfunclet$??$parse_iso_time@Vptime@posix_time@boost@@@date_time@boost@@YA?AVptime@posix_time@1@ABV?$basic_string@DU?$char_traits@D@std@@V?$allocator@D@2@@std@@D@Z$0 100225f0 f   misc.obj
 0001:000215f8       __unwindfunclet$??$parse_iso_time@Vptime@posix_time@boost@@@date_time@boost@@YA?AVptime@posix_time@1@ABV?$basic_string@DU?$char_traits@D@std@@V?$allocator@D@2@@std@@D@Z$1 100225f8 f   misc.obj
 0001:00021600       __unwindfunclet$??$parse_iso_time@Vptime@posix_time@boost@@@date_time@boost@@YA?AVptime@posix_time@1@ABV?$basic_string@DU?$char_traits@D@std@@V?$allocator@D@2@@std@@D@Z$9 10022600 f   misc.obj
 0001:0002161a       __unwindfunclet$??$parse_iso_time@Vptime@posix_time@boost@@@date_time@boost@@YA?AVptime@posix_time@1@ABV?$basic_string@DU?$char_traits@D@std@@V?$allocator@D@2@@std@@D@Z$10 1002261a f   misc.obj
 0001:00021626       __unwindfunclet$??$parse_iso_time@Vptime@posix_time@boost@@@date_time@boost@@YA?AVptime@posix_time@1@ABV?$basic_string@DU?$char_traits@D@std@@V?$allocator@D@2@@std@@D@Z$12 10022626 f   misc.obj
 0001:0002162f       __unwindfunclet$??$parse_iso_time@Vptime@posix_time@boost@@@date_time@boost@@YA?AVptime@posix_time@1@ABV?$basic_string@DU?$char_traits@D@std@@V?$allocator@D@2@@std@@D@Z$2 1002262f f   misc.obj
 0001:0002163a       __unwindfunclet$??$parse_iso_time@Vptime@posix_time@boost@@@date_time@boost@@YA?AVptime@posix_time@1@ABV?$basic_string@DU?$char_traits@D@std@@V?$allocator@D@2@@std@@D@Z$3 1002263a f   misc.obj
 0001:00021642       __unwindfunclet$??$parse_iso_time@Vptime@posix_time@boost@@@date_time@boost@@YA?AVptime@posix_time@1@ABV?$basic_string@DU?$char_traits@D@std@@V?$allocator@D@2@@std@@D@Z$4 10022642 f   misc.obj
 0001:0002164f       __ehhandler$??$parse_iso_time@Vptime@posix_time@boost@@@date_time@boost@@YA?AVptime@posix_time@1@ABV?$basic_string@DU?$char_traits@D@std@@V?$allocator@D@2@@std@@D@Z 1002264f f   misc.obj
 0001:00021680       __ehhandler$??$?H_WU?$char_traits@_W@std@@V?$allocator@_W@1@@std@@YA?AV?$basic_string@_WU?$char_traits@_W@std@@V?$allocator@_W@2@@0@$$QAV10@QB_W@Z 10022680 f   misc.obj
 0001:00021680       __ehhandler$??$?H_WU?$char_traits@_W@std@@V?$allocator@_W@1@@std@@YA?AV?$basic_string@_WU?$char_traits@_W@std@@V?$allocator@_W@2@@0@$$QAV10@ABV10@@Z 10022680 f   namevalue.obj
 0001:000216a0       __unwindfunclet$??$?6_WU?$char_traits@_W@std@@@std@@YAAAV?$basic_ostream@_WU?$char_traits@_W@std@@@0@AAV10@PB_W@Z$3 100226a0 f   misc.obj
 0001:000216a8       __unwindfunclet$??$?6_WU?$char_traits@_W@std@@@std@@YAAAV?$basic_ostream@_WU?$char_traits@_W@std@@@0@AAV10@PB_W@Z$2 100226a8 f   misc.obj
 0001:000216b5       __ehhandler$??$?6_WU?$char_traits@_W@std@@@std@@YAAAV?$basic_ostream@_WU?$char_traits@_W@std@@@0@AAV10@PB_W@Z 100226b5 f   misc.obj
 0001:000216e0       __unwindfunclet$??$?6_WU?$char_traits@_W@std@@@std@@YAAAV?$basic_ostream@_WU?$char_traits@_W@std@@@0@AAV10@_W@Z$3 100226e0 f   misc.obj
 0001:000216e8       __unwindfunclet$??$?6_WU?$char_traits@_W@std@@@std@@YAAAV?$basic_ostream@_WU?$char_traits@_W@std@@@0@AAV10@_W@Z$2 100226e8 f   misc.obj
 0001:000216f5       __ehhandler$??$?6_WU?$char_traits@_W@std@@@std@@YAAAV?$basic_ostream@_WU?$char_traits@_W@std@@@0@AAV10@_W@Z 100226f5 f   misc.obj
 0001:00021720       __unwindfunclet$??$format@V?$basic_string@_WU?$char_traits@_W@std@@V?$allocator@_W@2@@std@@@yloader@@YA?AV?$basic_string@_WU?$char_traits@_W@std@@V?$allocator@_W@2@@std@@ABV12@V12@@Z$0 10022720 f   misc.obj
 0001:0002172b       __unwindfunclet$??$format@V?$basic_string@_WU?$char_traits@_W@std@@V?$allocator@_W@2@@std@@@yloader@@YA?AV?$basic_string@_WU?$char_traits@_W@std@@V?$allocator@_W@2@@std@@ABV12@V12@@Z$1 1002272b f   misc.obj
 0001:00021738       __ehhandler$??$format@V?$basic_string@_WU?$char_traits@_W@std@@V?$allocator@_W@2@@std@@@yloader@@YA?AV?$basic_string@_WU?$char_traits@_W@std@@V?$allocator@_W@2@@std@@ABV12@V12@@Z 10022738 f   misc.obj
 0001:00021770       __ehhandler$??$_Emplace_reallocate@V?$basic_string@DU?$char_traits@D@std@@V?$allocator@D@2@@std@@@?$vector@V?$basic_string@DU?$char_traits@D@std@@V?$allocator@D@2@@std@@V?$allocator@V?$basic_string@DU?$char_traits@D@std@@V?$allocator@D@2@@std@@@2@@std@@QAEPAV?$basic_string@DU?$char_traits@D@std@@V?$allocator@D@2@@1@QAV21@$$QAV21@@Z 10022770 f   misc.obj
 0001:00021770       __ehhandler$??$_Emplace_reallocate@V?$basic_string@_WU?$char_traits@_W@std@@V?$allocator@_W@2@@std@@@?$vector@V?$basic_string@_WU?$char_traits@_W@std@@V?$allocator@_W@2@@std@@V?$allocator@V?$basic_string@_WU?$char_traits@_W@std@@V?$allocator@_W@2@@std@@@2@@std@@QAEPAV?$basic_string@_WU?$char_traits@_W@std@@V?$allocator@_W@2@@1@QAV21@$$QAV21@@Z 10022770 f   misc.obj
 0001:00021790       __unwindfunclet$??$use_facet@V?$ctype@_W@std@@@std@@YAABV?$ctype@_W@0@ABVlocale@0@@Z$0 10022790 f   misc.obj
 0001:00021799       __unwindfunclet$??$use_facet@V?$ctype@_W@std@@@std@@YAABV?$ctype@_W@0@ABVlocale@0@@Z$1 10022799 f   misc.obj
 0001:000217a6       __ehhandler$??$use_facet@V?$ctype@_W@std@@@std@@YAABV?$ctype@_W@0@ABVlocale@0@@Z 100227a6 f   misc.obj
 0001:000217d0       __unwindfunclet$??$use_facet@V?$numpunct@D@std@@@std@@YAABV?$numpunct@D@0@ABVlocale@0@@Z$0 100227d0 f   misc.obj
 0001:000217d9       __unwindfunclet$??$use_facet@V?$numpunct@D@std@@@std@@YAABV?$numpunct@D@0@ABVlocale@0@@Z$1 100227d9 f   misc.obj
 0001:000217e6       __ehhandler$??$use_facet@V?$numpunct@D@std@@@std@@YAABV?$numpunct@D@0@ABVlocale@0@@Z 100227e6 f   misc.obj
 0001:00021810       __unwindfunclet$??0?$wrapexcept@Ubad_day_of_month@gregorian@boost@@@boost@@QAE@ABU01@@Z$0 10022810 f   misc.obj
 0001:00021810       __unwindfunclet$??0?$wrapexcept@Ubad_month@gregorian@boost@@@boost@@QAE@ABU01@@Z$0 10022810 f   misc.obj
 0001:00021810       __unwindfunclet$??0?$wrapexcept@Ubad_year@gregorian@boost@@@boost@@QAE@ABU01@@Z$0 10022810 f   misc.obj
 0001:00021810       __unwindfunclet$??0?$wrapexcept@Vbad_format_string@io@boost@@@boost@@QAE@ABU01@@Z$0 10022810 f   misc.obj
 0001:00021810       __unwindfunclet$??0?$wrapexcept@Vbad_lexical_cast@boost@@@boost@@QAE@ABU01@@Z$0 10022810 f   misc.obj
 0001:00021810       __unwindfunclet$??0?$wrapexcept@Vruntime_error@std@@@boost@@QAE@ABU01@@Z$0 10022810 f   misc.obj
 0001:00021810       __unwindfunclet$??0?$wrapexcept@Vtoo_few_args@io@boost@@@boost@@QAE@ABU01@@Z$0 10022810 f   misc.obj
 0001:00021810       __unwindfunclet$??0?$wrapexcept@Vtoo_many_args@io@boost@@@boost@@QAE@ABU01@@Z$0 10022810 f   misc.obj
 0001:00021818       __unwindfunclet$??0?$wrapexcept@Ubad_day_of_month@gregorian@boost@@@boost@@QAE@ABU01@@Z$1 10022818 f   misc.obj
 0001:00021818       __unwindfunclet$??0?$wrapexcept@Ubad_month@gregorian@boost@@@boost@@QAE@ABU01@@Z$1 10022818 f   misc.obj
 0001:00021818       __unwindfunclet$??0?$wrapexcept@Ubad_year@gregorian@boost@@@boost@@QAE@ABU01@@Z$1 10022818 f   misc.obj
 0001:00021818       __unwindfunclet$??0?$wrapexcept@Vbad_format_string@io@boost@@@boost@@QAE@ABU01@@Z$1 10022818 f   misc.obj
 0001:00021818       __unwindfunclet$??0?$wrapexcept@Vbad_lexical_cast@boost@@@boost@@QAE@ABU01@@Z$1 10022818 f   misc.obj
 0001:00021818       __unwindfunclet$??0?$wrapexcept@Vruntime_error@std@@@boost@@QAE@ABU01@@Z$1 10022818 f   misc.obj
 0001:00021818       __unwindfunclet$??0?$wrapexcept@Vtoo_few_args@io@boost@@@boost@@QAE@ABU01@@Z$1 10022818 f   misc.obj
 0001:00021818       __unwindfunclet$??0?$wrapexcept@Vtoo_many_args@io@boost@@@boost@@QAE@ABU01@@Z$1 10022818 f   misc.obj
 0001:00021828       __ehhandler$??0?$wrapexcept@Ubad_day_of_month@gregorian@boost@@@boost@@QAE@ABU01@@Z 10022828 f   misc.obj
 0001:00021828       __ehhandler$??0?$wrapexcept@Ubad_month@gregorian@boost@@@boost@@QAE@ABU01@@Z 10022828 f   misc.obj
 0001:00021828       __ehhandler$??0?$wrapexcept@Ubad_year@gregorian@boost@@@boost@@QAE@ABU01@@Z 10022828 f   misc.obj
 0001:00021828       __ehhandler$??0?$wrapexcept@Vbad_format_string@io@boost@@@boost@@QAE@ABU01@@Z 10022828 f   misc.obj
 0001:00021828       __ehhandler$??0?$wrapexcept@Vbad_lexical_cast@boost@@@boost@@QAE@ABU01@@Z 10022828 f   misc.obj
 0001:00021828       __ehhandler$??0?$wrapexcept@Vruntime_error@std@@@boost@@QAE@ABU01@@Z 10022828 f   misc.obj
 0001:00021828       __ehhandler$??0?$wrapexcept@Vtoo_few_args@io@boost@@@boost@@QAE@ABU01@@Z 10022828 f   misc.obj
 0001:00021828       __ehhandler$??0?$wrapexcept@Vtoo_many_args@io@boost@@@boost@@QAE@ABU01@@Z 10022828 f   misc.obj
 0001:00021850       __unwindfunclet$?clone@?$wrapexcept@Ubad_day_of_month@gregorian@boost@@@boost@@UBEPBVclone_base@exception_detail@2@XZ$0 10022850 f   misc.obj
 0001:00021850       __unwindfunclet$?clone@?$wrapexcept@Ubad_month@gregorian@boost@@@boost@@UBEPBVclone_base@exception_detail@2@XZ$0 10022850 f   misc.obj
 0001:00021850       __unwindfunclet$?clone@?$wrapexcept@Ubad_year@gregorian@boost@@@boost@@UBEPBVclone_base@exception_detail@2@XZ$0 10022850 f   misc.obj
 0001:00021850       __unwindfunclet$?clone@?$wrapexcept@Vruntime_error@std@@@boost@@UBEPBVclone_base@exception_detail@2@XZ$0 10022850 f   misc.obj
 0001:0002185f       __unwindfunclet$?clone@?$wrapexcept@Ubad_day_of_month@gregorian@boost@@@boost@@UBEPBVclone_base@exception_detail@2@XZ$1 1002285f f   misc.obj
 0001:0002185f       __unwindfunclet$?clone@?$wrapexcept@Ubad_month@gregorian@boost@@@boost@@UBEPBVclone_base@exception_detail@2@XZ$1 1002285f f   misc.obj
 0001:0002185f       __unwindfunclet$?clone@?$wrapexcept@Ubad_year@gregorian@boost@@@boost@@UBEPBVclone_base@exception_detail@2@XZ$1 1002285f f   misc.obj
 0001:0002185f       __unwindfunclet$?clone@?$wrapexcept@Vruntime_error@std@@@boost@@UBEPBVclone_base@exception_detail@2@XZ$1 1002285f f   misc.obj
 0001:0002186c       __ehhandler$?clone@?$wrapexcept@Ubad_day_of_month@gregorian@boost@@@boost@@UBEPBVclone_base@exception_detail@2@XZ 1002286c f   misc.obj
 0001:0002186c       __ehhandler$?clone@?$wrapexcept@Ubad_month@gregorian@boost@@@boost@@UBEPBVclone_base@exception_detail@2@XZ 1002286c f   misc.obj
 0001:0002186c       __ehhandler$?clone@?$wrapexcept@Ubad_year@gregorian@boost@@@boost@@UBEPBVclone_base@exception_detail@2@XZ 1002286c f   misc.obj
 0001:0002186c       __ehhandler$?clone@?$wrapexcept@Vruntime_error@std@@@boost@@UBEPBVclone_base@exception_detail@2@XZ 1002286c f   misc.obj
 0001:00021890       __unwindfunclet$?clone@?$wrapexcept@Vbad_format_string@io@boost@@@boost@@UBEPBVclone_base@exception_detail@2@XZ$0 10022890 f   misc.obj
 0001:00021890       __unwindfunclet$?clone@?$wrapexcept@Vbad_lexical_cast@boost@@@boost@@UBEPBVclone_base@exception_detail@2@XZ$0 10022890 f   misc.obj
 0001:00021890       __unwindfunclet$?clone@?$wrapexcept@Vtoo_few_args@io@boost@@@boost@@UBEPBVclone_base@exception_detail@2@XZ$0 10022890 f   misc.obj
 0001:00021890       __unwindfunclet$?clone@?$wrapexcept@Vtoo_many_args@io@boost@@@boost@@UBEPBVclone_base@exception_detail@2@XZ$0 10022890 f   misc.obj
 0001:0002189f       __unwindfunclet$?clone@?$wrapexcept@Vbad_format_string@io@boost@@@boost@@UBEPBVclone_base@exception_detail@2@XZ$1 1002289f f   misc.obj
 0001:0002189f       __unwindfunclet$?clone@?$wrapexcept@Vbad_lexical_cast@boost@@@boost@@UBEPBVclone_base@exception_detail@2@XZ$1 1002289f f   misc.obj
 0001:0002189f       __unwindfunclet$?clone@?$wrapexcept@Vtoo_few_args@io@boost@@@boost@@UBEPBVclone_base@exception_detail@2@XZ$1 1002289f f   misc.obj
 0001:0002189f       __unwindfunclet$?clone@?$wrapexcept@Vtoo_many_args@io@boost@@@boost@@UBEPBVclone_base@exception_detail@2@XZ$1 1002289f f   misc.obj
 0001:000218ac       __ehhandler$?clone@?$wrapexcept@Vbad_format_string@io@boost@@@boost@@UBEPBVclone_base@exception_detail@2@XZ 100228ac f   misc.obj
 0001:000218ac       __ehhandler$?clone@?$wrapexcept@Vbad_lexical_cast@boost@@@boost@@UBEPBVclone_base@exception_detail@2@XZ 100228ac f   misc.obj
 0001:000218ac       __ehhandler$?clone@?$wrapexcept@Vtoo_few_args@io@boost@@@boost@@UBEPBVclone_base@exception_detail@2@XZ 100228ac f   misc.obj
 0001:000218ac       __ehhandler$?clone@?$wrapexcept@Vtoo_many_args@io@boost@@@boost@@UBEPBVclone_base@exception_detail@2@XZ 100228ac f   misc.obj
 0001:000218d0       __unwindfunclet$??0?$special_values_parser@Vdate@gregorian@boost@@D@date_time@boost@@QAE@XZ$0 100228d0 f   misc.obj
 0001:000218db       __unwindfunclet$??0?$special_values_parser@Vdate@gregorian@boost@@D@date_time@boost@@QAE@XZ$1 100228db f   misc.obj
 0001:000218e6       __unwindfunclet$??0?$special_values_parser@Vdate@gregorian@boost@@D@date_time@boost@@QAE@XZ$2 100228e6 f   misc.obj
 0001:000218ee       __unwindfunclet$??0?$special_values_parser@Vdate@gregorian@boost@@D@date_time@boost@@QAE@XZ$3 100228ee f   misc.obj
 0001:000218f6       __unwindfunclet$??0?$special_values_parser@Vdate@gregorian@boost@@D@date_time@boost@@QAE@XZ$4 100228f6 f   misc.obj
 0001:000218fe       __unwindfunclet$??0?$special_values_parser@Vdate@gregorian@boost@@D@date_time@boost@@QAE@XZ$5 100228fe f   misc.obj
 0001:0002190b       __ehhandler$??0?$special_values_parser@Vdate@gregorian@boost@@D@date_time@boost@@QAE@XZ 1002290b f   misc.obj
 0001:00021940       __unwindfunclet$?_Getcat@?$numpunct@_W@std@@SAIPAPBVfacet@locale@2@PBV42@@Z$0 10022940 f   misc.obj
 0001:0002194f       __unwindfunclet$?_Getcat@?$numpunct@_W@std@@SAIPAPBVfacet@locale@2@PBV42@@Z$1 1002294f f   misc.obj
 0001:0002196c       __unwindfunclet$?_Getcat@?$numpunct@_W@std@@SAIPAPBVfacet@locale@2@PBV42@@Z$3 1002296c f   misc.obj
 0001:00021975       __unwindfunclet$?_Getcat@?$numpunct@_W@std@@SAIPAPBVfacet@locale@2@PBV42@@Z$4 10022975 f   misc.obj
 0001:00021982       __ehhandler$?_Getcat@?$numpunct@_W@std@@SAIPAPBVfacet@locale@2@PBV42@@Z 10022982 f   misc.obj
 0001:000219b0       __unwindfunclet$?_Getcat@?$numpunct@D@std@@SAIPAPBVfacet@locale@2@PBV42@@Z$0 100229b0 f   misc.obj
 0001:000219bf       __unwindfunclet$?_Getcat@?$numpunct@D@std@@SAIPAPBVfacet@locale@2@PBV42@@Z$1 100229bf f   misc.obj
 0001:000219dc       __unwindfunclet$?_Getcat@?$numpunct@D@std@@SAIPAPBVfacet@locale@2@PBV42@@Z$3 100229dc f   misc.obj
 0001:000219e5       __unwindfunclet$?_Getcat@?$numpunct@D@std@@SAIPAPBVfacet@locale@2@PBV42@@Z$4 100229e5 f   misc.obj
 0001:000219f2       __ehhandler$?_Getcat@?$numpunct@D@std@@SAIPAPBVfacet@locale@2@PBV42@@Z 100229f2 f   misc.obj
 0001:00021a20       __ehhandler$??0?$basic_string@_WU?$char_traits@_W@std@@V?$allocator@_W@2@@std@@QAE@U_String_constructor_concat_tag@1@AAV01@1@Z 10022a20 f   misc.obj
 0001:00021a40       __unwindfunclet$?ymd_to_string@?$ymd_formatter@U?$year_month_day_base@Vgreg_year@gregorian@boost@@Vgreg_month@23@Vgreg_day@23@@date_time@boost@@V?$simple_format@_W@23@_W@date_time@boost@@SA?AV?$basic_string@_WU?$char_traits@_W@std@@V?$allocator@_W@2@@std@@U?$year_month_day_base@Vgreg_year@gregorian@boost@@Vgreg_month@23@Vgreg_day@23@@23@@Z$0 10022a40 f   misc.obj
 0001:00021a4b       __unwindfunclet$?ymd_to_string@?$ymd_formatter@U?$year_month_day_base@Vgreg_year@gregorian@boost@@Vgreg_month@23@Vgreg_day@23@@date_time@boost@@V?$simple_format@_W@23@_W@date_time@boost@@SA?AV?$basic_string@_WU?$char_traits@_W@std@@V?$allocator@_W@2@@std@@U?$year_month_day_base@Vgreg_year@gregorian@boost@@Vgreg_month@23@Vgreg_day@23@@23@@Z$2 10022a4b f   misc.obj
 0001:00021a58       __ehhandler$?ymd_to_string@?$ymd_formatter@U?$year_month_day_base@Vgreg_year@gregorian@boost@@Vgreg_month@23@Vgreg_day@23@@date_time@boost@@V?$simple_format@_W@23@_W@date_time@boost@@SA?AV?$basic_string@_WU?$char_traits@_W@std@@V?$allocator@_W@2@@std@@U?$year_month_day_base@Vgreg_year@gregorian@boost@@Vgreg_month@23@Vgreg_day@23@@23@@Z 10022a58 f   misc.obj
 0001:00021a80       __unwindfunclet$?ymd_to_string@?$ymd_formatter@U?$year_month_day_base@Vgreg_year@gregorian@boost@@Vgreg_month@23@Vgreg_day@23@@date_time@boost@@V?$iso_format@_W@23@_W@date_time@boost@@SA?AV?$basic_string@_WU?$char_traits@_W@std@@V?$allocator@_W@2@@std@@U?$year_month_day_base@Vgreg_year@gregorian@boost@@Vgreg_month@23@Vgreg_day@23@@23@@Z$0 10022a80 f   misc.obj
 0001:00021a8b       __unwindfunclet$?ymd_to_string@?$ymd_formatter@U?$year_month_day_base@Vgreg_year@gregorian@boost@@Vgreg_month@23@Vgreg_day@23@@date_time@boost@@V?$iso_format@_W@23@_W@date_time@boost@@SA?AV?$basic_string@_WU?$char_traits@_W@std@@V?$allocator@_W@2@@std@@U?$year_month_day_base@Vgreg_year@gregorian@boost@@Vgreg_month@23@Vgreg_day@23@@23@@Z$2 10022a8b f   misc.obj
 0001:00021a93       __unwindfunclet$?ymd_to_string@?$ymd_formatter@U?$year_month_day_base@Vgreg_year@gregorian@boost@@Vgreg_month@23@Vgreg_day@23@@date_time@boost@@V?$iso_format@_W@23@_W@date_time@boost@@SA?AV?$basic_string@_WU?$char_traits@_W@std@@V?$allocator@_W@2@@std@@U?$year_month_day_base@Vgreg_year@gregorian@boost@@Vgreg_month@23@Vgreg_day@23@@23@@Z$6 10022a93 f   misc.obj
 0001:00021aa0       __ehhandler$?ymd_to_string@?$ymd_formatter@U?$year_month_day_base@Vgreg_year@gregorian@boost@@Vgreg_month@23@Vgreg_day@23@@date_time@boost@@V?$iso_format@_W@23@_W@date_time@boost@@SA?AV?$basic_string@_WU?$char_traits@_W@std@@V?$allocator@_W@2@@std@@U?$year_month_day_base@Vgreg_year@gregorian@boost@@Vgreg_month@23@Vgreg_day@23@@23@@Z 10022aa0 f   misc.obj
 0001:00021ac0       __unwindfunclet$?ymd_to_string@?$ymd_formatter@U?$year_month_day_base@Vgreg_year@gregorian@boost@@Vgreg_month@23@Vgreg_day@23@@date_time@boost@@V?$iso_extended_format@_W@23@_W@date_time@boost@@SA?AV?$basic_string@_WU?$char_traits@_W@std@@V?$allocator@_W@2@@std@@U?$year_month_day_base@Vgreg_year@gregorian@boost@@Vgreg_month@23@Vgreg_day@23@@23@@Z$0 10022ac0 f   misc.obj
 0001:00021acb       __unwindfunclet$?ymd_to_string@?$ymd_formatter@U?$year_month_day_base@Vgreg_year@gregorian@boost@@Vgreg_month@23@Vgreg_day@23@@date_time@boost@@V?$iso_extended_format@_W@23@_W@date_time@boost@@SA?AV?$basic_string@_WU?$char_traits@_W@std@@V?$allocator@_W@2@@std@@U?$year_month_day_base@Vgreg_year@gregorian@boost@@Vgreg_month@23@Vgreg_day@23@@23@@Z$2 10022acb f   misc.obj
 0001:00021ad3       __unwindfunclet$?ymd_to_string@?$ymd_formatter@U?$year_month_day_base@Vgreg_year@gregorian@boost@@Vgreg_month@23@Vgreg_day@23@@date_time@boost@@V?$iso_extended_format@_W@23@_W@date_time@boost@@SA?AV?$basic_string@_WU?$char_traits@_W@std@@V?$allocator@_W@2@@std@@U?$year_month_day_base@Vgreg_year@gregorian@boost@@Vgreg_month@23@Vgreg_day@23@@23@@Z$6 10022ad3 f   misc.obj
 0001:00021ae0       __ehhandler$?ymd_to_string@?$ymd_formatter@U?$year_month_day_base@Vgreg_year@gregorian@boost@@Vgreg_month@23@Vgreg_day@23@@date_time@boost@@V?$iso_extended_format@_W@23@_W@date_time@boost@@SA?AV?$basic_string@_WU?$char_traits@_W@std@@V?$allocator@_W@2@@std@@U?$year_month_day_base@Vgreg_year@gregorian@boost@@Vgreg_month@23@Vgreg_day@23@@23@@Z 10022ae0 f   misc.obj
 0001:00021b00       __unwindfunclet$?sv_strings@?$special_values_parser@Vdate@gregorian@boost@@D@date_time@boost@@QAEXABV?$basic_string@DU?$char_traits@D@std@@V?$allocator@D@2@@std@@0000@Z$0 10022b00 f   misc.obj
 0001:00021b08       __unwindfunclet$?sv_strings@?$special_values_parser@Vdate@gregorian@boost@@D@date_time@boost@@QAEXABV?$basic_string@DU?$char_traits@D@std@@V?$allocator@D@2@@std@@0000@Z$3 10022b08 f   misc.obj
 0001:00021b10       __unwindfunclet$?sv_strings@?$special_values_parser@Vdate@gregorian@boost@@D@date_time@boost@@QAEXABV?$basic_string@DU?$char_traits@D@std@@V?$allocator@D@2@@std@@0000@Z$4 10022b10 f   misc.obj
 0001:00021b1d       __ehhandler$?sv_strings@?$special_values_parser@Vdate@gregorian@boost@@D@date_time@boost@@QAEXABV?$basic_string@DU?$char_traits@D@std@@V?$allocator@D@2@@std@@0000@Z 10022b1d f   misc.obj
 0001:00021b40       __unwindfunclet$??0?$token_iterator@Voffset_separator@boost@@V?$_String_const_iterator@V?$_String_val@U?$_Simple_types@D@std@@@std@@@std@@V?$basic_string@DU?$char_traits@D@std@@V?$allocator@D@2@@4@@boost@@QAE@Voffset_separator@1@V?$_String_const_iterator@V?$_String_val@U?$_Simple_types@D@std@@@std@@@std@@1@Z$0 10022b40 f   misc.obj
 0001:00021b48       __unwindfunclet$??0?$token_iterator@Voffset_separator@boost@@V?$_String_const_iterator@V?$_String_val@U?$_Simple_types@D@std@@@std@@@std@@V?$basic_string@DU?$char_traits@D@std@@V?$allocator@D@2@@4@@boost@@QAE@Voffset_separator@1@V?$_String_const_iterator@V?$_String_val@U?$_Simple_types@D@std@@@std@@@std@@1@Z$1 10022b48 f   misc.obj
 0001:00021b50       __unwindfunclet$??0?$token_iterator@Voffset_separator@boost@@V?$_String_const_iterator@V?$_String_val@U?$_Simple_types@D@std@@@std@@@std@@V?$basic_string@DU?$char_traits@D@std@@V?$allocator@D@2@@4@@boost@@QAE@Voffset_separator@1@V?$_String_const_iterator@V?$_String_val@U?$_Simple_types@D@std@@@std@@@std@@1@Z$2 10022b50 f   misc.obj
 0001:00021b60       __ehhandler$??0?$token_iterator@Voffset_separator@boost@@V?$_String_const_iterator@V?$_String_val@U?$_Simple_types@D@std@@@std@@@std@@V?$basic_string@DU?$char_traits@D@std@@V?$allocator@D@2@@4@@boost@@QAE@Voffset_separator@1@V?$_String_const_iterator@V?$_String_val@U?$_Simple_types@D@std@@@std@@@std@@1@Z 10022b60 f   misc.obj
 0001:00021b80       __unwindfunclet$??0?$token_iterator@V?$char_separator@DU?$char_traits@D@std@@@boost@@V?$_String_const_iterator@V?$_String_val@U?$_Simple_types@D@std@@@std@@@std@@V?$basic_string@DU?$char_traits@D@std@@V?$allocator@D@2@@4@@boost@@QAE@V?$char_separator@DU?$char_traits@D@std@@@1@V?$_String_const_iterator@V?$_String_val@U?$_Simple_types@D@std@@@std@@@std@@1@Z$0 10022b80 f   misc.obj
 0001:00021b88       __unwindfunclet$??0?$token_iterator@V?$char_separator@DU?$char_traits@D@std@@@boost@@V?$_String_const_iterator@V?$_String_val@U?$_Simple_types@D@std@@@std@@@std@@V?$basic_string@DU?$char_traits@D@std@@V?$allocator@D@2@@4@@boost@@QAE@V?$char_separator@DU?$char_traits@D@std@@@1@V?$_String_const_iterator@V?$_String_val@U?$_Simple_types@D@std@@@std@@@std@@1@Z$3 10022b88 f   misc.obj
 0001:00021b90       __unwindfunclet$??0?$token_iterator@V?$char_separator@DU?$char_traits@D@std@@@boost@@V?$_String_const_iterator@V?$_String_val@U?$_Simple_types@D@std@@@std@@@std@@V?$basic_string@DU?$char_traits@D@std@@V?$allocator@D@2@@4@@boost@@QAE@V?$char_separator@DU?$char_traits@D@std@@@1@V?$_String_const_iterator@V?$_String_val@U?$_Simple_types@D@std@@@std@@@std@@1@Z$1 10022b90 f   misc.obj
 0001:00021b98       __unwindfunclet$??0?$token_iterator@V?$char_separator@DU?$char_traits@D@std@@@boost@@V?$_String_const_iterator@V?$_String_val@U?$_Simple_types@D@std@@@std@@@std@@V?$basic_string@DU?$char_traits@D@std@@V?$allocator@D@2@@4@@boost@@QAE@V?$char_separator@DU?$char_traits@D@std@@@1@V?$_String_const_iterator@V?$_String_val@U?$_Simple_types@D@std@@@std@@@std@@1@Z$2 10022b98 f   misc.obj
 0001:00021ba8       __ehhandler$??0?$token_iterator@V?$char_separator@DU?$char_traits@D@std@@@boost@@V?$_String_const_iterator@V?$_String_val@U?$_Simple_types@D@std@@@std@@@std@@V?$basic_string@DU?$char_traits@D@std@@V?$allocator@D@2@@4@@boost@@QAE@V?$char_separator@DU?$char_traits@D@std@@@1@V?$_String_const_iterator@V?$_String_val@U?$_Simple_types@D@std@@@std@@@std@@1@Z 10022ba8 f   misc.obj
 0001:00021bd0       __unwindfunclet$??0?$string_parse_tree@D@date_time@boost@@QAE@V?$vector@V?$basic_string@DU?$char_traits@D@std@@V?$allocator@D@2@@std@@V?$allocator@V?$basic_string@DU?$char_traits@D@std@@V?$allocator@D@2@@std@@@2@@std@@I@Z$0 10022bd0 f   misc.obj
 0001:00021bd8       __unwindfunclet$??0?$string_parse_tree@D@date_time@boost@@QAE@V?$vector@V?$basic_string@DU?$char_traits@D@std@@V?$allocator@D@2@@std@@V?$allocator@V?$basic_string@DU?$char_traits@D@std@@V?$allocator@D@2@@std@@@2@@std@@I@Z$1 10022bd8 f   misc.obj
 0001:00021be0       __unwindfunclet$??0?$string_parse_tree@D@date_time@boost@@QAE@V?$vector@V?$basic_string@DU?$char_traits@D@std@@V?$allocator@D@2@@std@@V?$allocator@V?$basic_string@DU?$char_traits@D@std@@V?$allocator@D@2@@std@@@2@@std@@I@Z$2 10022be0 f   misc.obj
 0001:00021be8       __unwindfunclet$??0?$string_parse_tree@D@date_time@boost@@QAE@V?$vector@V?$basic_string@DU?$char_traits@D@std@@V?$allocator@D@2@@std@@V?$allocator@V?$basic_string@DU?$char_traits@D@std@@V?$allocator@D@2@@std@@@2@@std@@I@Z$3 10022be8 f   misc.obj
 0001:00021bf5       __ehhandler$??0?$string_parse_tree@D@date_time@boost@@QAE@V?$vector@V?$basic_string@DU?$char_traits@D@std@@V?$allocator@D@2@@std@@V?$allocator@V?$basic_string@DU?$char_traits@D@std@@V?$allocator@D@2@@std@@@2@@std@@I@Z 10022bf5 f   misc.obj
 0001:00021c20       __unwindfunclet$?insert@?$string_parse_tree@D@date_time@boost@@QAEXABV?$basic_string@DU?$char_traits@D@std@@V?$allocator@D@2@@std@@G@Z$0 10022c20 f   misc.obj
 0001:00021c28       __unwindfunclet$?insert@?$string_parse_tree@D@date_time@boost@@QAEXABV?$basic_string@DU?$char_traits@D@std@@V?$allocator@D@2@@std@@G@Z$1 10022c28 f   misc.obj
 0001:00021c30       __unwindfunclet$?insert@?$string_parse_tree@D@date_time@boost@@QAEXABV?$basic_string@DU?$char_traits@D@std@@V?$allocator@D@2@@std@@G@Z$2 10022c30 f   misc.obj
 0001:00021c38       __unwindfunclet$?insert@?$string_parse_tree@D@date_time@boost@@QAEXABV?$basic_string@DU?$char_traits@D@std@@V?$allocator@D@2@@std@@G@Z$3 10022c38 f   misc.obj
 0001:00021c40       __unwindfunclet$?insert@?$string_parse_tree@D@date_time@boost@@QAEXABV?$basic_string@DU?$char_traits@D@std@@V?$allocator@D@2@@std@@G@Z$4 10022c40 f   misc.obj
 0001:00021c48       __unwindfunclet$?insert@?$string_parse_tree@D@date_time@boost@@QAEXABV?$basic_string@DU?$char_traits@D@std@@V?$allocator@D@2@@std@@G@Z$5 10022c48 f   misc.obj
 0001:00021c50       __unwindfunclet$?insert@?$string_parse_tree@D@date_time@boost@@QAEXABV?$basic_string@DU?$char_traits@D@std@@V?$allocator@D@2@@std@@G@Z$6 10022c50 f   misc.obj
 0001:00021c58       __unwindfunclet$?insert@?$string_parse_tree@D@date_time@boost@@QAEXABV?$basic_string@DU?$char_traits@D@std@@V?$allocator@D@2@@std@@G@Z$7 10022c58 f   misc.obj
 0001:00021c65       __ehhandler$?insert@?$string_parse_tree@D@date_time@boost@@QAEXABV?$basic_string@DU?$char_traits@D@std@@V?$allocator@D@2@@std@@G@Z 10022c65 f   misc.obj
 0001:00021c90       __unwindfunclet$??$?6_WU?$char_traits@_W@std@@@std@@YAAAV?$basic_ostream@_WU?$char_traits@_W@std@@@0@AAV10@D@Z$4 10022c90 f   misc.obj
 0001:00021c98       __unwindfunclet$??$?6_WU?$char_traits@_W@std@@@std@@YAAAV?$basic_ostream@_WU?$char_traits@_W@std@@@0@AAV10@D@Z$2 10022c98 f   misc.obj
 0001:00021ca0       __unwindfunclet$??$?6_WU?$char_traits@_W@std@@@std@@YAAAV?$basic_ostream@_WU?$char_traits@_W@std@@@0@AAV10@D@Z$3 10022ca0 f   misc.obj
 0001:00021cad       __ehhandler$??$?6_WU?$char_traits@_W@std@@@std@@YAAAV?$basic_ostream@_WU?$char_traits@_W@std@@@0@AAV10@D@Z 10022cad f   misc.obj
 0001:00021cd0       __unwindfunclet$??0?$basic_format@_WU?$char_traits@_W@std@@V?$allocator@_W@2@@boost@@QAE@ABV?$basic_string@_WU?$char_traits@_W@std@@V?$allocator@_W@2@@std@@@Z$0 10022cd0 f   misc.obj
 0001:00021cd8       __unwindfunclet$??0?$basic_format@_WU?$char_traits@_W@std@@V?$allocator@_W@2@@boost@@QAE@ABV?$basic_string@_WU?$char_traits@_W@std@@V?$allocator@_W@2@@std@@@Z$1 10022cd8 f   misc.obj
 0001:00021ce3       __unwindfunclet$??0?$basic_format@_WU?$char_traits@_W@std@@V?$allocator@_W@2@@boost@@QAE@ABV?$basic_string@_WU?$char_traits@_W@std@@V?$allocator@_W@2@@std@@@Z$2 10022ce3 f   misc.obj
 0001:00021cee       __unwindfunclet$??0?$basic_format@_WU?$char_traits@_W@std@@V?$allocator@_W@2@@boost@@QAE@ABV?$basic_string@_WU?$char_traits@_W@std@@V?$allocator@_W@2@@std@@@Z$3 10022cee f   misc.obj
 0001:00021cf9       __unwindfunclet$??0?$basic_format@_WU?$char_traits@_W@std@@V?$allocator@_W@2@@boost@@QAE@ABV?$basic_string@_WU?$char_traits@_W@std@@V?$allocator@_W@2@@std@@@Z$4 10022cf9 f   misc.obj
 0001:00021d0c       __ehhandler$??0?$basic_format@_WU?$char_traits@_W@std@@V?$allocator@_W@2@@boost@@QAE@ABV?$basic_string@_WU?$char_traits@_W@std@@V?$allocator@_W@2@@std@@@Z 10022d0c f   misc.obj
 0001:00021d30       __unwindfunclet$?str@?$basic_format@_WU?$char_traits@_W@std@@V?$allocator@_W@2@@boost@@QBE?AV?$basic_string@_WU?$char_traits@_W@std@@V?$allocator@_W@2@@std@@XZ$2 10022d30 f   misc.obj
 0001:00021d38       __unwindfunclet$?str@?$basic_format@_WU?$char_traits@_W@std@@V?$allocator@_W@2@@boost@@QBE?AV?$basic_string@_WU?$char_traits@_W@std@@V?$allocator@_W@2@@std@@XZ$1 10022d38 f   misc.obj
 0001:00021d45       __ehhandler$?str@?$basic_format@_WU?$char_traits@_W@std@@V?$allocator@_W@2@@boost@@QBE?AV?$basic_string@_WU?$char_traits@_W@std@@V?$allocator@_W@2@@std@@XZ 10022d45 f   misc.obj
 0001:00021d70       __unwindfunclet$??$?6_WU?$char_traits@_W@std@@@std@@YAAAV?$basic_ostream@_WU?$char_traits@_W@std@@@0@AAV10@PBD@Z$4 10022d70 f   misc.obj
 0001:00021d78       __unwindfunclet$??$?6_WU?$char_traits@_W@std@@@std@@YAAAV?$basic_ostream@_WU?$char_traits@_W@std@@@0@AAV10@PBD@Z$2 10022d78 f   misc.obj
 0001:00021d80       __unwindfunclet$??$?6_WU?$char_traits@_W@std@@@std@@YAAAV?$basic_ostream@_WU?$char_traits@_W@std@@@0@AAV10@PBD@Z$3 10022d80 f   misc.obj
 0001:00021d8d       __ehhandler$??$?6_WU?$char_traits@_W@std@@@std@@YAAAV?$basic_ostream@_WU?$char_traits@_W@std@@@0@AAV10@PBD@Z 10022d8d f   misc.obj
 0001:00021db0       __unwindfunclet$??$?0V?$basic_string@DU?$char_traits@D@std@@V?$allocator@D@2@@std@@@?$tokenizer@V?$char_separator@DU?$char_traits@D@std@@@boost@@V?$_String_const_iterator@V?$_String_val@U?$_Simple_types@D@std@@@std@@@std@@V?$basic_string@DU?$char_traits@D@std@@V?$allocator@D@2@@4@@boost@@QAE@ABV?$basic_string@DU?$char_traits@D@std@@V?$allocator@D@2@@std@@ABV?$char_separator@DU?$char_traits@D@std@@@1@@Z$1 10022db0 f   misc.obj
 0001:00021dbd       __ehhandler$??$?0V?$basic_string@DU?$char_traits@D@std@@V?$allocator@D@2@@std@@@?$tokenizer@V?$char_separator@DU?$char_traits@D@std@@@boost@@V?$_String_const_iterator@V?$_String_val@U?$_Simple_types@D@std@@@std@@@std@@V?$basic_string@DU?$char_traits@D@std@@V?$allocator@D@2@@4@@boost@@QAE@ABV?$basic_string@DU?$char_traits@D@std@@V?$allocator@D@2@@std@@ABV?$char_separator@DU?$char_traits@D@std@@@1@@Z 10022dbd f   misc.obj
 0001:00021de0       __unwindfunclet$??$month_str_to_ushort@Vgreg_month@gregorian@boost@@@date_time@boost@@YAGABV?$basic_string@DU?$char_traits@D@std@@V?$allocator@D@2@@std@@@Z$27 10022de0 f   misc.obj
 0001:00021deb       __unwindfunclet$??$month_str_to_ushort@Vgreg_month@gregorian@boost@@@date_time@boost@@YAGABV?$basic_string@DU?$char_traits@D@std@@V?$allocator@D@2@@std@@@Z$28 10022deb f   misc.obj
 0001:00021df6       __unwindfunclet$??$month_str_to_ushort@Vgreg_month@gregorian@boost@@@date_time@boost@@YAGABV?$basic_string@DU?$char_traits@D@std@@V?$allocator@D@2@@std@@@Z$1 10022df6 f   misc.obj
 0001:00021dfe       __unwindfunclet$??$month_str_to_ushort@Vgreg_month@gregorian@boost@@@date_time@boost@@YAGABV?$basic_string@DU?$char_traits@D@std@@V?$allocator@D@2@@std@@@Z$2 10022dfe f   misc.obj
 0001:00021e0a       __unwindfunclet$??$month_str_to_ushort@Vgreg_month@gregorian@boost@@@date_time@boost@@YAGABV?$basic_string@DU?$char_traits@D@std@@V?$allocator@D@2@@std@@@Z$3 10022e0a f   misc.obj
 0001:00021e15       __unwindfunclet$??$month_str_to_ushort@Vgreg_month@gregorian@boost@@@date_time@boost@@YAGABV?$basic_string@DU?$char_traits@D@std@@V?$allocator@D@2@@std@@@Z$4 10022e15 f   misc.obj
 0001:00021e20       __unwindfunclet$??$month_str_to_ushort@Vgreg_month@gregorian@boost@@@date_time@boost@@YAGABV?$basic_string@DU?$char_traits@D@std@@V?$allocator@D@2@@std@@@Z$5 10022e20 f   misc.obj
 0001:00021e2b       __unwindfunclet$??$month_str_to_ushort@Vgreg_month@gregorian@boost@@@date_time@boost@@YAGABV?$basic_string@DU?$char_traits@D@std@@V?$allocator@D@2@@std@@@Z$6 10022e2b f   misc.obj
 0001:00021e36       __unwindfunclet$??$month_str_to_ushort@Vgreg_month@gregorian@boost@@@date_time@boost@@YAGABV?$basic_string@DU?$char_traits@D@std@@V?$allocator@D@2@@std@@@Z$7 10022e36 f   misc.obj
 0001:00021e41       __unwindfunclet$??$month_str_to_ushort@Vgreg_month@gregorian@boost@@@date_time@boost@@YAGABV?$basic_string@DU?$char_traits@D@std@@V?$allocator@D@2@@std@@@Z$8 10022e41 f   misc.obj
 0001:00021e4c       __unwindfunclet$??$month_str_to_ushort@Vgreg_month@gregorian@boost@@@date_time@boost@@YAGABV?$basic_string@DU?$char_traits@D@std@@V?$allocator@D@2@@std@@@Z$9 10022e4c f   misc.obj
 0001:00021e57       __unwindfunclet$??$month_str_to_ushort@Vgreg_month@gregorian@boost@@@date_time@boost@@YAGABV?$basic_string@DU?$char_traits@D@std@@V?$allocator@D@2@@std@@@Z$10 10022e57 f   misc.obj
 0001:00021e62       __unwindfunclet$??$month_str_to_ushort@Vgreg_month@gregorian@boost@@@date_time@boost@@YAGABV?$basic_string@DU?$char_traits@D@std@@V?$allocator@D@2@@std@@@Z$11 10022e62 f   misc.obj
 0001:00021e6d       __unwindfunclet$??$month_str_to_ushort@Vgreg_month@gregorian@boost@@@date_time@boost@@YAGABV?$basic_string@DU?$char_traits@D@std@@V?$allocator@D@2@@std@@@Z$12 10022e6d f   misc.obj
 0001:00021e78       __unwindfunclet$??$month_str_to_ushort@Vgreg_month@gregorian@boost@@@date_time@boost@@YAGABV?$basic_string@DU?$char_traits@D@std@@V?$allocator@D@2@@std@@@Z$13 10022e78 f   misc.obj
 0001:00021e83       __unwindfunclet$??$month_str_to_ushort@Vgreg_month@gregorian@boost@@@date_time@boost@@YAGABV?$basic_string@DU?$char_traits@D@std@@V?$allocator@D@2@@std@@@Z$14 10022e83 f   misc.obj
 0001:00021e8e       __unwindfunclet$??$month_str_to_ushort@Vgreg_month@gregorian@boost@@@date_time@boost@@YAGABV?$basic_string@DU?$char_traits@D@std@@V?$allocator@D@2@@std@@@Z$15 10022e8e f   misc.obj
 0001:00021e99       __unwindfunclet$??$month_str_to_ushort@Vgreg_month@gregorian@boost@@@date_time@boost@@YAGABV?$basic_string@DU?$char_traits@D@std@@V?$allocator@D@2@@std@@@Z$16 10022e99 f   misc.obj
 0001:00021ea4       __unwindfunclet$??$month_str_to_ushort@Vgreg_month@gregorian@boost@@@date_time@boost@@YAGABV?$basic_string@DU?$char_traits@D@std@@V?$allocator@D@2@@std@@@Z$17 10022ea4 f   misc.obj
 0001:00021eaf       __unwindfunclet$??$month_str_to_ushort@Vgreg_month@gregorian@boost@@@date_time@boost@@YAGABV?$basic_string@DU?$char_traits@D@std@@V?$allocator@D@2@@std@@@Z$18 10022eaf f   misc.obj
 0001:00021eba       __unwindfunclet$??$month_str_to_ushort@Vgreg_month@gregorian@boost@@@date_time@boost@@YAGABV?$basic_string@DU?$char_traits@D@std@@V?$allocator@D@2@@std@@@Z$19 10022eba f   misc.obj
 0001:00021ec5       __unwindfunclet$??$month_str_to_ushort@Vgreg_month@gregorian@boost@@@date_time@boost@@YAGABV?$basic_string@DU?$char_traits@D@std@@V?$allocator@D@2@@std@@@Z$20 10022ec5 f   misc.obj
 0001:00021ed0       __unwindfunclet$??$month_str_to_ushort@Vgreg_month@gregorian@boost@@@date_time@boost@@YAGABV?$basic_string@DU?$char_traits@D@std@@V?$allocator@D@2@@std@@@Z$21 10022ed0 f   misc.obj
 0001:00021edb       __unwindfunclet$??$month_str_to_ushort@Vgreg_month@gregorian@boost@@@date_time@boost@@YAGABV?$basic_string@DU?$char_traits@D@std@@V?$allocator@D@2@@std@@@Z$22 10022edb f   misc.obj
 0001:00021ee6       __unwindfunclet$??$month_str_to_ushort@Vgreg_month@gregorian@boost@@@date_time@boost@@YAGABV?$basic_string@DU?$char_traits@D@std@@V?$allocator@D@2@@std@@@Z$23 10022ee6 f   misc.obj
 0001:00021eee       __unwindfunclet$??$month_str_to_ushort@Vgreg_month@gregorian@boost@@@date_time@boost@@YAGABV?$basic_string@DU?$char_traits@D@std@@V?$allocator@D@2@@std@@@Z$24 10022eee f   misc.obj
 0001:00021ef6       __unwindfunclet$??$month_str_to_ushort@Vgreg_month@gregorian@boost@@@date_time@boost@@YAGABV?$basic_string@DU?$char_traits@D@std@@V?$allocator@D@2@@std@@@Z$26 10022ef6 f   misc.obj
 0001:00021f0c       __unwindfunclet$??$month_str_to_ushort@Vgreg_month@gregorian@boost@@@date_time@boost@@YAGABV?$basic_string@DU?$char_traits@D@std@@V?$allocator@D@2@@std@@@Z$128 10022f0c f   misc.obj
 0001:00021f1b       __ehhandler$??$month_str_to_ushort@Vgreg_month@gregorian@boost@@@date_time@boost@@YAGABV?$basic_string@DU?$char_traits@D@std@@V?$allocator@D@2@@std@@@Z 10022f1b f   misc.obj
 0001:00021f50       __unwindfunclet$??$str_from_delimited_time_duration@Vtime_duration@posix_time@boost@@D@date_time@boost@@YA?AVtime_duration@posix_time@1@ABV?$basic_string@DU?$char_traits@D@std@@V?$allocator@D@2@@std@@@Z$5 10022f50 f   misc.obj
 0001:00021f5b       __unwindfunclet$??$str_from_delimited_time_duration@Vtime_duration@posix_time@boost@@D@date_time@boost@@YA?AVtime_duration@posix_time@1@ABV?$basic_string@DU?$char_traits@D@std@@V?$allocator@D@2@@std@@@Z$6 10022f5b f   misc.obj
 0001:00021f66       __unwindfunclet$??$str_from_delimited_time_duration@Vtime_duration@posix_time@boost@@D@date_time@boost@@YA?AVtime_duration@posix_time@1@ABV?$basic_string@DU?$char_traits@D@std@@V?$allocator@D@2@@std@@@Z$0 10022f66 f   misc.obj
 0001:00021f71       __unwindfunclet$??$str_from_delimited_time_duration@Vtime_duration@posix_time@boost@@D@date_time@boost@@YA?AVtime_duration@posix_time@1@ABV?$basic_string@DU?$char_traits@D@std@@V?$allocator@D@2@@std@@@Z$1 10022f71 f   misc.obj
 0001:00021f7c       __unwindfunclet$??$str_from_delimited_time_duration@Vtime_duration@posix_time@boost@@D@date_time@boost@@YA?AVtime_duration@posix_time@1@ABV?$basic_string@DU?$char_traits@D@std@@V?$allocator@D@2@@std@@@Z$16 10022f7c f   misc.obj
 0001:00021f84       __unwindfunclet$??$str_from_delimited_time_duration@Vtime_duration@posix_time@boost@@D@date_time@boost@@YA?AVtime_duration@posix_time@1@ABV?$basic_string@DU?$char_traits@D@std@@V?$allocator@D@2@@std@@@Z$2 10022f84 f   misc.obj
 0001:00021f8c       __unwindfunclet$??$str_from_delimited_time_duration@Vtime_duration@posix_time@boost@@D@date_time@boost@@YA?AVtime_duration@posix_time@1@ABV?$basic_string@DU?$char_traits@D@std@@V?$allocator@D@2@@std@@@Z$20 10022f8c f   misc.obj
 0001:00021f97       __unwindfunclet$??$str_from_delimited_time_duration@Vtime_duration@posix_time@boost@@D@date_time@boost@@YA?AVtime_duration@posix_time@1@ABV?$basic_string@DU?$char_traits@D@std@@V?$allocator@D@2@@std@@@Z$4 10022f97 f   misc.obj
 0001:00021fa7       __ehhandler$??$str_from_delimited_time_duration@Vtime_duration@posix_time@boost@@D@date_time@boost@@YA?AVtime_duration@posix_time@1@ABV?$basic_string@DU?$char_traits@D@std@@V?$allocator@D@2@@std@@@Z 10022fa7 f   misc.obj
 0001:00021fe0       __unwindfunclet$??$parse_undelimited_time_duration@Vtime_duration@posix_time@boost@@@date_time@boost@@YA?AVtime_duration@posix_time@1@ABV?$basic_string@DU?$char_traits@D@std@@V?$allocator@D@2@@std@@@Z$0 10022fe0 f   misc.obj
 0001:00021feb       __unwindfunclet$??$parse_undelimited_time_duration@Vtime_duration@posix_time@boost@@@date_time@boost@@YA?AVtime_duration@posix_time@1@ABV?$basic_string@DU?$char_traits@D@std@@V?$allocator@D@2@@std@@@Z$1 10022feb f   misc.obj
 0001:00021ff3       __unwindfunclet$??$parse_undelimited_time_duration@Vtime_duration@posix_time@boost@@@date_time@boost@@YA?AVtime_duration@posix_time@1@ABV?$basic_string@DU?$char_traits@D@std@@V?$allocator@D@2@@std@@@Z$2 10022ff3 f   misc.obj
 0001:00021ffb       __unwindfunclet$??$parse_undelimited_time_duration@Vtime_duration@posix_time@boost@@@date_time@boost@@YA?AVtime_duration@posix_time@1@ABV?$basic_string@DU?$char_traits@D@std@@V?$allocator@D@2@@std@@@Z$3 10022ffb f   misc.obj
 0001:00022003       __unwindfunclet$??$parse_undelimited_time_duration@Vtime_duration@posix_time@boost@@@date_time@boost@@YA?AVtime_duration@posix_time@1@ABV?$basic_string@DU?$char_traits@D@std@@V?$allocator@D@2@@std@@@Z$5 10023003 f   misc.obj
 0001:0002200e       __unwindfunclet$??$parse_undelimited_time_duration@Vtime_duration@posix_time@boost@@@date_time@boost@@YA?AVtime_duration@posix_time@1@ABV?$basic_string@DU?$char_traits@D@std@@V?$allocator@D@2@@std@@@Z$6 1002300e f   misc.obj
 0001:0002201b       __ehhandler$??$parse_undelimited_time_duration@Vtime_duration@posix_time@boost@@@date_time@boost@@YA?AVtime_duration@posix_time@1@ABV?$basic_string@DU?$char_traits@D@std@@V?$allocator@D@2@@std@@@Z 1002301b f   misc.obj
 0001:00022050       __unwindfunclet$??$get_static_exception_object@Ubad_alloc_@exception_detail@boost@@@exception_detail@boost@@YA?AVexception_ptr@1@XZ$0 10023050 f   misc.obj
 0001:00022058       __unwindfunclet$??$get_static_exception_object@Ubad_alloc_@exception_detail@boost@@@exception_detail@boost@@YA?AVexception_ptr@1@XZ$7 10023058 f   misc.obj
 0001:00022071       __unwindfunclet$??$get_static_exception_object@Ubad_alloc_@exception_detail@boost@@@exception_detail@boost@@YA?AVexception_ptr@1@XZ$8 10023071 f   misc.obj
 0001:00022079       __unwindfunclet$??$get_static_exception_object@Ubad_alloc_@exception_detail@boost@@@exception_detail@boost@@YA?AVexception_ptr@1@XZ$1 10023079 f   misc.obj
 0001:00022081       __unwindfunclet$??$get_static_exception_object@Ubad_alloc_@exception_detail@boost@@@exception_detail@boost@@YA?AVexception_ptr@1@XZ$2 10023081 f   misc.obj
 0001:0002208d       __unwindfunclet$??$get_static_exception_object@Ubad_alloc_@exception_detail@boost@@@exception_detail@boost@@YA?AVexception_ptr@1@XZ$3 1002308d f   misc.obj
 0001:0002209c       __unwindfunclet$??$get_static_exception_object@Ubad_alloc_@exception_detail@boost@@@exception_detail@boost@@YA?AVexception_ptr@1@XZ$9 1002309c f   misc.obj
 0001:000220b8       __unwindfunclet$??$get_static_exception_object@Ubad_alloc_@exception_detail@boost@@@exception_detail@boost@@YA?AVexception_ptr@1@XZ$11 100230b8 f   misc.obj
 0001:000220c5       __ehhandler$??$get_static_exception_object@Ubad_alloc_@exception_detail@boost@@@exception_detail@boost@@YA?AVexception_ptr@1@XZ 100230c5 f   misc.obj
 0001:000220f0       __unwindfunclet$??$get_static_exception_object@Ubad_exception_@exception_detail@boost@@@exception_detail@boost@@YA?AVexception_ptr@1@XZ$0 100230f0 f   misc.obj
 0001:000220f8       __unwindfunclet$??$get_static_exception_object@Ubad_exception_@exception_detail@boost@@@exception_detail@boost@@YA?AVexception_ptr@1@XZ$7 100230f8 f   misc.obj
 0001:00022111       __unwindfunclet$??$get_static_exception_object@Ubad_exception_@exception_detail@boost@@@exception_detail@boost@@YA?AVexception_ptr@1@XZ$8 10023111 f   misc.obj
 0001:00022119       __unwindfunclet$??$get_static_exception_object@Ubad_exception_@exception_detail@boost@@@exception_detail@boost@@YA?AVexception_ptr@1@XZ$1 10023119 f   misc.obj
 0001:00022121       __unwindfunclet$??$get_static_exception_object@Ubad_exception_@exception_detail@boost@@@exception_detail@boost@@YA?AVexception_ptr@1@XZ$2 10023121 f   misc.obj
 0001:0002212d       __unwindfunclet$??$get_static_exception_object@Ubad_exception_@exception_detail@boost@@@exception_detail@boost@@YA?AVexception_ptr@1@XZ$3 1002312d f   misc.obj
 0001:0002213c       __unwindfunclet$??$get_static_exception_object@Ubad_exception_@exception_detail@boost@@@exception_detail@boost@@YA?AVexception_ptr@1@XZ$9 1002313c f   misc.obj
 0001:00022158       __unwindfunclet$??$get_static_exception_object@Ubad_exception_@exception_detail@boost@@@exception_detail@boost@@YA?AVexception_ptr@1@XZ$11 10023158 f   misc.obj
 0001:00022165       __ehhandler$??$get_static_exception_object@Ubad_exception_@exception_detail@boost@@@exception_detail@boost@@YA?AVexception_ptr@1@XZ 10023165 f   misc.obj
 0001:00022190       __unwindfunclet$??$_Insert_string@_WU?$char_traits@_W@std@@I@std@@YAAAV?$basic_ostream@_WU?$char_traits@_W@std@@@0@AAV10@QB_WI@Z$3 10023190 f   misc.obj
 0001:00022198       __unwindfunclet$??$_Insert_string@_WU?$char_traits@_W@std@@I@std@@YAAAV?$basic_ostream@_WU?$char_traits@_W@std@@@0@AAV10@QB_WI@Z$2 10023198 f   misc.obj
 0001:000221a5       __ehhandler$??$_Insert_string@_WU?$char_traits@_W@std@@I@std@@YAAAV?$basic_ostream@_WU?$char_traits@_W@std@@@0@AAV10@QB_WI@Z 100231a5 f   misc.obj
 0001:000221d0       __unwindfunclet$??$throw_bad_cast@V?$basic_string@DU?$char_traits@D@std@@V?$allocator@D@2@@std@@F@detail@conversion@boost@@YAXXZ$0 100231d0 f   misc.obj
 0001:000221d0       __unwindfunclet$??$throw_bad_cast@V?$basic_string@DU?$char_traits@D@std@@V?$allocator@D@2@@std@@G@detail@conversion@boost@@YAXXZ$0 100231d0 f   misc.obj
 0001:000221d0       __unwindfunclet$??$throw_bad_cast@V?$basic_string@DU?$char_traits@D@std@@V?$allocator@D@2@@std@@H@detail@conversion@boost@@YAXXZ$0 100231d0 f   misc.obj
 0001:000221d0       __unwindfunclet$??$throw_bad_cast@V?$basic_string@DU?$char_traits@D@std@@V?$allocator@D@2@@std@@_J@detail@conversion@boost@@YAXXZ$0 100231d0 f   misc.obj
 0001:000221d0       __unwindfunclet$??$throw_bad_cast@V?$basic_string@_WU?$char_traits@_W@std@@V?$allocator@_W@2@@std@@I@detail@conversion@boost@@YAXXZ$0 100231d0 f   misc.obj
 0001:000221dd       __ehhandler$??$throw_bad_cast@V?$basic_string@DU?$char_traits@D@std@@V?$allocator@D@2@@std@@F@detail@conversion@boost@@YAXXZ 100231dd f   misc.obj
 0001:000221dd       __ehhandler$??$throw_bad_cast@V?$basic_string@DU?$char_traits@D@std@@V?$allocator@D@2@@std@@G@detail@conversion@boost@@YAXXZ 100231dd f   misc.obj
 0001:000221dd       __ehhandler$??$throw_bad_cast@V?$basic_string@DU?$char_traits@D@std@@V?$allocator@D@2@@std@@H@detail@conversion@boost@@YAXXZ 100231dd f   misc.obj
 0001:000221dd       __ehhandler$??$throw_bad_cast@V?$basic_string@DU?$char_traits@D@std@@V?$allocator@D@2@@std@@_J@detail@conversion@boost@@YAXXZ 100231dd f   misc.obj
 0001:000221dd       __ehhandler$??$throw_bad_cast@V?$basic_string@_WU?$char_traits@_W@std@@V?$allocator@_W@2@@std@@I@detail@conversion@boost@@YAXXZ 100231dd f   misc.obj
 0001:00022200       __ehhandler$??$_Uninitialized_move@PAV?$basic_string@DU?$char_traits@D@std@@V?$allocator@D@2@@std@@V?$allocator@V?$basic_string@DU?$char_traits@D@std@@V?$allocator@D@2@@std@@@2@@std@@YAPAV?$basic_string@DU?$char_traits@D@std@@V?$allocator@D@2@@0@QAV10@0PAV10@AAV?$allocator@V?$basic_string@DU?$char_traits@D@std@@V?$allocator@D@2@@std@@@0@@Z 10023200 f   misc.obj
 0001:00022220       __ehhandler$??$_Uninitialized_move@PAV?$basic_string@_WU?$char_traits@_W@std@@V?$allocator@_W@2@@std@@V?$allocator@V?$basic_string@_WU?$char_traits@_W@std@@V?$allocator@_W@2@@std@@@2@@std@@YAPAV?$basic_string@_WU?$char_traits@_W@std@@V?$allocator@_W@2@@0@QAV10@0PAV10@AAV?$allocator@V?$basic_string@_WU?$char_traits@_W@std@@V?$allocator@_W@2@@std@@@0@@Z 10023220 f   misc.obj
 0001:00022240       __ehhandler$??$_Emplace_reallocate@ABV?$basic_string@DU?$char_traits@D@std@@V?$allocator@D@2@@std@@@?$vector@V?$basic_string@DU?$char_traits@D@std@@V?$allocator@D@2@@std@@V?$allocator@V?$basic_string@DU?$char_traits@D@std@@V?$allocator@D@2@@std@@@2@@std@@QAEPAV?$basic_string@DU?$char_traits@D@std@@V?$allocator@D@2@@1@QAV21@ABV21@@Z 10023240 f   misc.obj
 0001:00022260       __unwindfunclet$??$insert@$00$0A@@?$_Tree@V?$_Tmap_traits@DU?$string_parse_tree@D@date_time@boost@@U?$less@D@std@@V?$allocator@U?$pair@$$CBDU?$string_parse_tree@D@date_time@boost@@@std@@@5@$00@std@@@std@@QAE?AV?$_Tree_iterator@V?$_Tree_val@U?$_Tree_simple_types@U?$pair@$$CBDU?$string_parse_tree@D@date_time@boost@@@std@@@std@@@std@@@1@$$QAU?$pair@$$CBDU?$string_parse_tree@D@date_time@boost@@@1@@Z$2 10023260 f   misc.obj
 0001:00022268       __unwindfunclet$??$insert@$00$0A@@?$_Tree@V?$_Tmap_traits@DU?$string_parse_tree@D@date_time@boost@@U?$less@D@std@@V?$allocator@U?$pair@$$CBDU?$string_parse_tree@D@date_time@boost@@@std@@@5@$00@std@@@std@@QAE?AV?$_Tree_iterator@V?$_Tree_val@U?$_Tree_simple_types@U?$pair@$$CBDU?$string_parse_tree@D@date_time@boost@@@std@@@std@@@std@@@1@$$QAU?$pair@$$CBDU?$string_parse_tree@D@date_time@boost@@@1@@Z$1 10023268 f   misc.obj
 0001:00022270       __unwindfunclet$??$insert@$00$0A@@?$_Tree@V?$_Tmap_traits@DU?$string_parse_tree@D@date_time@boost@@U?$less@D@std@@V?$allocator@U?$pair@$$CBDU?$string_parse_tree@D@date_time@boost@@@std@@@5@$00@std@@@std@@QAE?AV?$_Tree_iterator@V?$_Tree_val@U?$_Tree_simple_types@U?$pair@$$CBDU?$string_parse_tree@D@date_time@boost@@@std@@@std@@@std@@@1@$$QAU?$pair@$$CBDU?$string_parse_tree@D@date_time@boost@@@1@@Z$0 10023270 f   misc.obj
 0001:0002227d       __ehhandler$??$insert@$00$0A@@?$_Tree@V?$_Tmap_traits@DU?$string_parse_tree@D@date_time@boost@@U?$less@D@std@@V?$allocator@U?$pair@$$CBDU?$string_parse_tree@D@date_time@boost@@@std@@@5@$00@std@@@std@@QAE?AV?$_Tree_iterator@V?$_Tree_val@U?$_Tree_simple_types@U?$pair@$$CBDU?$string_parse_tree@D@date_time@boost@@@std@@@std@@@std@@@1@$$QAU?$pair@$$CBDU?$string_parse_tree@D@date_time@boost@@@1@@Z 1002327d f   misc.obj
 0001:000222a0       __unwindfunclet$??0?$clone_impl@Ubad_alloc_@exception_detail@boost@@@exception_detail@boost@@QAE@ABV012@@Z$0 100232a0 f   misc.obj
 0001:000222a0       __unwindfunclet$??0?$clone_impl@Ubad_exception_@exception_detail@boost@@@exception_detail@boost@@QAE@ABV012@@Z$0 100232a0 f   misc.obj
 0001:000222c1       __ehhandler$??0?$clone_impl@Ubad_alloc_@exception_detail@boost@@@exception_detail@boost@@QAE@ABV012@@Z 100232c1 f   misc.obj
 0001:000222c1       __ehhandler$??0?$clone_impl@Ubad_exception_@exception_detail@boost@@@exception_detail@boost@@QAE@ABV012@@Z 100232c1 f   misc.obj
 0001:000222e0       __unwindfunclet$?clone@?$clone_impl@Ubad_exception_@exception_detail@boost@@@exception_detail@boost@@EBEPBVclone_base@23@XZ$0 100232e0 f   misc.obj
 0001:000222ef       __unwindfunclet$?clone@?$clone_impl@Ubad_exception_@exception_detail@boost@@@exception_detail@boost@@EBEPBVclone_base@23@XZ$1 100232ef f   misc.obj
 0001:0002230b       __unwindfunclet$?clone@?$clone_impl@Ubad_exception_@exception_detail@boost@@@exception_detail@boost@@EBEPBVclone_base@23@XZ$2 1002330b f   misc.obj
 0001:00022318       __ehhandler$?clone@?$clone_impl@Ubad_exception_@exception_detail@boost@@@exception_detail@boost@@EBEPBVclone_base@23@XZ 10023318 f   misc.obj
 0001:00022340       __unwindfunclet$?clone@?$clone_impl@Ubad_alloc_@exception_detail@boost@@@exception_detail@boost@@EBEPBVclone_base@23@XZ$0 10023340 f   misc.obj
 0001:0002234f       __unwindfunclet$?clone@?$clone_impl@Ubad_alloc_@exception_detail@boost@@@exception_detail@boost@@EBEPBVclone_base@23@XZ$1 1002334f f   misc.obj
 0001:0002236b       __unwindfunclet$?clone@?$clone_impl@Ubad_alloc_@exception_detail@boost@@@exception_detail@boost@@EBEPBVclone_base@23@XZ$2 1002336b f   misc.obj
 0001:00022378       __ehhandler$?clone@?$clone_impl@Ubad_alloc_@exception_detail@boost@@@exception_detail@boost@@EBEPBVclone_base@23@XZ 10023378 f   misc.obj
 0001:000223a0       __unwindfunclet$?parse@?$basic_format@_WU?$char_traits@_W@std@@V?$allocator@_W@2@@boost@@QAEAAV12@ABV?$basic_string@_WU?$char_traits@_W@std@@V?$allocator@_W@2@@std@@@Z$0 100233a0 f   misc.obj
 0001:000223a8       __unwindfunclet$?parse@?$basic_format@_WU?$char_traits@_W@std@@V?$allocator@_W@2@@boost@@QAEAAV12@ABV?$basic_string@_WU?$char_traits@_W@std@@V?$allocator@_W@2@@std@@@Z$2 100233a8 f   misc.obj
 0001:000223b0       __unwindfunclet$?parse@?$basic_format@_WU?$char_traits@_W@std@@V?$allocator@_W@2@@boost@@QAEAAV12@ABV?$basic_string@_WU?$char_traits@_W@std@@V?$allocator@_W@2@@std@@@Z$1 100233b0 f   misc.obj
 0001:000223bd       __ehhandler$?parse@?$basic_format@_WU?$char_traits@_W@std@@V?$allocator@_W@2@@boost@@QAEAAV12@ABV?$basic_string@_WU?$char_traits@_W@std@@V?$allocator@_W@2@@std@@@Z 100233bd f   misc.obj
 0001:000223f0       __unwindfunclet$??$transform_range_copy@V?$basic_string@DU?$char_traits@D@std@@V?$allocator@D@2@@std@@V12@U?$to_lowerF@D@detail@algorithm@boost@@@detail@algorithm@boost@@YA?AV?$basic_string@DU?$char_traits@D@std@@V?$allocator@D@2@@std@@ABV34@U?$to_lowerF@D@012@@Z$4 100233f0 f   misc.obj
 0001:000223fd       __ehhandler$??$transform_range_copy@V?$basic_string@DU?$char_traits@D@std@@V?$allocator@D@2@@std@@V12@U?$to_lowerF@D@detail@algorithm@boost@@@detail@algorithm@boost@@YA?AV?$basic_string@DU?$char_traits@D@std@@V?$allocator@D@2@@std@@ABV34@U?$to_lowerF@D@012@@Z 100233fd f   misc.obj
 0001:00022420       __unwindfunclet$?convert@?$lcast_ret_unsigned@U?$char_traits@_W@std@@I_W@detail@boost@@QAE_NXZ$0 10023420 f   misc.obj
 0001:00022428       __unwindfunclet$?convert@?$lcast_ret_unsigned@U?$char_traits@_W@std@@I_W@detail@boost@@QAE_NXZ$3 10023428 f   misc.obj
 0001:00022431       __unwindfunclet$?convert@?$lcast_ret_unsigned@U?$char_traits@_W@std@@I_W@detail@boost@@QAE_NXZ$4 10023431 f   misc.obj
 0001:00022439       __unwindfunclet$?convert@?$lcast_ret_unsigned@U?$char_traits@_W@std@@I_W@detail@boost@@QAE_NXZ$1 10023439 f   misc.obj
 0001:00022446       __ehhandler$?convert@?$lcast_ret_unsigned@U?$char_traits@_W@std@@I_W@detail@boost@@QAE_NXZ 10023446 f   misc.obj
 0001:00022470       __ehhandler$??0?$format_item@_WU?$char_traits@_W@std@@V?$allocator@_W@2@@detail@io@boost@@QAE@_W@Z 10023470 f   misc.obj
 0001:00022490       __unwindfunclet$?resize@?$vector@U?$format_item@_WU?$char_traits@_W@std@@V?$allocator@_W@2@@detail@io@boost@@V?$allocator@U?$format_item@_WU?$char_traits@_W@std@@V?$allocator@_W@2@@detail@io@boost@@@std@@@std@@QAEXIABU?$format_item@_WU?$char_traits@_W@std@@V?$allocator@_W@2@@detail@io@boost@@@Z$0 10023490 f   misc.obj
 0001:0002249d       __ehhandler$?resize@?$vector@U?$format_item@_WU?$char_traits@_W@std@@V?$allocator@_W@2@@detail@io@boost@@V?$allocator@U?$format_item@_WU?$char_traits@_W@std@@V?$allocator@_W@2@@detail@io@boost@@@std@@@std@@QAEXIABU?$format_item@_WU?$char_traits@_W@std@@V?$allocator@_W@2@@detail@io@boost@@@Z 1002349d f   misc.obj
 0001:000224c0       __unwindfunclet$?make_or_reuse_data@?$basic_format@_WU?$char_traits@_W@std@@V?$allocator@_W@2@@boost@@AAEXI@Z$0 100234c0 f   misc.obj
 0001:000224c8       __unwindfunclet$?make_or_reuse_data@?$basic_format@_WU?$char_traits@_W@std@@V?$allocator@_W@2@@boost@@AAEXI@Z$1 100234c8 f   misc.obj
 0001:000224d0       __unwindfunclet$?make_or_reuse_data@?$basic_format@_WU?$char_traits@_W@std@@V?$allocator@_W@2@@boost@@AAEXI@Z$2 100234d0 f   misc.obj
 0001:000224dd       __ehhandler$?make_or_reuse_data@?$basic_format@_WU?$char_traits@_W@std@@V?$allocator@_W@2@@boost@@AAEXI@Z 100234dd f   misc.obj
 0001:00022510       __unwindfunclet$??$upper_bound_from_fstring@V?$basic_string@_WU?$char_traits@_W@std@@V?$allocator@_W@2@@std@@V?$ctype@_W@2@@detail@io@boost@@YAHABV?$basic_string@_WU?$char_traits@_W@std@@V?$allocator@_W@2@@std@@_WABV?$ctype@_W@4@E@Z$0 10023510 f   misc.obj
 0001:0002251d       __ehhandler$??$upper_bound_from_fstring@V?$basic_string@_WU?$char_traits@_W@std@@V?$allocator@_W@2@@std@@V?$ctype@_W@2@@detail@io@boost@@YAHABV?$basic_string@_WU?$char_traits@_W@std@@V?$allocator@_W@2@@std@@_WABV?$ctype@_W@4@E@Z 1002351d f   misc.obj
 0001:00022540       __unwindfunclet$??$parse_printf_directive@_WU?$char_traits@_W@std@@V?$allocator@_W@2@V?$_String_const_iterator@V?$_String_val@U?$_Simple_types@_W@std@@@std@@@2@V?$ctype@_W@2@@detail@io@boost@@YA_NAAV?$_String_const_iterator@V?$_String_val@U?$_Simple_types@_W@std@@@std@@@std@@ABV34@PAU?$format_item@_WU?$char_traits@_W@std@@V?$allocator@_W@2@@012@ABV?$ctype@_W@4@IE@Z$7 10023540 f   misc.obj
 0001:00022548       __unwindfunclet$??$parse_printf_directive@_WU?$char_traits@_W@std@@V?$allocator@_W@2@V?$_String_const_iterator@V?$_String_val@U?$_Simple_types@_W@std@@@std@@@2@V?$ctype@_W@2@@detail@io@boost@@YA_NAAV?$_String_const_iterator@V?$_String_val@U?$_Simple_types@_W@std@@@std@@@std@@ABV34@PAU?$format_item@_WU?$char_traits@_W@std@@V?$allocator@_W@2@@012@ABV?$ctype@_W@4@IE@Z$13 10023548 f   misc.obj
 0001:00022550       __unwindfunclet$??$parse_printf_directive@_WU?$char_traits@_W@std@@V?$allocator@_W@2@V?$_String_const_iterator@V?$_String_val@U?$_Simple_types@_W@std@@@std@@@2@V?$ctype@_W@2@@detail@io@boost@@YA_NAAV?$_String_const_iterator@V?$_String_val@U?$_Simple_types@_W@std@@@std@@@std@@ABV34@PAU?$format_item@_WU?$char_traits@_W@std@@V?$allocator@_W@2@@012@ABV?$ctype@_W@4@IE@Z$10 10023550 f   misc.obj
 0001:00022558       __unwindfunclet$??$parse_printf_directive@_WU?$char_traits@_W@std@@V?$allocator@_W@2@V?$_String_const_iterator@V?$_String_val@U?$_Simple_types@_W@std@@@std@@@2@V?$ctype@_W@2@@detail@io@boost@@YA_NAAV?$_String_const_iterator@V?$_String_val@U?$_Simple_types@_W@std@@@std@@@std@@ABV34@PAU?$format_item@_WU?$char_traits@_W@std@@V?$allocator@_W@2@@012@ABV?$ctype@_W@4@IE@Z$16 10023558 f   misc.obj
 0001:00022560       __unwindfunclet$??$parse_printf_directive@_WU?$char_traits@_W@std@@V?$allocator@_W@2@V?$_String_const_iterator@V?$_String_val@U?$_Simple_types@_W@std@@@std@@@2@V?$ctype@_W@2@@detail@io@boost@@YA_NAAV?$_String_const_iterator@V?$_String_val@U?$_Simple_types@_W@std@@@std@@@std@@ABV34@PAU?$format_item@_WU?$char_traits@_W@std@@V?$allocator@_W@2@@012@ABV?$ctype@_W@4@IE@Z$25 10023560 f   misc.obj
 0001:00022568       __unwindfunclet$??$parse_printf_directive@_WU?$char_traits@_W@std@@V?$allocator@_W@2@V?$_String_const_iterator@V?$_String_val@U?$_Simple_types@_W@std@@@std@@@2@V?$ctype@_W@2@@detail@io@boost@@YA_NAAV?$_String_const_iterator@V?$_String_val@U?$_Simple_types@_W@std@@@std@@@std@@ABV34@PAU?$format_item@_WU?$char_traits@_W@std@@V?$allocator@_W@2@@012@ABV?$ctype@_W@4@IE@Z$22 10023568 f   misc.obj
 0001:00022570       __unwindfunclet$??$parse_printf_directive@_WU?$char_traits@_W@std@@V?$allocator@_W@2@V?$_String_const_iterator@V?$_String_val@U?$_Simple_types@_W@std@@@std@@@2@V?$ctype@_W@2@@detail@io@boost@@YA_NAAV?$_String_const_iterator@V?$_String_val@U?$_Simple_types@_W@std@@@std@@@std@@ABV34@PAU?$format_item@_WU?$char_traits@_W@std@@V?$allocator@_W@2@@012@ABV?$ctype@_W@4@IE@Z$28 10023570 f   misc.obj
 0001:00022578       __unwindfunclet$??$parse_printf_directive@_WU?$char_traits@_W@std@@V?$allocator@_W@2@V?$_String_const_iterator@V?$_String_val@U?$_Simple_types@_W@std@@@std@@@2@V?$ctype@_W@2@@detail@io@boost@@YA_NAAV?$_String_const_iterator@V?$_String_val@U?$_Simple_types@_W@std@@@std@@@std@@ABV34@PAU?$format_item@_WU?$char_traits@_W@std@@V?$allocator@_W@2@@012@ABV?$ctype@_W@4@IE@Z$31 10023578 f   misc.obj
 0001:00022580       __unwindfunclet$??$parse_printf_directive@_WU?$char_traits@_W@std@@V?$allocator@_W@2@V?$_String_const_iterator@V?$_String_val@U?$_Simple_types@_W@std@@@std@@@2@V?$ctype@_W@2@@detail@io@boost@@YA_NAAV?$_String_const_iterator@V?$_String_val@U?$_Simple_types@_W@std@@@std@@@std@@ABV34@PAU?$format_item@_WU?$char_traits@_W@std@@V?$allocator@_W@2@@012@ABV?$ctype@_W@4@IE@Z$43 10023580 f   misc.obj
 0001:00022588       __unwindfunclet$??$parse_printf_directive@_WU?$char_traits@_W@std@@V?$allocator@_W@2@V?$_String_const_iterator@V?$_String_val@U?$_Simple_types@_W@std@@@std@@@2@V?$ctype@_W@2@@detail@io@boost@@YA_NAAV?$_String_const_iterator@V?$_String_val@U?$_Simple_types@_W@std@@@std@@@std@@ABV34@PAU?$format_item@_WU?$char_traits@_W@std@@V?$allocator@_W@2@@012@ABV?$ctype@_W@4@IE@Z$37 10023588 f   misc.obj
 0001:00022590       __unwindfunclet$??$parse_printf_directive@_WU?$char_traits@_W@std@@V?$allocator@_W@2@V?$_String_const_iterator@V?$_String_val@U?$_Simple_types@_W@std@@@std@@@2@V?$ctype@_W@2@@detail@io@boost@@YA_NAAV?$_String_const_iterator@V?$_String_val@U?$_Simple_types@_W@std@@@std@@@std@@ABV34@PAU?$format_item@_WU?$char_traits@_W@std@@V?$allocator@_W@2@@012@ABV?$ctype@_W@4@IE@Z$40 10023590 f   misc.obj
 0001:00022598       __unwindfunclet$??$parse_printf_directive@_WU?$char_traits@_W@std@@V?$allocator@_W@2@V?$_String_const_iterator@V?$_String_val@U?$_Simple_types@_W@std@@@std@@@2@V?$ctype@_W@2@@detail@io@boost@@YA_NAAV?$_String_const_iterator@V?$_String_val@U?$_Simple_types@_W@std@@@std@@@std@@ABV34@PAU?$format_item@_WU?$char_traits@_W@std@@V?$allocator@_W@2@@012@ABV?$ctype@_W@4@IE@Z$34 10023598 f   misc.obj
 0001:000225a0       __unwindfunclet$??$parse_printf_directive@_WU?$char_traits@_W@std@@V?$allocator@_W@2@V?$_String_const_iterator@V?$_String_val@U?$_Simple_types@_W@std@@@std@@@2@V?$ctype@_W@2@@detail@io@boost@@YA_NAAV?$_String_const_iterator@V?$_String_val@U?$_Simple_types@_W@std@@@std@@@std@@ABV34@PAU?$format_item@_WU?$char_traits@_W@std@@V?$allocator@_W@2@@012@ABV?$ctype@_W@4@IE@Z$19 100235a0 f   misc.obj
 0001:000225a8       __unwindfunclet$??$parse_printf_directive@_WU?$char_traits@_W@std@@V?$allocator@_W@2@V?$_String_const_iterator@V?$_String_val@U?$_Simple_types@_W@std@@@std@@@2@V?$ctype@_W@2@@detail@io@boost@@YA_NAAV?$_String_const_iterator@V?$_String_val@U?$_Simple_types@_W@std@@@std@@@std@@ABV34@PAU?$format_item@_WU?$char_traits@_W@std@@V?$allocator@_W@2@@012@ABV?$ctype@_W@4@IE@Z$4 100235a8 f   misc.obj
 0001:000225b5       __ehhandler$??$parse_printf_directive@_WU?$char_traits@_W@std@@V?$allocator@_W@2@V?$_String_const_iterator@V?$_String_val@U?$_Simple_types@_W@std@@@std@@@2@V?$ctype@_W@2@@detail@io@boost@@YA_NAAV?$_String_const_iterator@V?$_String_val@U?$_Simple_types@_W@std@@@std@@@std@@ABV34@PAU?$format_item@_WU?$char_traits@_W@std@@V?$allocator@_W@2@@012@ABV?$ctype@_W@4@IE@Z 100235b5 f   misc.obj
 0001:000225e0       __unwindfunclet$??$feed_impl@_WU?$char_traits@_W@std@@V?$allocator@_W@2@ABU?$put_holder@_WU?$char_traits@_W@std@@@detail@io@boost@@@detail@io@boost@@YAAAV?$basic_format@_WU?$char_traits@_W@std@@V?$allocator@_W@2@@2@AAV32@ABU?$put_holder@_WU?$char_traits@_W@std@@@012@@Z$0 100235e0 f   misc.obj
 0001:000225ed       __ehhandler$??$feed_impl@_WU?$char_traits@_W@std@@V?$allocator@_W@2@ABU?$put_holder@_WU?$char_traits@_W@std@@@detail@io@boost@@@detail@io@boost@@YAAAV?$basic_format@_WU?$char_traits@_W@std@@V?$allocator@_W@2@@2@AAV32@ABU?$put_holder@_WU?$char_traits@_W@std@@@012@@Z 100235ed f   misc.obj
 0001:00022610       __unwindfunclet$??$_Emplace_hint@ABU?$pair@$$CBV?$basic_string@DU?$char_traits@D@std@@V?$allocator@D@2@@std@@G@std@@@?$_Tree@V?$_Tmap_traits@V?$basic_string@DU?$char_traits@D@std@@V?$allocator@D@2@@std@@GU?$less@V?$basic_string@DU?$char_traits@D@std@@V?$allocator@D@2@@std@@@2@V?$allocator@U?$pair@$$CBV?$basic_string@DU?$char_traits@D@std@@V?$allocator@D@2@@std@@G@std@@@2@$0A@@std@@@std@@IAEPAU?$_Tree_node@U?$pair@$$CBV?$basic_string@DU?$char_traits@D@std@@V?$allocator@D@2@@std@@G@std@@PAX@1@QAU21@ABU?$pair@$$CBV?$basic_string@DU?$char_traits@D@std@@V?$allocator@D@2@@std@@G@1@@Z$2 10023610 f   misc.obj
 0001:00022618       __unwindfunclet$??$_Emplace_hint@ABU?$pair@$$CBV?$basic_string@DU?$char_traits@D@std@@V?$allocator@D@2@@std@@G@std@@@?$_Tree@V?$_Tmap_traits@V?$basic_string@DU?$char_traits@D@std@@V?$allocator@D@2@@std@@GU?$less@V?$basic_string@DU?$char_traits@D@std@@V?$allocator@D@2@@std@@@2@V?$allocator@U?$pair@$$CBV?$basic_string@DU?$char_traits@D@std@@V?$allocator@D@2@@std@@G@std@@@2@$0A@@std@@@std@@IAEPAU?$_Tree_node@U?$pair@$$CBV?$basic_string@DU?$char_traits@D@std@@V?$allocator@D@2@@std@@G@std@@PAX@1@QAU21@ABU?$pair@$$CBV?$basic_string@DU?$char_traits@D@std@@V?$allocator@D@2@@std@@G@1@@Z$1 10023618 f   misc.obj
 0001:00022625       __ehhandler$??$_Emplace_hint@ABU?$pair@$$CBV?$basic_string@DU?$char_traits@D@std@@V?$allocator@D@2@@std@@G@std@@@?$_Tree@V?$_Tmap_traits@V?$basic_string@DU?$char_traits@D@std@@V?$allocator@D@2@@std@@GU?$less@V?$basic_string@DU?$char_traits@D@std@@V?$allocator@D@2@@std@@@2@V?$allocator@U?$pair@$$CBV?$basic_string@DU?$char_traits@D@std@@V?$allocator@D@2@@std@@G@std@@@2@$0A@@std@@@std@@IAEPAU?$_Tree_node@U?$pair@$$CBV?$basic_string@DU?$char_traits@D@std@@V?$allocator@D@2@@std@@G@std@@PAX@1@QAU21@ABU?$pair@$$CBV?$basic_string@DU?$char_traits@D@std@@V?$allocator@D@2@@std@@G@1@@Z 10023625 f   misc.obj
 0001:00022650       __unwindfunclet$?convert@?$lcast_ret_unsigned@U?$char_traits@D@std@@GD@detail@boost@@QAE_NXZ$0 10023650 f   misc.obj
 0001:00022650       __unwindfunclet$?convert@?$lcast_ret_unsigned@U?$char_traits@D@std@@_KD@detail@boost@@QAE_NXZ$0 10023650 f   misc.obj
 0001:00022658       __unwindfunclet$?convert@?$lcast_ret_unsigned@U?$char_traits@D@std@@GD@detail@boost@@QAE_NXZ$1 10023658 f   misc.obj
 0001:00022658       __unwindfunclet$?convert@?$lcast_ret_unsigned@U?$char_traits@D@std@@_KD@detail@boost@@QAE_NXZ$1 10023658 f   misc.obj
 0001:00022665       __ehhandler$?convert@?$lcast_ret_unsigned@U?$char_traits@D@std@@GD@detail@boost@@QAE_NXZ 10023665 f   misc.obj
 0001:00022665       __ehhandler$?convert@?$lcast_ret_unsigned@U?$char_traits@D@std@@_KD@detail@boost@@QAE_NXZ 10023665 f   misc.obj
 0001:00022690       __unwindfunclet$?assign@?$vector@U?$format_item@_WU?$char_traits@_W@std@@V?$allocator@_W@2@@detail@io@boost@@V?$allocator@U?$format_item@_WU?$char_traits@_W@std@@V?$allocator@_W@2@@detail@io@boost@@@std@@@std@@QAEXIABU?$format_item@_WU?$char_traits@_W@std@@V?$allocator@_W@2@@detail@io@boost@@@Z$0 10023690 f   misc.obj
 0001:0002269d       __ehhandler$?assign@?$vector@U?$format_item@_WU?$char_traits@_W@std@@V?$allocator@_W@2@@detail@io@boost@@V?$allocator@U?$format_item@_WU?$char_traits@_W@std@@V?$allocator@_W@2@@detail@io@boost@@@std@@@std@@QAEXIABU?$format_item@_WU?$char_traits@_W@std@@V?$allocator@_W@2@@detail@io@boost@@@Z 1002369d f   misc.obj
 0001:000226c0       __ehhandler$?erase@?$vector@_NV?$allocator@_N@std@@@std@@QAE?AV?$_Vb_iterator@U?$_Wrap_alloc@V?$allocator@I@std@@@std@@@2@V?$_Vb_const_iterator@U?$_Wrap_alloc@V?$allocator@I@std@@@std@@@2@0@Z 100236c0 f   misc.obj
 0001:000226e0       __ehhandler$??$?0V?$clone_impl@Ubad_alloc_@exception_detail@boost@@@exception_detail@boost@@@shared_count@detail@boost@@QAE@PAV?$clone_impl@Ubad_alloc_@exception_detail@boost@@@exception_detail@2@@Z 100236e0 f   misc.obj
 0001:00022700       __ehhandler$??$?0V?$clone_impl@Ubad_exception_@exception_detail@boost@@@exception_detail@boost@@@shared_count@detail@boost@@QAE@PAV?$clone_impl@Ubad_exception_@exception_detail@boost@@@exception_detail@2@@Z 10023700 f   misc.obj
 0001:00022720       __unwindfunclet$??$_Resize_reallocate@U?$format_item@_WU?$char_traits@_W@std@@V?$allocator@_W@2@@detail@io@boost@@@?$vector@U?$format_item@_WU?$char_traits@_W@std@@V?$allocator@_W@2@@detail@io@boost@@V?$allocator@U?$format_item@_WU?$char_traits@_W@std@@V?$allocator@_W@2@@detail@io@boost@@@std@@@std@@AAEXIABU?$format_item@_WU?$char_traits@_W@std@@V?$allocator@_W@2@@detail@io@boost@@@Z$2 10023720 f   misc.obj
 0001:0002272d       __ehhandler$??$_Resize_reallocate@U?$format_item@_WU?$char_traits@_W@std@@V?$allocator@_W@2@@detail@io@boost@@@?$vector@U?$format_item@_WU?$char_traits@_W@std@@V?$allocator@_W@2@@detail@io@boost@@V?$allocator@U?$format_item@_WU?$char_traits@_W@std@@V?$allocator@_W@2@@detail@io@boost@@@std@@@std@@AAEXIABU?$format_item@_WU?$char_traits@_W@std@@V?$allocator@_W@2@@detail@io@boost@@@Z 1002372d f   misc.obj
 0001:00022750       __unwindfunclet$?convert@?$lcast_ret_unsigned@U?$char_traits@D@std@@ID@detail@boost@@QAE_NXZ$0 10023750 f   misc.obj
 0001:00022758       __unwindfunclet$?convert@?$lcast_ret_unsigned@U?$char_traits@D@std@@ID@detail@boost@@QAE_NXZ$1 10023758 f   misc.obj
 0001:00022765       __ehhandler$?convert@?$lcast_ret_unsigned@U?$char_traits@D@std@@ID@detail@boost@@QAE_NXZ 10023765 f   misc.obj
 0001:00022790       __unwindfunclet$??$put@_WU?$char_traits@_W@std@@V?$allocator@_W@2@ABU?$put_holder@_WU?$char_traits@_W@std@@@detail@io@boost@@@detail@io@boost@@YAXABU?$put_holder@_WU?$char_traits@_W@std@@@012@ABU?$format_item@_WU?$char_traits@_W@std@@V?$allocator@_W@2@@012@AAV?$basic_string@_WU?$char_traits@_W@std@@V?$allocator@_W@2@@std@@AAV?$basic_altstringbuf@_WU?$char_traits@_W@std@@V?$allocator@_W@2@@12@PAVlocale@6@@Z$3 10023790 f   misc.obj
 0001:000227ad       __unwindfunclet$??$put@_WU?$char_traits@_W@std@@V?$allocator@_W@2@ABU?$put_holder@_WU?$char_traits@_W@std@@@detail@io@boost@@@detail@io@boost@@YAXABU?$put_holder@_WU?$char_traits@_W@std@@@012@ABU?$format_item@_WU?$char_traits@_W@std@@V?$allocator@_W@2@@012@AAV?$basic_string@_WU?$char_traits@_W@std@@V?$allocator@_W@2@@std@@AAV?$basic_altstringbuf@_WU?$char_traits@_W@std@@V?$allocator@_W@2@@12@PAVlocale@6@@Z$4 100237ad f   misc.obj
 0001:000227b8       __unwindfunclet$??$put@_WU?$char_traits@_W@std@@V?$allocator@_W@2@ABU?$put_holder@_WU?$char_traits@_W@std@@@detail@io@boost@@@detail@io@boost@@YAXABU?$put_holder@_WU?$char_traits@_W@std@@@012@ABU?$format_item@_WU?$char_traits@_W@std@@V?$allocator@_W@2@@012@AAV?$basic_string@_WU?$char_traits@_W@std@@V?$allocator@_W@2@@std@@AAV?$basic_altstringbuf@_WU?$char_traits@_W@std@@V?$allocator@_W@2@@12@PAVlocale@6@@Z$0 100237b8 f   misc.obj
 0001:000227c3       __unwindfunclet$??$put@_WU?$char_traits@_W@std@@V?$allocator@_W@2@ABU?$put_holder@_WU?$char_traits@_W@std@@@detail@io@boost@@@detail@io@boost@@YAXABU?$put_holder@_WU?$char_traits@_W@std@@@012@ABU?$format_item@_WU?$char_traits@_W@std@@V?$allocator@_W@2@@012@AAV?$basic_string@_WU?$char_traits@_W@std@@V?$allocator@_W@2@@std@@AAV?$basic_altstringbuf@_WU?$char_traits@_W@std@@V?$allocator@_W@2@@12@PAVlocale@6@@Z$8 100237c3 f   misc.obj
 0001:000227e0       __unwindfunclet$??$put@_WU?$char_traits@_W@std@@V?$allocator@_W@2@ABU?$put_holder@_WU?$char_traits@_W@std@@@detail@io@boost@@@detail@io@boost@@YAXABU?$put_holder@_WU?$char_traits@_W@std@@@012@ABU?$format_item@_WU?$char_traits@_W@std@@V?$allocator@_W@2@@012@AAV?$basic_string@_WU?$char_traits@_W@std@@V?$allocator@_W@2@@std@@AAV?$basic_altstringbuf@_WU?$char_traits@_W@std@@V?$allocator@_W@2@@12@PAVlocale@6@@Z$9 100237e0 f   misc.obj
 0001:000227eb       __unwindfunclet$??$put@_WU?$char_traits@_W@std@@V?$allocator@_W@2@ABU?$put_holder@_WU?$char_traits@_W@std@@@detail@io@boost@@@detail@io@boost@@YAXABU?$put_holder@_WU?$char_traits@_W@std@@@012@ABU?$format_item@_WU?$char_traits@_W@std@@V?$allocator@_W@2@@012@AAV?$basic_string@_WU?$char_traits@_W@std@@V?$allocator@_W@2@@std@@AAV?$basic_altstringbuf@_WU?$char_traits@_W@std@@V?$allocator@_W@2@@12@PAVlocale@6@@Z$2 100237eb f   misc.obj
 0001:000227fb       __ehhandler$??$put@_WU?$char_traits@_W@std@@V?$allocator@_W@2@ABU?$put_holder@_WU?$char_traits@_W@std@@@detail@io@boost@@@detail@io@boost@@YAXABU?$put_holder@_WU?$char_traits@_W@std@@@012@ABU?$format_item@_WU?$char_traits@_W@std@@V?$allocator@_W@2@@012@AAV?$basic_string@_WU?$char_traits@_W@std@@V?$allocator@_W@2@@std@@AAV?$basic_altstringbuf@_WU?$char_traits@_W@std@@V?$allocator@_W@2@@12@PAVlocale@6@@Z 100237fb f   misc.obj
 0001:00022820       __unwindfunclet$??0?$format_item@_WU?$char_traits@_W@std@@V?$allocator@_W@2@@detail@io@boost@@QAE@ABU0123@@Z$0 10023820 f   misc.obj
 0001:00022830       __ehhandler$??0?$format_item@_WU?$char_traits@_W@std@@V?$allocator@_W@2@@detail@io@boost@@QAE@ABU0123@@Z 10023830 f   misc.obj
 0001:00022850       __ehhandler$??0?$format_item@_WU?$char_traits@_W@std@@V?$allocator@_W@2@@detail@io@boost@@QAE@$$QAU0123@@Z 10023850 f   misc.obj
 0001:00022870       __ehhandler$??$?0PAV?$basic_altstringbuf@_WU?$char_traits@_W@std@@V?$allocator@_W@2@@io@boost@@VNo_Op@?$basic_oaltstringstream@_WU?$char_traits@_W@std@@V?$allocator@_W@2@@12@@shared_count@detail@boost@@QAE@PAV?$basic_altstringbuf@_WU?$char_traits@_W@std@@V?$allocator@_W@2@@io@2@VNo_Op@?$basic_oaltstringstream@_WU?$char_traits@_W@std@@V?$allocator@_W@2@@42@@Z 10023870 f   misc.obj
 0001:00022890       __unwindfunclet$??0NameValueMap@yloader@@QAE@ABV01@@Z$3 10023890 f   namevalue.obj
 0001:00022898       __unwindfunclet$??0NameValueMap@yloader@@QAE@ABV01@@Z$0 10023898 f   namevalue.obj
 0001:000228a5       __ehhandler$??0NameValueMap@yloader@@QAE@ABV01@@Z 100238a5 f   namevalue.obj
 0001:000228d0       __unwindfunclet$??ANameValueMap@yloader@@QBE?AVNameValue@1@I@Z$0 100238d0 f   namevalue.obj
 0001:000228db       __unwindfunclet$??ANameValueMap@yloader@@QBE?AVNameValue@1@I@Z$1 100238db f   namevalue.obj
 0001:000228fa       __unwindfunclet$??ANameValueMap@yloader@@QBE?AVNameValue@1@I@Z$7 100238fa f   namevalue.obj
 0001:00022905       __unwindfunclet$??ANameValueMap@yloader@@QBE?AVNameValue@1@I@Z$2 10023905 f   namevalue.obj
 0001:00022927       __unwindfunclet$??ANameValueMap@yloader@@QBE?AVNameValue@1@I@Z$10 10023927 f   namevalue.obj
 0001:00022934       __ehhandler$??ANameValueMap@yloader@@QBE?AVNameValue@1@I@Z 10023934 f   namevalue.obj
 0001:00022960       __unwindfunclet$?add@NameValueMap@yloader@@QAEXABV?$basic_string@_WU?$char_traits@_W@std@@V?$allocator@_W@2@@std@@0@Z$0 10023960 f   namevalue.obj
 0001:0002296f       __unwindfunclet$?add@NameValueMap@yloader@@QAEXABV?$basic_string@_WU?$char_traits@_W@std@@V?$allocator@_W@2@@std@@0@Z$4 1002396f f   namevalue.obj
 0001:00022977       __unwindfunclet$?add@NameValueMap@yloader@@QAEXABV?$basic_string@_WU?$char_traits@_W@std@@V?$allocator@_W@2@@std@@0@Z$6 10023977 f   namevalue.obj
 0001:0002297f       __unwindfunclet$?add@NameValueMap@yloader@@QAEXABV?$basic_string@_WU?$char_traits@_W@std@@V?$allocator@_W@2@@std@@0@Z$1 1002397f f   namevalue.obj
 0001:00022987       __unwindfunclet$?add@NameValueMap@yloader@@QAEXABV?$basic_string@_WU?$char_traits@_W@std@@V?$allocator@_W@2@@std@@0@Z$2 10023987 f   namevalue.obj
 0001:00022994       __ehhandler$?add@NameValueMap@yloader@@QAEXABV?$basic_string@_WU?$char_traits@_W@std@@V?$allocator@_W@2@@std@@0@Z 10023994 f   namevalue.obj
 0001:000229c0       __unwindfunclet$?toString@NameValueMap@yloader@@QBE?AV?$shared_ptr@V?$basic_string@_WU?$char_traits@_W@std@@V?$allocator@_W@2@@std@@@std@@_N@Z$10 100239c0 f   namevalue.obj
 0001:000229c8       __unwindfunclet$?toString@NameValueMap@yloader@@QBE?AV?$shared_ptr@V?$basic_string@_WU?$char_traits@_W@std@@V?$allocator@_W@2@@std@@@std@@_N@Z$0 100239c8 f   namevalue.obj
 0001:000229e1       __unwindfunclet$?toString@NameValueMap@yloader@@QBE?AV?$shared_ptr@V?$basic_string@_WU?$char_traits@_W@std@@V?$allocator@_W@2@@std@@@std@@_N@Z$1 100239e1 f   namevalue.obj
 0001:000229e9       __unwindfunclet$?toString@NameValueMap@yloader@@QBE?AV?$shared_ptr@V?$basic_string@_WU?$char_traits@_W@std@@V?$allocator@_W@2@@std@@@std@@_N@Z$2 100239e9 f   namevalue.obj
 0001:000229f1       __unwindfunclet$?toString@NameValueMap@yloader@@QBE?AV?$shared_ptr@V?$basic_string@_WU?$char_traits@_W@std@@V?$allocator@_W@2@@std@@@std@@_N@Z$3 100239f1 f   namevalue.obj
 0001:000229f9       __unwindfunclet$?toString@NameValueMap@yloader@@QBE?AV?$shared_ptr@V?$basic_string@_WU?$char_traits@_W@std@@V?$allocator@_W@2@@std@@@std@@_N@Z$4 100239f9 f   namevalue.obj
 0001:00022a01       __unwindfunclet$?toString@NameValueMap@yloader@@QBE?AV?$shared_ptr@V?$basic_string@_WU?$char_traits@_W@std@@V?$allocator@_W@2@@std@@@std@@_N@Z$5 10023a01 f   namevalue.obj
 0001:00022a0e       __ehhandler$?toString@NameValueMap@yloader@@QBE?AV?$shared_ptr@V?$basic_string@_WU?$char_traits@_W@std@@V?$allocator@_W@2@@std@@@std@@_N@Z 10023a0e f   namevalue.obj
 0001:00022a40       __unwindfunclet$??0?$multimap@V?$basic_string@_WU?$char_traits@_W@std@@V?$allocator@_W@2@@std@@V?$shared_ptr@VNameValue@yloader@@@2@U?$less@V?$basic_string@_WU?$char_traits@_W@std@@V?$allocator@_W@2@@std@@@2@V?$allocator@U?$pair@$$CBV?$basic_string@_WU?$char_traits@_W@std@@V?$allocator@_W@2@@std@@V?$shared_ptr@VNameValue@yloader@@@2@@std@@@2@@std@@QAE@V?$initializer_list@U?$pair@$$CBV?$basic_string@_WU?$char_traits@_W@std@@V?$allocator@_W@2@@std@@V?$shared_ptr@VNameValue@yloader@@@2@@std@@@1@@Z$0 10023a40 f   namevalue.obj
 0001:00022a40       __unwindfunclet$??0?$multimap@V?$basic_string@_WU?$char_traits@_W@std@@V?$allocator@_W@2@@std@@V?$shared_ptr@VNameValue@yloader@@@2@U?$less@V?$basic_string@_WU?$char_traits@_W@std@@V?$allocator@_W@2@@std@@@2@V?$allocator@U?$pair@$$CBV?$basic_string@_WU?$char_traits@_W@std@@V?$allocator@_W@2@@std@@V?$shared_ptr@VNameValue@yloader@@@2@@std@@@2@@std@@QAE@V?$initializer_list@U?$pair@$$CBV?$basic_string@_WU?$char_traits@_W@std@@V?$allocator@_W@2@@std@@V?$shared_ptr@VNameValue@yloader@@@2@@std@@@1@ABU?$less@V?$basic_string@_WU?$char_traits@_W@std@@V?$allocator@_W@2@@std@@@1@@Z$0 10023a40 f   namevalue.obj
 0001:00022a40       __unwindfunclet$??0?$multimap@V?$basic_string@_WU?$char_traits@_W@std@@V?$allocator@_W@2@@std@@V?$shared_ptr@VNameValue@yloader@@@2@U?$less@V?$basic_string@_WU?$char_traits@_W@std@@V?$allocator@_W@2@@std@@@2@V?$allocator@U?$pair@$$CBV?$basic_string@_WU?$char_traits@_W@std@@V?$allocator@_W@2@@std@@V?$shared_ptr@VNameValue@yloader@@@2@@std@@@2@@std@@QAE@V?$initializer_list@U?$pair@$$CBV?$basic_string@_WU?$char_traits@_W@std@@V?$allocator@_W@2@@std@@V?$shared_ptr@VNameValue@yloader@@@2@@std@@@1@ABU?$less@V?$basic_string@_WU?$char_traits@_W@std@@V?$allocator@_W@2@@std@@@1@ABV?$allocator@U?$pair@$$CBV?$basic_string@_WU?$char_traits@_W@std@@V?$allocator@_W@2@@std@@V?$shared_ptr@VNameValue@yloader@@@2@@std@@@1@@Z$0 10023a40 f   namevalue.obj
 0001:00022a40       __unwindfunclet$??0?$multimap@V?$basic_string@_WU?$char_traits@_W@std@@V?$allocator@_W@2@@std@@V?$shared_ptr@VNameValue@yloader@@@2@U?$less@V?$basic_string@_WU?$char_traits@_W@std@@V?$allocator@_W@2@@std@@@2@V?$allocator@U?$pair@$$CBV?$basic_string@_WU?$char_traits@_W@std@@V?$allocator@_W@2@@std@@V?$shared_ptr@VNameValue@yloader@@@2@@std@@@2@@std@@QAE@V?$initializer_list@U?$pair@$$CBV?$basic_string@_WU?$char_traits@_W@std@@V?$allocator@_W@2@@std@@V?$shared_ptr@VNameValue@yloader@@@2@@std@@@1@ABV?$allocator@U?$pair@$$CBV?$basic_string@_WU?$char_traits@_W@std@@V?$allocator@_W@2@@std@@V?$shared_ptr@VNameValue@yloader@@@2@@std@@@1@@Z$0 10023a40 f   namevalue.obj
 0001:00022a4d       __ehhandler$??0?$multimap@V?$basic_string@_WU?$char_traits@_W@std@@V?$allocator@_W@2@@std@@V?$shared_ptr@VNameValue@yloader@@@2@U?$less@V?$basic_string@_WU?$char_traits@_W@std@@V?$allocator@_W@2@@std@@@2@V?$allocator@U?$pair@$$CBV?$basic_string@_WU?$char_traits@_W@std@@V?$allocator@_W@2@@std@@V?$shared_ptr@VNameValue@yloader@@@2@@std@@@2@@std@@QAE@V?$initializer_list@U?$pair@$$CBV?$basic_string@_WU?$char_traits@_W@std@@V?$allocator@_W@2@@std@@V?$shared_ptr@VNameValue@yloader@@@2@@std@@@1@@Z 10023a4d f   namevalue.obj
 0001:00022a4d       __ehhandler$??0?$multimap@V?$basic_string@_WU?$char_traits@_W@std@@V?$allocator@_W@2@@std@@V?$shared_ptr@VNameValue@yloader@@@2@U?$less@V?$basic_string@_WU?$char_traits@_W@std@@V?$allocator@_W@2@@std@@@2@V?$allocator@U?$pair@$$CBV?$basic_string@_WU?$char_traits@_W@std@@V?$allocator@_W@2@@std@@V?$shared_ptr@VNameValue@yloader@@@2@@std@@@2@@std@@QAE@V?$initializer_list@U?$pair@$$CBV?$basic_string@_WU?$char_traits@_W@std@@V?$allocator@_W@2@@std@@V?$shared_ptr@VNameValue@yloader@@@2@@std@@@1@ABU?$less@V?$basic_string@_WU?$char_traits@_W@std@@V?$allocator@_W@2@@std@@@1@@Z 10023a4d f   namevalue.obj
 0001:00022a4d       __ehhandler$??0?$multimap@V?$basic_string@_WU?$char_traits@_W@std@@V?$allocator@_W@2@@std@@V?$shared_ptr@VNameValue@yloader@@@2@U?$less@V?$basic_string@_WU?$char_traits@_W@std@@V?$allocator@_W@2@@std@@@2@V?$allocator@U?$pair@$$CBV?$basic_string@_WU?$char_traits@_W@std@@V?$allocator@_W@2@@std@@V?$shared_ptr@VNameValue@yloader@@@2@@std@@@2@@std@@QAE@V?$initializer_list@U?$pair@$$CBV?$basic_string@_WU?$char_traits@_W@std@@V?$allocator@_W@2@@std@@V?$shared_ptr@VNameValue@yloader@@@2@@std@@@1@ABU?$less@V?$basic_string@_WU?$char_traits@_W@std@@V?$allocator@_W@2@@std@@@1@ABV?$allocator@U?$pair@$$CBV?$basic_string@_WU?$char_traits@_W@std@@V?$allocator@_W@2@@std@@V?$shared_ptr@VNameValue@yloader@@@2@@std@@@1@@Z 10023a4d f   namevalue.obj
 0001:00022a4d       __ehhandler$??0?$multimap@V?$basic_string@_WU?$char_traits@_W@std@@V?$allocator@_W@2@@std@@V?$shared_ptr@VNameValue@yloader@@@2@U?$less@V?$basic_string@_WU?$char_traits@_W@std@@V?$allocator@_W@2@@std@@@2@V?$allocator@U?$pair@$$CBV?$basic_string@_WU?$char_traits@_W@std@@V?$allocator@_W@2@@std@@V?$shared_ptr@VNameValue@yloader@@@2@@std@@@2@@std@@QAE@V?$initializer_list@U?$pair@$$CBV?$basic_string@_WU?$char_traits@_W@std@@V?$allocator@_W@2@@std@@V?$shared_ptr@VNameValue@yloader@@@2@@std@@@1@ABV?$allocator@U?$pair@$$CBV?$basic_string@_WU?$char_traits@_W@std@@V?$allocator@_W@2@@std@@V?$shared_ptr@VNameValue@yloader@@@2@@std@@@1@@Z 10023a4d f   namevalue.obj
 0001:00022a70       __unwindfunclet$??0?$multimap@V?$basic_string@_WU?$char_traits@_W@std@@V?$allocator@_W@2@@std@@V?$shared_ptr@VNameValue@yloader@@@2@U?$less@V?$basic_string@_WU?$char_traits@_W@std@@V?$allocator@_W@2@@std@@@2@V?$allocator@U?$pair@$$CBV?$basic_string@_WU?$char_traits@_W@std@@V?$allocator@_W@2@@std@@V?$shared_ptr@VNameValue@yloader@@@2@@std@@@2@@std@@QAE@ABV01@@Z$1 10023a70 f   namevalue.obj
 0001:00022a70       __unwindfunclet$??0?$multimap@V?$basic_string@_WU?$char_traits@_W@std@@V?$allocator@_W@2@@std@@V?$shared_ptr@VNameValue@yloader@@@2@U?$less@V?$basic_string@_WU?$char_traits@_W@std@@V?$allocator@_W@2@@std@@@2@V?$allocator@U?$pair@$$CBV?$basic_string@_WU?$char_traits@_W@std@@V?$allocator@_W@2@@std@@V?$shared_ptr@VNameValue@yloader@@@2@@std@@@2@@std@@QAE@ABV01@ABV?$allocator@U?$pair@$$CBV?$basic_string@_WU?$char_traits@_W@std@@V?$allocator@_W@2@@std@@V?$shared_ptr@VNameValue@yloader@@@2@@std@@@1@@Z$1 10023a70 f   namevalue.obj
 0001:00022a70       __unwindfunclet$?_Different_allocator_move_construct@?$_Tree@V?$_Tmap_traits@V?$basic_string@_WU?$char_traits@_W@std@@V?$allocator@_W@2@@std@@V?$shared_ptr@VNameValue@yloader@@@2@U?$less@V?$basic_string@_WU?$char_traits@_W@std@@V?$allocator@_W@2@@std@@@2@V?$allocator@U?$pair@$$CBV?$basic_string@_WU?$char_traits@_W@std@@V?$allocator@_W@2@@std@@V?$shared_ptr@VNameValue@yloader@@@2@@std@@@2@$00@std@@@std@@AAEX$$QAV12@@Z$0 10023a70 f   namevalue.obj
 0001:00022a7d       __ehhandler$??0?$multimap@V?$basic_string@_WU?$char_traits@_W@std@@V?$allocator@_W@2@@std@@V?$shared_ptr@VNameValue@yloader@@@2@U?$less@V?$basic_string@_WU?$char_traits@_W@std@@V?$allocator@_W@2@@std@@@2@V?$allocator@U?$pair@$$CBV?$basic_string@_WU?$char_traits@_W@std@@V?$allocator@_W@2@@std@@V?$shared_ptr@VNameValue@yloader@@@2@@std@@@2@@std@@QAE@ABV01@@Z 10023a7d f   namevalue.obj
 0001:00022a7d       __ehhandler$??0?$multimap@V?$basic_string@_WU?$char_traits@_W@std@@V?$allocator@_W@2@@std@@V?$shared_ptr@VNameValue@yloader@@@2@U?$less@V?$basic_string@_WU?$char_traits@_W@std@@V?$allocator@_W@2@@std@@@2@V?$allocator@U?$pair@$$CBV?$basic_string@_WU?$char_traits@_W@std@@V?$allocator@_W@2@@std@@V?$shared_ptr@VNameValue@yloader@@@2@@std@@@2@@std@@QAE@ABV01@ABV?$allocator@U?$pair@$$CBV?$basic_string@_WU?$char_traits@_W@std@@V?$allocator@_W@2@@std@@V?$shared_ptr@VNameValue@yloader@@@2@@std@@@1@@Z 10023a7d f   namevalue.obj
 0001:00022a7d       __ehhandler$?_Different_allocator_move_construct@?$_Tree@V?$_Tmap_traits@V?$basic_string@_WU?$char_traits@_W@std@@V?$allocator@_W@2@@std@@V?$shared_ptr@VNameValue@yloader@@@2@U?$less@V?$basic_string@_WU?$char_traits@_W@std@@V?$allocator@_W@2@@std@@@2@V?$allocator@U?$pair@$$CBV?$basic_string@_WU?$char_traits@_W@std@@V?$allocator@_W@2@@std@@V?$shared_ptr@VNameValue@yloader@@@2@@std@@@2@$00@std@@@std@@AAEX$$QAV12@@Z 10023a7d f   namevalue.obj
 0001:00022aa0       __unwindfunclet$?insert@?$_Tree@V?$_Tmap_traits@V?$basic_string@_WU?$char_traits@_W@std@@V?$allocator@_W@2@@std@@V?$shared_ptr@VNameValue@yloader@@@2@U?$less@V?$basic_string@_WU?$char_traits@_W@std@@V?$allocator@_W@2@@std@@@2@V?$allocator@U?$pair@$$CBV?$basic_string@_WU?$char_traits@_W@std@@V?$allocator@_W@2@@std@@V?$shared_ptr@VNameValue@yloader@@@2@@std@@@2@$00@std@@@std@@QAE?AV?$_Tree_iterator@V?$_Tree_val@U?$_Tree_simple_types@U?$pair@$$CBV?$basic_string@_WU?$char_traits@_W@std@@V?$allocator@_W@2@@std@@V?$shared_ptr@VNameValue@yloader@@@2@@std@@@std@@@std@@@2@V?$_Tree_const_iterator@V?$_Tree_val@U?$_Tree_simple_types@U?$pair@$$CBV?$basic_string@_WU?$char_traits@_W@std@@V?$allocator@_W@2@@std@@V?$shared_ptr@VNameValue@yloader@@@2@@std@@@std@@@std@@@2@$$QAU?$pair@$$CBV?$basic_string@_WU?$char_traits@_W@std@@V?$allocator@_W@2@@std@@V?$shared_ptr@VNameValue@yloader@@@2@@2@@Z$0 10023aa0 f   namevalue.obj
 0001:00022aad       __ehhandler$?insert@?$_Tree@V?$_Tmap_traits@V?$basic_string@_WU?$char_traits@_W@std@@V?$allocator@_W@2@@std@@V?$shared_ptr@VNameValue@yloader@@@2@U?$less@V?$basic_string@_WU?$char_traits@_W@std@@V?$allocator@_W@2@@std@@@2@V?$allocator@U?$pair@$$CBV?$basic_string@_WU?$char_traits@_W@std@@V?$allocator@_W@2@@std@@V?$shared_ptr@VNameValue@yloader@@@2@@std@@@2@$00@std@@@std@@QAE?AV?$_Tree_iterator@V?$_Tree_val@U?$_Tree_simple_types@U?$pair@$$CBV?$basic_string@_WU?$char_traits@_W@std@@V?$allocator@_W@2@@std@@V?$shared_ptr@VNameValue@yloader@@@2@@std@@@std@@@std@@@2@V?$_Tree_const_iterator@V?$_Tree_val@U?$_Tree_simple_types@U?$pair@$$CBV?$basic_string@_WU?$char_traits@_W@std@@V?$allocator@_W@2@@std@@V?$shared_ptr@VNameValue@yloader@@@2@@std@@@std@@@std@@@2@$$QAU?$pair@$$CBV?$basic_string@_WU?$char_traits@_W@std@@V?$allocator@_W@2@@std@@V?$shared_ptr@VNameValue@yloader@@@2@@2@@Z 10023aad f   namevalue.obj
 0001:00022ad0       __unwindfunclet$??$insert@$00$0A@@?$_Tree@V?$_Tmap_traits@V?$basic_string@_WU?$char_traits@_W@std@@V?$allocator@_W@2@@std@@V?$shared_ptr@VNameValue@yloader@@@2@U?$less@V?$basic_string@_WU?$char_traits@_W@std@@V?$allocator@_W@2@@std@@@2@V?$allocator@U?$pair@$$CBV?$basic_string@_WU?$char_traits@_W@std@@V?$allocator@_W@2@@std@@V?$shared_ptr@VNameValue@yloader@@@2@@std@@@2@$00@std@@@std@@QAE?AV?$_Tree_iterator@V?$_Tree_val@U?$_Tree_simple_types@U?$pair@$$CBV?$basic_string@_WU?$char_traits@_W@std@@V?$allocator@_W@2@@std@@V?$shared_ptr@VNameValue@yloader@@@2@@std@@@std@@@std@@@1@$$QAU?$pair@$$CBV?$basic_string@_WU?$char_traits@_W@std@@V?$allocator@_W@2@@std@@V?$shared_ptr@VNameValue@yloader@@@2@@1@@Z$0 10023ad0 f   namevalue.obj
 0001:00022add       __ehhandler$??$insert@$00$0A@@?$_Tree@V?$_Tmap_traits@V?$basic_string@_WU?$char_traits@_W@std@@V?$allocator@_W@2@@std@@V?$shared_ptr@VNameValue@yloader@@@2@U?$less@V?$basic_string@_WU?$char_traits@_W@std@@V?$allocator@_W@2@@std@@@2@V?$allocator@U?$pair@$$CBV?$basic_string@_WU?$char_traits@_W@std@@V?$allocator@_W@2@@std@@V?$shared_ptr@VNameValue@yloader@@@2@@std@@@2@$00@std@@@std@@QAE?AV?$_Tree_iterator@V?$_Tree_val@U?$_Tree_simple_types@U?$pair@$$CBV?$basic_string@_WU?$char_traits@_W@std@@V?$allocator@_W@2@@std@@V?$shared_ptr@VNameValue@yloader@@@2@@std@@@std@@@std@@@1@$$QAU?$pair@$$CBV?$basic_string@_WU?$char_traits@_W@std@@V?$allocator@_W@2@@std@@V?$shared_ptr@VNameValue@yloader@@@2@@1@@Z 10023add f   namevalue.obj
 0001:00022b00       __unwindfunclet$??$_Emplace_hint@ABU?$pair@$$CBV?$basic_string@_WU?$char_traits@_W@std@@V?$allocator@_W@2@@std@@V?$shared_ptr@VNameValue@yloader@@@2@@std@@@?$_Tree@V?$_Tmap_traits@V?$basic_string@_WU?$char_traits@_W@std@@V?$allocator@_W@2@@std@@V?$shared_ptr@VNameValue@yloader@@@2@U?$less@V?$basic_string@_WU?$char_traits@_W@std@@V?$allocator@_W@2@@std@@@2@V?$allocator@U?$pair@$$CBV?$basic_string@_WU?$char_traits@_W@std@@V?$allocator@_W@2@@std@@V?$shared_ptr@VNameValue@yloader@@@2@@std@@@2@$00@std@@@std@@IAEPAU?$_Tree_node@U?$pair@$$CBV?$basic_string@_WU?$char_traits@_W@std@@V?$allocator@_W@2@@std@@V?$shared_ptr@VNameValue@yloader@@@2@@std@@PAX@1@QAU21@ABU?$pair@$$CBV?$basic_string@_WU?$char_traits@_W@std@@V?$allocator@_W@2@@std@@V?$shared_ptr@VNameValue@yloader@@@2@@1@@Z$2 10023b00 f   namevalue.obj
 0001:00022b08       __unwindfunclet$??$_Emplace_hint@ABU?$pair@$$CBV?$basic_string@_WU?$char_traits@_W@std@@V?$allocator@_W@2@@std@@V?$shared_ptr@VNameValue@yloader@@@2@@std@@@?$_Tree@V?$_Tmap_traits@V?$basic_string@_WU?$char_traits@_W@std@@V?$allocator@_W@2@@std@@V?$shared_ptr@VNameValue@yloader@@@2@U?$less@V?$basic_string@_WU?$char_traits@_W@std@@V?$allocator@_W@2@@std@@@2@V?$allocator@U?$pair@$$CBV?$basic_string@_WU?$char_traits@_W@std@@V?$allocator@_W@2@@std@@V?$shared_ptr@VNameValue@yloader@@@2@@std@@@2@$00@std@@@std@@IAEPAU?$_Tree_node@U?$pair@$$CBV?$basic_string@_WU?$char_traits@_W@std@@V?$allocator@_W@2@@std@@V?$shared_ptr@VNameValue@yloader@@@2@@std@@PAX@1@QAU21@ABU?$pair@$$CBV?$basic_string@_WU?$char_traits@_W@std@@V?$allocator@_W@2@@std@@V?$shared_ptr@VNameValue@yloader@@@2@@1@@Z$1 10023b08 f   namevalue.obj
 0001:00022b10       __unwindfunclet$??$_Emplace_hint@ABU?$pair@$$CBV?$basic_string@_WU?$char_traits@_W@std@@V?$allocator@_W@2@@std@@V?$shared_ptr@VNameValue@yloader@@@2@@std@@@?$_Tree@V?$_Tmap_traits@V?$basic_string@_WU?$char_traits@_W@std@@V?$allocator@_W@2@@std@@V?$shared_ptr@VNameValue@yloader@@@2@U?$less@V?$basic_string@_WU?$char_traits@_W@std@@V?$allocator@_W@2@@std@@@2@V?$allocator@U?$pair@$$CBV?$basic_string@_WU?$char_traits@_W@std@@V?$allocator@_W@2@@std@@V?$shared_ptr@VNameValue@yloader@@@2@@std@@@2@$00@std@@@std@@IAEPAU?$_Tree_node@U?$pair@$$CBV?$basic_string@_WU?$char_traits@_W@std@@V?$allocator@_W@2@@std@@V?$shared_ptr@VNameValue@yloader@@@2@@std@@PAX@1@QAU21@ABU?$pair@$$CBV?$basic_string@_WU?$char_traits@_W@std@@V?$allocator@_W@2@@std@@V?$shared_ptr@VNameValue@yloader@@@2@@1@@Z$0 10023b10 f   namevalue.obj
 0001:00022b1d       __ehhandler$??$_Emplace_hint@ABU?$pair@$$CBV?$basic_string@_WU?$char_traits@_W@std@@V?$allocator@_W@2@@std@@V?$shared_ptr@VNameValue@yloader@@@2@@std@@@?$_Tree@V?$_Tmap_traits@V?$basic_string@_WU?$char_traits@_W@std@@V?$allocator@_W@2@@std@@V?$shared_ptr@VNameValue@yloader@@@2@U?$less@V?$basic_string@_WU?$char_traits@_W@std@@V?$allocator@_W@2@@std@@@2@V?$allocator@U?$pair@$$CBV?$basic_string@_WU?$char_traits@_W@std@@V?$allocator@_W@2@@std@@V?$shared_ptr@VNameValue@yloader@@@2@@std@@@2@$00@std@@@std@@IAEPAU?$_Tree_node@U?$pair@$$CBV?$basic_string@_WU?$char_traits@_W@std@@V?$allocator@_W@2@@std@@V?$shared_ptr@VNameValue@yloader@@@2@@std@@PAX@1@QAU21@ABU?$pair@$$CBV?$basic_string@_WU?$char_traits@_W@std@@V?$allocator@_W@2@@std@@V?$shared_ptr@VNameValue@yloader@@@2@@1@@Z 10023b1d f   namevalue.obj
 0001:00022b40       __unwindfunclet$??$?0U?$pair@$$CBV?$basic_string@_WU?$char_traits@_W@std@@V?$allocator@_W@2@@std@@V?$shared_ptr@VNameValue@yloader@@@2@@std@@@?$_Tree_temp_node@V?$allocator@U?$_Tree_node@U?$pair@$$CBV?$basic_string@_WU?$char_traits@_W@std@@V?$allocator@_W@2@@std@@V?$shared_ptr@VNameValue@yloader@@@2@@std@@PAX@std@@@std@@@std@@QAE@AAV?$allocator@U?$_Tree_node@U?$pair@$$CBV?$basic_string@_WU?$char_traits@_W@std@@V?$allocator@_W@2@@std@@V?$shared_ptr@VNameValue@yloader@@@2@@std@@PAX@std@@@1@PAU?$_Tree_node@U?$pair@$$CBV?$basic_string@_WU?$char_traits@_W@std@@V?$allocator@_W@2@@std@@V?$shared_ptr@VNameValue@yloader@@@2@@std@@PAX@1@$$QAU?$pair@$$CBV?$basic_string@_WU?$char_traits@_W@std@@V?$allocator@_W@2@@std@@V?$shared_ptr@VNameValue@yloader@@@2@@1@@Z$1 10023b40 f   namevalue.obj
 0001:00022b48       __unwindfunclet$??$?0U?$pair@$$CBV?$basic_string@_WU?$char_traits@_W@std@@V?$allocator@_W@2@@std@@V?$shared_ptr@VNameValue@yloader@@@2@@std@@@?$_Tree_temp_node@V?$allocator@U?$_Tree_node@U?$pair@$$CBV?$basic_string@_WU?$char_traits@_W@std@@V?$allocator@_W@2@@std@@V?$shared_ptr@VNameValue@yloader@@@2@@std@@PAX@std@@@std@@@std@@QAE@AAV?$allocator@U?$_Tree_node@U?$pair@$$CBV?$basic_string@_WU?$char_traits@_W@std@@V?$allocator@_W@2@@std@@V?$shared_ptr@VNameValue@yloader@@@2@@std@@PAX@std@@@1@PAU?$_Tree_node@U?$pair@$$CBV?$basic_string@_WU?$char_traits@_W@std@@V?$allocator@_W@2@@std@@V?$shared_ptr@VNameValue@yloader@@@2@@std@@PAX@1@$$QAU?$pair@$$CBV?$basic_string@_WU?$char_traits@_W@std@@V?$allocator@_W@2@@std@@V?$shared_ptr@VNameValue@yloader@@@2@@1@@Z$0 10023b48 f   namevalue.obj
 0001:00022b55       __ehhandler$??$?0U?$pair@$$CBV?$basic_string@_WU?$char_traits@_W@std@@V?$allocator@_W@2@@std@@V?$shared_ptr@VNameValue@yloader@@@2@@std@@@?$_Tree_temp_node@V?$allocator@U?$_Tree_node@U?$pair@$$CBV?$basic_string@_WU?$char_traits@_W@std@@V?$allocator@_W@2@@std@@V?$shared_ptr@VNameValue@yloader@@@2@@std@@PAX@std@@@std@@@std@@QAE@AAV?$allocator@U?$_Tree_node@U?$pair@$$CBV?$basic_string@_WU?$char_traits@_W@std@@V?$allocator@_W@2@@std@@V?$shared_ptr@VNameValue@yloader@@@2@@std@@PAX@std@@@1@PAU?$_Tree_node@U?$pair@$$CBV?$basic_string@_WU?$char_traits@_W@std@@V?$allocator@_W@2@@std@@V?$shared_ptr@VNameValue@yloader@@@2@@std@@PAX@1@$$QAU?$pair@$$CBV?$basic_string@_WU?$char_traits@_W@std@@V?$allocator@_W@2@@std@@V?$shared_ptr@VNameValue@yloader@@@2@@1@@Z 10023b55 f   namevalue.obj
 0001:00022b80       __unwindfunclet$??$_Copy_nodes@U_Copy_tag@?$_Tree@V?$_Tmap_traits@V?$basic_string@_WU?$char_traits@_W@std@@V?$allocator@_W@2@@std@@V?$shared_ptr@VNameValue@yloader@@@2@U?$less@V?$basic_string@_WU?$char_traits@_W@std@@V?$allocator@_W@2@@std@@@2@V?$allocator@U?$pair@$$CBV?$basic_string@_WU?$char_traits@_W@std@@V?$allocator@_W@2@@std@@V?$shared_ptr@VNameValue@yloader@@@2@@std@@@2@$00@std@@@std@@@?$_Tree@V?$_Tmap_traits@V?$basic_string@_WU?$char_traits@_W@std@@V?$allocator@_W@2@@std@@V?$shared_ptr@VNameValue@yloader@@@2@U?$less@V?$basic_string@_WU?$char_traits@_W@std@@V?$allocator@_W@2@@std@@@2@V?$allocator@U?$pair@$$CBV?$basic_string@_WU?$char_traits@_W@std@@V?$allocator@_W@2@@std@@V?$shared_ptr@VNameValue@yloader@@@2@@std@@@2@$00@std@@@std@@IAEPAU?$_Tree_node@U?$pair@$$CBV?$basic_string@_WU?$char_traits@_W@std@@V?$allocator@_W@2@@std@@V?$shared_ptr@VNameValue@yloader@@@2@@std@@PAX@1@PAU21@0U_Copy_tag@01@@Z$2 10023b80 f   namevalue.obj
 0001:00022b8d       __ehhandler$??$_Copy_nodes@U_Copy_tag@?$_Tree@V?$_Tmap_traits@V?$basic_string@_WU?$char_traits@_W@std@@V?$allocator@_W@2@@std@@V?$shared_ptr@VNameValue@yloader@@@2@U?$less@V?$basic_string@_WU?$char_traits@_W@std@@V?$allocator@_W@2@@std@@@2@V?$allocator@U?$pair@$$CBV?$basic_string@_WU?$char_traits@_W@std@@V?$allocator@_W@2@@std@@V?$shared_ptr@VNameValue@yloader@@@2@@std@@@2@$00@std@@@std@@@?$_Tree@V?$_Tmap_traits@V?$basic_string@_WU?$char_traits@_W@std@@V?$allocator@_W@2@@std@@V?$shared_ptr@VNameValue@yloader@@@2@U?$less@V?$basic_string@_WU?$char_traits@_W@std@@V?$allocator@_W@2@@std@@@2@V?$allocator@U?$pair@$$CBV?$basic_string@_WU?$char_traits@_W@std@@V?$allocator@_W@2@@std@@V?$shared_ptr@VNameValue@yloader@@@2@@std@@@2@$00@std@@@std@@IAEPAU?$_Tree_node@U?$pair@$$CBV?$basic_string@_WU?$char_traits@_W@std@@V?$allocator@_W@2@@std@@V?$shared_ptr@VNameValue@yloader@@@2@@std@@PAX@1@PAU21@0U_Copy_tag@01@@Z 10023b8d f   namevalue.obj
 0001:00022bb0       __unwindfunclet$??$_Copy_nodes@U_Move_tag@?$_Tree@V?$_Tmap_traits@V?$basic_string@_WU?$char_traits@_W@std@@V?$allocator@_W@2@@std@@V?$shared_ptr@VNameValue@yloader@@@2@U?$less@V?$basic_string@_WU?$char_traits@_W@std@@V?$allocator@_W@2@@std@@@2@V?$allocator@U?$pair@$$CBV?$basic_string@_WU?$char_traits@_W@std@@V?$allocator@_W@2@@std@@V?$shared_ptr@VNameValue@yloader@@@2@@std@@@2@$00@std@@@std@@@?$_Tree@V?$_Tmap_traits@V?$basic_string@_WU?$char_traits@_W@std@@V?$allocator@_W@2@@std@@V?$shared_ptr@VNameValue@yloader@@@2@U?$less@V?$basic_string@_WU?$char_traits@_W@std@@V?$allocator@_W@2@@std@@@2@V?$allocator@U?$pair@$$CBV?$basic_string@_WU?$char_traits@_W@std@@V?$allocator@_W@2@@std@@V?$shared_ptr@VNameValue@yloader@@@2@@std@@@2@$00@std@@@std@@IAEPAU?$_Tree_node@U?$pair@$$CBV?$basic_string@_WU?$char_traits@_W@std@@V?$allocator@_W@2@@std@@V?$shared_ptr@VNameValue@yloader@@@2@@std@@PAX@1@PAU21@0U_Move_tag@01@@Z$2 10023bb0 f   namevalue.obj
 0001:00022bbd       __ehhandler$??$_Copy_nodes@U_Move_tag@?$_Tree@V?$_Tmap_traits@V?$basic_string@_WU?$char_traits@_W@std@@V?$allocator@_W@2@@std@@V?$shared_ptr@VNameValue@yloader@@@2@U?$less@V?$basic_string@_WU?$char_traits@_W@std@@V?$allocator@_W@2@@std@@@2@V?$allocator@U?$pair@$$CBV?$basic_string@_WU?$char_traits@_W@std@@V?$allocator@_W@2@@std@@V?$shared_ptr@VNameValue@yloader@@@2@@std@@@2@$00@std@@@std@@@?$_Tree@V?$_Tmap_traits@V?$basic_string@_WU?$char_traits@_W@std@@V?$allocator@_W@2@@std@@V?$shared_ptr@VNameValue@yloader@@@2@U?$less@V?$basic_string@_WU?$char_traits@_W@std@@V?$allocator@_W@2@@std@@@2@V?$allocator@U?$pair@$$CBV?$basic_string@_WU?$char_traits@_W@std@@V?$allocator@_W@2@@std@@V?$shared_ptr@VNameValue@yloader@@@2@@std@@@2@$00@std@@@std@@IAEPAU?$_Tree_node@U?$pair@$$CBV?$basic_string@_WU?$char_traits@_W@std@@V?$allocator@_W@2@@std@@V?$shared_ptr@VNameValue@yloader@@@2@@std@@PAX@1@PAU21@0U_Move_tag@01@@Z 10023bbd f   namevalue.obj
 0001:00022be0       __ehhandler$??1once_context@detail@boost@@QAE@XZ 10023be0 f   libboost_thread-vc142-mt-x32-1_80:thread.obj
 0001:00022c00       __unwindfunclet$?call_once@boost@@YAXAAUonce_flag@1@P6AXXZ@Z$2 10023c00 f   libboost_thread-vc142-mt-x32-1_80:thread.obj
 0001:00022c0d       __ehhandler$?call_once@boost@@YAXAAUonce_flag@1@P6AXXZ@Z 10023c0d f   libboost_thread-vc142-mt-x32-1_80:thread.obj
 0001:00022c40       __ehhandler$?rollback_once_region@detail@boost@@YAXAAUonce_flag@2@AAUonce_context@12@@Z 10023c40 f   libboost_thread-vc142-mt-x32-1_80:thread.obj
 0001:00022c60       __unwindfunclet$?run_thread_exit_callbacks@?A0x651aaad3@boost@@YAXXZ$0 10023c60 f   libboost_thread-vc142-mt-x32-1_80:thread.obj
 0001:00022c6d       __ehhandler$?run_thread_exit_callbacks@?A0x651aaad3@boost@@YAXXZ 10023c6d f   libboost_thread-vc142-mt-x32-1_80:thread.obj
 0001:00022c90       ??__Fm@yloader@@YAXXZ      10023c90 f   misc.obj
 0001:00022ca0       ??__Fmonths@?CF@??parse@Date@yloader@@AAEXABV?$basic_string@_WU?$char_traits@_W@std@@V?$allocator@_W@2@@std@@W4DateFormat@2@0@Z@YAXXZ 10023ca0 f   misc.obj
 0001:00022cc0       ??__F?e@?$exception_ptr_static_exception_object@Ubad_exception_@exception_detail@boost@@@exception_detail@boost@@2Vexception_ptr@3@B@@YAXXZ 10023cc0 f   misc.obj
 0001:00022d00       ??__F?e@?$exception_ptr_static_exception_object@Ubad_alloc_@exception_detail@boost@@@exception_detail@boost@@2Vexception_ptr@3@B@@YAXXZ 10023d00 f   misc.obj
 0001:00022d40       ??__F?mx_@?$stdcat_mx_holder@X@detail@system@boost@@2Vmutex@std@@A@@YAXXZ 10023d40 f   misc.obj
 0001:00022d50       ??__Fep@?1???$get_static_exception_object@Ubad_exception_@exception_detail@boost@@@exception_detail@boost@@YA?AVexception_ptr@1@XZ@YAXXZ 10023d50 f   misc.obj
 0001:00022d90       ??__Fep@?1???$get_static_exception_object@Ubad_alloc_@exception_detail@boost@@@exception_detail@boost@@YA?AVexception_ptr@1@XZ@YAXXZ 10023d90 f   misc.obj
 0001:00022df8       ??__F_Fac_tidy_reg@std@@YAXXZ 10023df8 f   msvcprt:locale0_implib.obj
 0002:000002a0       ?_Fac_tidy_reg$initializer$@std@@3P6AXXZA 100242a0     msvcprt:locale0_implib.obj
 0002:000002a8       ?m$initializer$@yloader@@3P6AXXZA 100242a8     misc.obj
 0002:000002ac       ??CURRENT$initializer$@Version@yloader@@2P6AXXZA@@3P6AXXZA 100242ac     misc.obj
 0002:000002b0       ??mx_$initializer$@?$stdcat_mx_holder@X@detail@system@boost@@2P6AXXZA@@3P6AXXZA 100242b0     misc.obj
 0002:000002b4       ??e$initializer$@?$exception_ptr_static_exception_object@Ubad_alloc_@exception_detail@boost@@@exception_detail@boost@@2P6AXXZA@@3P6AXXZA 100242b4     misc.obj
 0002:000002b8       ??e$initializer$@?$exception_ptr_static_exception_object@Ubad_exception_@exception_detail@boost@@@exception_detail@boost@@2P6AXXZA@@3P6AXXZA 100242b8     misc.obj
 0002:000002c4       ?__scrt_initialize_tss_var@@3P6AHXZA 100242c4     MSVCRT:thread_safe_statics.obj
 0002:00000394       _GS_ExceptionPointers      10024394     MSVCRT:gs_report.obj
 0002:00000500       _NaN                       10024500     MSVCRT:ftol3.obj
 0002:00000504       _onept5                    10024504     MSVCRT:ftol3.obj
 0002:00000508       _DP2to32                   10024508     MSVCRT:ftol3.obj
 0002:00000508       _Int32ToUInt32             10024508     MSVCRT:ftol3.obj
 0002:000013e4       ?whiteSpaces@yloader@@3QB_WB 100253e4     misc.obj
 0002:00003b30       __ehfuncinfo$?name@locale@std@@QBE?AV?$basic_string@DU?$char_traits@D@std@@V?$allocator@D@2@@2@XZ 10027b30     misc.obj
 0002:00003b54       __unwindtable$?name@locale@std@@QBE?AV?$basic_string@DU?$char_traits@D@std@@V?$allocator@D@2@@2@XZ 10027b54     misc.obj
 0002:00003b74       __ehfuncinfo$??8locale@std@@QBE_NABV01@@Z 10027b74     misc.obj
 0002:00003b98       __unwindtable$??8locale@std@@QBE_NABV01@@Z 10027b98     misc.obj
 0002:00003ba8       __ehfuncinfo$?copy_boost_exception@exception_detail@boost@@YAXPAVexception@2@PBV32@@Z 10027ba8     misc.obj
 0002:00003bcc       __unwindtable$?copy_boost_exception@exception_detail@boost@@YAXPAVexception@2@PBV32@@Z 10027bcc     misc.obj
 0002:00003bec       __ehfuncinfo$??0?$basic_string@DU?$char_traits@D@std@@V?$allocator@D@2@@std@@QAE@QBD@Z 10027bec     misc.obj
 0002:00003bec       __ehfuncinfo$??0?$basic_string@_WU?$char_traits@_W@std@@V?$allocator@_W@2@@std@@QAE@QB_W@Z 10027bec     misc.obj
 0002:00003bec       __ehfuncinfo$??0bad_day_of_month@gregorian@boost@@QAE@XZ 10027bec     misc.obj
 0002:00003bec       __ehfuncinfo$??0bad_month@gregorian@boost@@QAE@XZ 10027bec     misc.obj
 0002:00003bec       __ehfuncinfo$??0bad_year@gregorian@boost@@QAE@XZ 10027bec     misc.obj
 0002:00003bec       __ehfuncinfo$?do_falsename@?$numpunct@D@std@@MBE?AV?$basic_string@DU?$char_traits@D@std@@V?$allocator@D@2@@2@XZ 10027bec     misc.obj
 0002:00003bec       __ehfuncinfo$?do_falsename@?$numpunct@_W@std@@MBE?AV?$basic_string@_WU?$char_traits@_W@std@@V?$allocator@_W@2@@2@XZ 10027bec     misc.obj
 0002:00003bec       __ehfuncinfo$?do_grouping@?$numpunct@D@std@@MBE?AV?$basic_string@DU?$char_traits@D@std@@V?$allocator@D@2@@2@XZ 10027bec     misc.obj
 0002:00003bec       __ehfuncinfo$?do_grouping@?$numpunct@_W@std@@MBE?AV?$basic_string@DU?$char_traits@D@std@@V?$allocator@D@2@@2@XZ 10027bec     misc.obj
 0002:00003bec       __ehfuncinfo$?do_truename@?$numpunct@D@std@@MBE?AV?$basic_string@DU?$char_traits@D@std@@V?$allocator@D@2@@2@XZ 10027bec     misc.obj
 0002:00003bec       __ehfuncinfo$?do_truename@?$numpunct@_W@std@@MBE?AV?$basic_string@_WU?$char_traits@_W@std@@V?$allocator@_W@2@@2@XZ 10027bec     misc.obj
 0002:00003bec       __ehfuncinfo$?getloc@?$basic_format@_WU?$char_traits@_W@std@@V?$allocator@_W@2@@boost@@QBE?AVlocale@std@@XZ 10027bec     misc.obj
 0002:00003bec       __ehfuncinfo$?substr@?$basic_string@_WU?$char_traits@_W@std@@V?$allocator@_W@2@@std@@QBE?AV12@II@Z 10027bec     misc.obj
 0002:00003c10       __unwindtable$??0?$basic_string@DU?$char_traits@D@std@@V?$allocator@D@2@@std@@QAE@QBD@Z 10027c10     misc.obj
 0002:00003c10       __unwindtable$??0?$basic_string@_WU?$char_traits@_W@std@@V?$allocator@_W@2@@std@@QAE@QB_W@Z 10027c10     misc.obj
 0002:00003c10       __unwindtable$??0bad_day_of_month@gregorian@boost@@QAE@XZ 10027c10     misc.obj
 0002:00003c10       __unwindtable$??0bad_month@gregorian@boost@@QAE@XZ 10027c10     misc.obj
 0002:00003c10       __unwindtable$??0bad_year@gregorian@boost@@QAE@XZ 10027c10     misc.obj
 0002:00003c10       __unwindtable$?do_falsename@?$numpunct@D@std@@MBE?AV?$basic_string@DU?$char_traits@D@std@@V?$allocator@D@2@@2@XZ 10027c10     misc.obj
 0002:00003c10       __unwindtable$?do_falsename@?$numpunct@_W@std@@MBE?AV?$basic_string@_WU?$char_traits@_W@std@@V?$allocator@_W@2@@2@XZ 10027c10     misc.obj
 0002:00003c10       __unwindtable$?do_grouping@?$numpunct@D@std@@MBE?AV?$basic_string@DU?$char_traits@D@std@@V?$allocator@D@2@@2@XZ 10027c10     misc.obj
 0002:00003c10       __unwindtable$?do_grouping@?$numpunct@_W@std@@MBE?AV?$basic_string@DU?$char_traits@D@std@@V?$allocator@D@2@@2@XZ 10027c10     misc.obj
 0002:00003c10       __unwindtable$?do_truename@?$numpunct@D@std@@MBE?AV?$basic_string@DU?$char_traits@D@std@@V?$allocator@D@2@@2@XZ 10027c10     misc.obj
 0002:00003c10       __unwindtable$?do_truename@?$numpunct@_W@std@@MBE?AV?$basic_string@_WU?$char_traits@_W@std@@V?$allocator@_W@2@@2@XZ 10027c10     misc.obj
 0002:00003c10       __unwindtable$?getloc@?$basic_format@_WU?$char_traits@_W@std@@V?$allocator@_W@2@@boost@@QBE?AVlocale@std@@XZ 10027c10     misc.obj
 0002:00003c10       __unwindtable$?substr@?$basic_string@_WU?$char_traits@_W@std@@V?$allocator@_W@2@@std@@QBE?AV12@II@Z 10027c10     misc.obj
 0002:00003c18       __ehfuncinfo$??0date@gregorian@boost@@QAE@Vgreg_year@12@Vgreg_month@12@Vgreg_day@12@@Z 10027c18     misc.obj
 0002:00003c3c       __unwindtable$??0date@gregorian@boost@@QAE@Vgreg_year@12@Vgreg_month@12@Vgreg_day@12@@Z 10027c3c     misc.obj
 0002:00003c4c       __ehfuncinfo$?localtime@c_time@date_time@boost@@SAPAUtm@@PB_JPAU4@@Z 10027c4c     misc.obj
 0002:00003c4c       __ehfuncinfo$?on_error@?$simple_exception_policy@G$00$0BP@Ubad_day_of_month@gregorian@boost@@@CV@boost@@SAXGGW4violation_enum@23@@Z 10027c4c     misc.obj
 0002:00003c4c       __ehfuncinfo$?on_error@?$simple_exception_policy@G$00$0M@Ubad_month@gregorian@boost@@@CV@boost@@SAXGGW4violation_enum@23@@Z 10027c4c     misc.obj
 0002:00003c4c       __ehfuncinfo$?on_error@?$simple_exception_policy@G$0FHI@$0CHAP@Ubad_year@gregorian@boost@@@CV@boost@@SAXGGW4violation_enum@23@@Z 10027c4c     misc.obj
 0002:00003c70       __unwindtable$?localtime@c_time@date_time@boost@@SAPAUtm@@PB_JPAU4@@Z 10027c70     misc.obj
 0002:00003c70       __unwindtable$?on_error@?$simple_exception_policy@G$00$0BP@Ubad_day_of_month@gregorian@boost@@@CV@boost@@SAXGGW4violation_enum@23@@Z 10027c70     misc.obj
 0002:00003c70       __unwindtable$?on_error@?$simple_exception_policy@G$00$0M@Ubad_month@gregorian@boost@@@CV@boost@@SAXGGW4violation_enum@23@@Z 10027c70     misc.obj
 0002:00003c70       __unwindtable$?on_error@?$simple_exception_policy@G$0FHI@$0CHAP@Ubad_year@gregorian@boost@@@CV@boost@@SAXGGW4violation_enum@23@@Z 10027c70     misc.obj
 0002:00003c78       __ehfuncinfo$??0?$format_item@_WU?$char_traits@_W@std@@V?$allocator@_W@2@@detail@io@boost@@QAE@_W@Z 10027c78     misc.obj
 0002:00003c78       __ehfuncinfo$?split@date_time@boost@@YA_NABV?$basic_string@DU?$char_traits@D@std@@V?$allocator@D@2@@std@@DAAV34@1@Z 10027c78     misc.obj
 0002:00003c9c       __unwindtable$??0?$format_item@_WU?$char_traits@_W@std@@V?$allocator@_W@2@@detail@io@boost@@QAE@_W@Z 10027c9c     misc.obj
 0002:00003c9c       __unwindtable$?split@date_time@boost@@YA_NABV?$basic_string@DU?$char_traits@D@std@@V?$allocator@D@2@@std@@DAAV34@1@Z 10027c9c     misc.obj
 0002:00003cac       __ehfuncinfo$??1?$wrapexcept@Ubad_day_of_month@gregorian@boost@@@boost@@UAE@XZ 10027cac     misc.obj
 0002:00003cac       __ehfuncinfo$??1?$wrapexcept@Ubad_month@gregorian@boost@@@boost@@UAE@XZ 10027cac     misc.obj
 0002:00003cac       __ehfuncinfo$??1?$wrapexcept@Ubad_year@gregorian@boost@@@boost@@UAE@XZ 10027cac     misc.obj
 0002:00003cac       __ehfuncinfo$??1?$wrapexcept@Vbad_format_string@io@boost@@@boost@@UAE@XZ 10027cac     misc.obj
 0002:00003cac       __ehfuncinfo$??1?$wrapexcept@Vbad_lexical_cast@boost@@@boost@@UAE@XZ 10027cac     misc.obj
 0002:00003cac       __ehfuncinfo$??1?$wrapexcept@Vruntime_error@std@@@boost@@UAE@XZ 10027cac     misc.obj
 0002:00003cac       __ehfuncinfo$??1?$wrapexcept@Vtoo_few_args@io@boost@@@boost@@UAE@XZ 10027cac     misc.obj
 0002:00003cac       __ehfuncinfo$??1?$wrapexcept@Vtoo_many_args@io@boost@@@boost@@UAE@XZ 10027cac     misc.obj
 0002:00003cac       __ehfuncinfo$??1bad_alloc_@exception_detail@boost@@UAE@XZ 10027cac     misc.obj
 0002:00003cac       __ehfuncinfo$??1bad_exception_@exception_detail@boost@@UAE@XZ 10027cac     misc.obj
 0002:00003cac       __ehfuncinfo$??1sentry@?$basic_ostream@_WU?$char_traits@_W@std@@@std@@QAE@XZ 10027cac     misc.obj
 0002:00003cac       __ehfuncinfo$??_D?$clone_impl@Ubad_alloc_@exception_detail@boost@@@exception_detail@boost@@QAEXXZ 10027cac     misc.obj
 0002:00003cac       __ehfuncinfo$??_D?$clone_impl@Ubad_exception_@exception_detail@boost@@@exception_detail@boost@@QAEXXZ 10027cac     misc.obj
 0002:00003cac       __ehfuncinfo$??_G?$wrapexcept@Ubad_day_of_month@gregorian@boost@@@boost@@UAEPAXI@Z 10027cac     misc.obj
 0002:00003cac       __ehfuncinfo$??_G?$wrapexcept@Ubad_month@gregorian@boost@@@boost@@UAEPAXI@Z 10027cac     misc.obj
 0002:00003cac       __ehfuncinfo$??_G?$wrapexcept@Ubad_year@gregorian@boost@@@boost@@UAEPAXI@Z 10027cac     misc.obj
 0002:00003cac       __ehfuncinfo$??_G?$wrapexcept@Vbad_format_string@io@boost@@@boost@@UAEPAXI@Z 10027cac     misc.obj
 0002:00003cac       __ehfuncinfo$??_G?$wrapexcept@Vbad_lexical_cast@boost@@@boost@@UAEPAXI@Z 10027cac     misc.obj
 0002:00003cac       __ehfuncinfo$??_G?$wrapexcept@Vruntime_error@std@@@boost@@UAEPAXI@Z 10027cac     misc.obj
 0002:00003cac       __ehfuncinfo$??_G?$wrapexcept@Vtoo_few_args@io@boost@@@boost@@UAEPAXI@Z 10027cac     misc.obj
 0002:00003cac       __ehfuncinfo$??_G?$wrapexcept@Vtoo_many_args@io@boost@@@boost@@UAEPAXI@Z 10027cac     misc.obj
 0002:00003cac       __ehfuncinfo$??_Gbad_alloc_@exception_detail@boost@@UAEPAXI@Z 10027cac     misc.obj
 0002:00003cac       __ehfuncinfo$??_Gbad_exception_@exception_detail@boost@@UAEPAXI@Z 10027cac     misc.obj
 0002:00003cd0       __unwindtable$??1?$wrapexcept@Ubad_day_of_month@gregorian@boost@@@boost@@UAE@XZ 10027cd0     misc.obj
 0002:00003cd0       __unwindtable$??1?$wrapexcept@Ubad_month@gregorian@boost@@@boost@@UAE@XZ 10027cd0     misc.obj
 0002:00003cd0       __unwindtable$??1?$wrapexcept@Ubad_year@gregorian@boost@@@boost@@UAE@XZ 10027cd0     misc.obj
 0002:00003cd0       __unwindtable$??1?$wrapexcept@Vbad_format_string@io@boost@@@boost@@UAE@XZ 10027cd0     misc.obj
 0002:00003cd0       __unwindtable$??1?$wrapexcept@Vbad_lexical_cast@boost@@@boost@@UAE@XZ 10027cd0     misc.obj
 0002:00003cd0       __unwindtable$??1?$wrapexcept@Vruntime_error@std@@@boost@@UAE@XZ 10027cd0     misc.obj
 0002:00003cd0       __unwindtable$??1?$wrapexcept@Vtoo_few_args@io@boost@@@boost@@UAE@XZ 10027cd0     misc.obj
 0002:00003cd0       __unwindtable$??1?$wrapexcept@Vtoo_many_args@io@boost@@@boost@@UAE@XZ 10027cd0     misc.obj
 0002:00003cd0       __unwindtable$??1bad_alloc_@exception_detail@boost@@UAE@XZ 10027cd0     misc.obj
 0002:00003cd0       __unwindtable$??1bad_exception_@exception_detail@boost@@UAE@XZ 10027cd0     misc.obj
 0002:00003cd0       __unwindtable$??1sentry@?$basic_ostream@_WU?$char_traits@_W@std@@@std@@QAE@XZ 10027cd0     misc.obj
 0002:00003cd0       __unwindtable$??_D?$clone_impl@Ubad_alloc_@exception_detail@boost@@@exception_detail@boost@@QAEXXZ 10027cd0     misc.obj
 0002:00003cd0       __unwindtable$??_D?$clone_impl@Ubad_exception_@exception_detail@boost@@@exception_detail@boost@@QAEXXZ 10027cd0     misc.obj
 0002:00003cd0       __unwindtable$??_G?$wrapexcept@Ubad_day_of_month@gregorian@boost@@@boost@@UAEPAXI@Z 10027cd0     misc.obj
 0002:00003cd0       __unwindtable$??_G?$wrapexcept@Ubad_month@gregorian@boost@@@boost@@UAEPAXI@Z 10027cd0     misc.obj
 0002:00003cd0       __unwindtable$??_G?$wrapexcept@Ubad_year@gregorian@boost@@@boost@@UAEPAXI@Z 10027cd0     misc.obj
 0002:00003cd0       __unwindtable$??_G?$wrapexcept@Vbad_format_string@io@boost@@@boost@@UAEPAXI@Z 10027cd0     misc.obj
 0002:00003cd0       __unwindtable$??_G?$wrapexcept@Vbad_lexical_cast@boost@@@boost@@UAEPAXI@Z 10027cd0     misc.obj
 0002:00003cd0       __unwindtable$??_G?$wrapexcept@Vruntime_error@std@@@boost@@UAEPAXI@Z 10027cd0     misc.obj
 0002:00003cd0       __unwindtable$??_G?$wrapexcept@Vtoo_few_args@io@boost@@@boost@@UAEPAXI@Z 10027cd0     misc.obj
 0002:00003cd0       __unwindtable$??_G?$wrapexcept@Vtoo_many_args@io@boost@@@boost@@UAEPAXI@Z 10027cd0     misc.obj
 0002:00003cd0       __unwindtable$??_Gbad_alloc_@exception_detail@boost@@UAEPAXI@Z 10027cd0     misc.obj
 0002:00003cd0       __unwindtable$??_Gbad_exception_@exception_detail@boost@@UAEPAXI@Z 10027cd0     misc.obj
 0002:00003cd8       __ehfuncinfo$?s2ws@yloader@@YA?AV?$basic_string@_WU?$char_traits@_W@std@@V?$allocator@_W@2@@std@@PBD@Z 10027cd8     misc.obj
 0002:00003cfc       __unwindtable$?s2ws@yloader@@YA?AV?$basic_string@_WU?$char_traits@_W@std@@V?$allocator@_W@2@@std@@PBD@Z 10027cfc     misc.obj
 0002:00003d24       __ehfuncinfo$?ws2s@yloader@@YA?AV?$basic_string@DU?$char_traits@D@std@@V?$allocator@D@2@@std@@ABV?$basic_string@_WU?$char_traits@_W@std@@V?$allocator@_W@2@@3@@Z 10027d24     misc.obj
 0002:00003d48       __unwindtable$?ws2s@yloader@@YA?AV?$basic_string@DU?$char_traits@D@std@@V?$allocator@D@2@@std@@ABV?$basic_string@_WU?$char_traits@_W@std@@V?$allocator@_W@2@@3@@Z 10027d48     misc.obj
 0002:00003d70       __ehfuncinfo$??0DateException@yloader@@QAE@ABV?$basic_string@_WU?$char_traits@_W@std@@V?$allocator@_W@2@@std@@0@Z 10027d70     misc.obj
 0002:00003d94       __unwindtable$??0DateException@yloader@@QAE@ABV?$basic_string@_WU?$char_traits@_W@std@@V?$allocator@_W@2@@std@@0@Z 10027d94     misc.obj
 0002:00003d9c       __ehfuncinfo$?toShortString@Version@yloader@@QBE?AV?$basic_string@_WU?$char_traits@_W@std@@V?$allocator@_W@2@@std@@XZ 10027d9c     misc.obj
 0002:00003dc0       __unwindtable$?toShortString@Version@yloader@@QBE?AV?$basic_string@_WU?$char_traits@_W@std@@V?$allocator@_W@2@@std@@XZ 10027dc0     misc.obj
 0002:00003dc8       __ehfuncinfo$?toString@Version@yloader@@QBE?AV?$basic_string@_WU?$char_traits@_W@std@@V?$allocator@_W@2@@std@@XZ 10027dc8     misc.obj
 0002:00003dec       __unwindtable$?toString@Version@yloader@@QBE?AV?$basic_string@_WU?$char_traits@_W@std@@V?$allocator@_W@2@@std@@XZ 10027dec     misc.obj
 0002:00003dfc       __ehfuncinfo$?tsprint@yloader@@YAAAV?$basic_ostream@_WU?$char_traits@_W@std@@@std@@ABV?$basic_string@_WU?$char_traits@_W@std@@V?$allocator@_W@2@@3@AAV23@@Z 10027dfc     misc.obj
 0002:00003e20       __unwindtable$?tsprint@yloader@@YAAAV?$basic_ostream@_WU?$char_traits@_W@std@@@std@@ABV?$basic_string@_WU?$char_traits@_W@std@@V?$allocator@_W@2@@3@AAV23@@Z 10027e20     misc.obj
 0002:00003e28       __ehfuncinfo$?tsprint@yloader@@YAAAV?$basic_ostream@_WU?$char_traits@_W@std@@@std@@ABV?$basic_ostringstream@_WU?$char_traits@_W@std@@V?$allocator@_W@2@@3@AAV23@@Z 10027e28     misc.obj
 0002:00003e4c       __unwindtable$?tsprint@yloader@@YAAAV?$basic_ostream@_WU?$char_traits@_W@std@@@std@@ABV?$basic_ostringstream@_WU?$char_traits@_W@std@@V?$allocator@_W@2@@3@AAV23@@Z 10027e4c     misc.obj
 0002:00003e54       __ehfuncinfo$??8DateDurationImpl@@UBE_NABVDateDurationAbstr@yloader@@@Z 10027e54     misc.obj
 0002:00003e78       __unwindtable$??8DateDurationImpl@@UBE_NABVDateDurationAbstr@yloader@@@Z 10027e78     misc.obj
 0002:00003e88       __tryblocktable$??8DateDurationImpl@@UBE_NABVDateDurationAbstr@yloader@@@Z 10027e88     misc.obj
 0002:00003e9c       __catchsym$??8DateDurationImpl@@UBE_NABVDateDurationAbstr@yloader@@@Z$2 10027e9c     misc.obj
 0002:00003eac       __ehfuncinfo$??9DateDurationImpl@@UBE_NABVDateDurationAbstr@yloader@@@Z 10027eac     misc.obj
 0002:00003ed0       __unwindtable$??9DateDurationImpl@@UBE_NABVDateDurationAbstr@yloader@@@Z 10027ed0     misc.obj
 0002:00003ee0       __tryblocktable$??9DateDurationImpl@@UBE_NABVDateDurationAbstr@yloader@@@Z 10027ee0     misc.obj
 0002:00003ef4       __catchsym$??9DateDurationImpl@@UBE_NABVDateDurationAbstr@yloader@@@Z$2 10027ef4     misc.obj
 0002:00003f04       __ehfuncinfo$??ODateDurationImpl@@UBE_NABVDateDurationAbstr@yloader@@@Z 10027f04     misc.obj
 0002:00003f28       __unwindtable$??ODateDurationImpl@@UBE_NABVDateDurationAbstr@yloader@@@Z 10027f28     misc.obj
 0002:00003f38       __tryblocktable$??ODateDurationImpl@@UBE_NABVDateDurationAbstr@yloader@@@Z 10027f38     misc.obj
 0002:00003f4c       __catchsym$??ODateDurationImpl@@UBE_NABVDateDurationAbstr@yloader@@@Z$2 10027f4c     misc.obj
 0002:00003f5c       __ehfuncinfo$??MDateDurationImpl@@UBE_NABVDateDurationAbstr@yloader@@@Z 10027f5c     misc.obj
 0002:00003f80       __unwindtable$??MDateDurationImpl@@UBE_NABVDateDurationAbstr@yloader@@@Z 10027f80     misc.obj
 0002:00003f90       __tryblocktable$??MDateDurationImpl@@UBE_NABVDateDurationAbstr@yloader@@@Z 10027f90     misc.obj
 0002:00003fa4       __catchsym$??MDateDurationImpl@@UBE_NABVDateDurationAbstr@yloader@@@Z$2 10027fa4     misc.obj
 0002:00003fb4       __ehfuncinfo$??PDateDurationImpl@@UBE_NABVDateDurationAbstr@yloader@@@Z 10027fb4     misc.obj
 0002:00003fd8       __unwindtable$??PDateDurationImpl@@UBE_NABVDateDurationAbstr@yloader@@@Z 10027fd8     misc.obj
 0002:00003fe8       __tryblocktable$??PDateDurationImpl@@UBE_NABVDateDurationAbstr@yloader@@@Z 10027fe8     misc.obj
 0002:00003ffc       __catchsym$??PDateDurationImpl@@UBE_NABVDateDurationAbstr@yloader@@@Z$2 10027ffc     misc.obj
 0002:0000400c       __ehfuncinfo$??NDateDurationImpl@@UBE_NABVDateDurationAbstr@yloader@@@Z 1002800c     misc.obj
 0002:00004030       __unwindtable$??NDateDurationImpl@@UBE_NABVDateDurationAbstr@yloader@@@Z 10028030     misc.obj
 0002:00004040       __tryblocktable$??NDateDurationImpl@@UBE_NABVDateDurationAbstr@yloader@@@Z 10028040     misc.obj
 0002:00004054       __catchsym$??NDateDurationImpl@@UBE_NABVDateDurationAbstr@yloader@@@Z$2 10028054     misc.obj
 0002:00004064       __ehfuncinfo$??HDateDurationImpl@@UBE?AV?$shared_ptr@VDateDurationAbstr@yloader@@@std@@ABVDateDurationAbstr@yloader@@@Z 10028064     misc.obj
 0002:00004088       __unwindtable$??HDateDurationImpl@@UBE?AV?$shared_ptr@VDateDurationAbstr@yloader@@@std@@ABVDateDurationAbstr@yloader@@@Z 10028088     misc.obj
 0002:00004098       __tryblocktable$??HDateDurationImpl@@UBE?AV?$shared_ptr@VDateDurationAbstr@yloader@@@std@@ABVDateDurationAbstr@yloader@@@Z 10028098     misc.obj
 0002:000040ac       __catchsym$??HDateDurationImpl@@UBE?AV?$shared_ptr@VDateDurationAbstr@yloader@@@std@@ABVDateDurationAbstr@yloader@@@Z$6 100280ac     misc.obj
 0002:000040bc       __ehfuncinfo$??GDateDurationImpl@@UBE?AV?$shared_ptr@VDateDurationAbstr@yloader@@@std@@ABVDateDurationAbstr@yloader@@@Z 100280bc     misc.obj
 0002:000040e0       __unwindtable$??GDateDurationImpl@@UBE?AV?$shared_ptr@VDateDurationAbstr@yloader@@@std@@ABVDateDurationAbstr@yloader@@@Z 100280e0     misc.obj
 0002:000040f0       __tryblocktable$??GDateDurationImpl@@UBE?AV?$shared_ptr@VDateDurationAbstr@yloader@@@std@@ABVDateDurationAbstr@yloader@@@Z 100280f0     misc.obj
 0002:00004104       __catchsym$??GDateDurationImpl@@UBE?AV?$shared_ptr@VDateDurationAbstr@yloader@@@std@@ABVDateDurationAbstr@yloader@@@Z$6 10028104     misc.obj
 0002:00004114       __ehfuncinfo$??KDateDurationImpl@@UAE?AV?$shared_ptr@VDateDurationAbstr@yloader@@@std@@H@Z 10028114     misc.obj
 0002:00004138       __unwindtable$??KDateDurationImpl@@UAE?AV?$shared_ptr@VDateDurationAbstr@yloader@@@std@@H@Z 10028138     misc.obj
 0002:00004148       __tryblocktable$??KDateDurationImpl@@UAE?AV?$shared_ptr@VDateDurationAbstr@yloader@@@std@@H@Z 10028148     misc.obj
 0002:0000415c       __catchsym$??KDateDurationImpl@@UAE?AV?$shared_ptr@VDateDurationAbstr@yloader@@@std@@H@Z$6 1002815c     misc.obj
 0002:0000416c       __ehfuncinfo$??ZDateDurationImpl@@UAE?AV?$shared_ptr@VDateDurationAbstr@yloader@@@std@@ABVDateDurationAbstr@yloader@@@Z 1002816c     misc.obj
 0002:00004190       __unwindtable$??ZDateDurationImpl@@UAE?AV?$shared_ptr@VDateDurationAbstr@yloader@@@std@@ABVDateDurationAbstr@yloader@@@Z 10028190     misc.obj
 0002:000041a0       __tryblocktable$??ZDateDurationImpl@@UAE?AV?$shared_ptr@VDateDurationAbstr@yloader@@@std@@ABVDateDurationAbstr@yloader@@@Z 100281a0     misc.obj
 0002:000041b4       __catchsym$??ZDateDurationImpl@@UAE?AV?$shared_ptr@VDateDurationAbstr@yloader@@@std@@ABVDateDurationAbstr@yloader@@@Z$6 100281b4     misc.obj
 0002:000041c4       __ehfuncinfo$??YDateDurationImpl@@UAE?AV?$shared_ptr@VDateDurationAbstr@yloader@@@std@@ABVDateDurationAbstr@yloader@@@Z 100281c4     misc.obj
 0002:000041e8       __unwindtable$??YDateDurationImpl@@UAE?AV?$shared_ptr@VDateDurationAbstr@yloader@@@std@@ABVDateDurationAbstr@yloader@@@Z 100281e8     misc.obj
 0002:000041f8       __tryblocktable$??YDateDurationImpl@@UAE?AV?$shared_ptr@VDateDurationAbstr@yloader@@@std@@ABVDateDurationAbstr@yloader@@@Z 100281f8     misc.obj
 0002:0000420c       __catchsym$??YDateDurationImpl@@UAE?AV?$shared_ptr@VDateDurationAbstr@yloader@@@std@@ABVDateDurationAbstr@yloader@@@Z$6 1002820c     misc.obj
 0002:0000421c       __ehfuncinfo$??_0DateDurationImpl@@UAE?AV?$shared_ptr@VDateDurationAbstr@yloader@@@std@@H@Z 1002821c     misc.obj
 0002:00004240       __unwindtable$??_0DateDurationImpl@@UAE?AV?$shared_ptr@VDateDurationAbstr@yloader@@@std@@H@Z 10028240     misc.obj
 0002:00004250       __tryblocktable$??_0DateDurationImpl@@UAE?AV?$shared_ptr@VDateDurationAbstr@yloader@@@std@@H@Z 10028250     misc.obj
 0002:00004264       __catchsym$??_0DateDurationImpl@@UAE?AV?$shared_ptr@VDateDurationAbstr@yloader@@@std@@H@Z$6 10028264     misc.obj
 0002:00004274       __ehfuncinfo$??$to_iso_string_type@_W@gregorian@boost@@YA?AV?$basic_string@_WU?$char_traits@_W@std@@V?$allocator@_W@2@@std@@ABVdate@01@@Z 10028274     misc.obj
 0002:00004274       __ehfuncinfo$??$to_simple_string_type@_W@gregorian@boost@@YA?AV?$basic_string@_WU?$char_traits@_W@std@@V?$allocator@_W@2@@std@@ABVdate@01@@Z 10028274     misc.obj
 0002:00004274       __ehfuncinfo$?to_iso_extended_string@DateImpl@@UBE?AV?$basic_string@_WU?$char_traits@_W@std@@V?$allocator@_W@2@@std@@XZ 10028274     misc.obj
 0002:00004298       __unwindtable$??$to_iso_string_type@_W@gregorian@boost@@YA?AV?$basic_string@_WU?$char_traits@_W@std@@V?$allocator@_W@2@@std@@ABVdate@01@@Z 10028298     misc.obj
 0002:00004298       __unwindtable$??$to_simple_string_type@_W@gregorian@boost@@YA?AV?$basic_string@_WU?$char_traits@_W@std@@V?$allocator@_W@2@@std@@ABVdate@01@@Z 10028298     misc.obj
 0002:00004298       __unwindtable$?to_iso_extended_string@DateImpl@@UBE?AV?$basic_string@_WU?$char_traits@_W@std@@V?$allocator@_W@2@@std@@XZ 10028298     misc.obj
 0002:000042b0       __ehfuncinfo$??8DateImpl@@UBE_NABVDateAbstr@yloader@@@Z 100282b0     misc.obj
 0002:000042d4       __unwindtable$??8DateImpl@@UBE_NABVDateAbstr@yloader@@@Z 100282d4     misc.obj
 0002:000042e4       __tryblocktable$??8DateImpl@@UBE_NABVDateAbstr@yloader@@@Z 100282e4     misc.obj
 0002:000042f8       __catchsym$??8DateImpl@@UBE_NABVDateAbstr@yloader@@@Z$2 100282f8     misc.obj
 0002:00004308       __ehfuncinfo$??9DateImpl@@UBE_NABVDateAbstr@yloader@@@Z 10028308     misc.obj
 0002:0000432c       __unwindtable$??9DateImpl@@UBE_NABVDateAbstr@yloader@@@Z 1002832c     misc.obj
 0002:0000433c       __tryblocktable$??9DateImpl@@UBE_NABVDateAbstr@yloader@@@Z 1002833c     misc.obj
 0002:00004350       __catchsym$??9DateImpl@@UBE_NABVDateAbstr@yloader@@@Z$2 10028350     misc.obj
 0002:00004360       __ehfuncinfo$??ODateImpl@@UBE_NABVDateAbstr@yloader@@@Z 10028360     misc.obj
 0002:00004384       __unwindtable$??ODateImpl@@UBE_NABVDateAbstr@yloader@@@Z 10028384     misc.obj
 0002:00004394       __tryblocktable$??ODateImpl@@UBE_NABVDateAbstr@yloader@@@Z 10028394     misc.obj
 0002:000043a8       __catchsym$??ODateImpl@@UBE_NABVDateAbstr@yloader@@@Z$2 100283a8     misc.obj
 0002:000043b8       __ehfuncinfo$??MDateImpl@@UBE_NABVDateAbstr@yloader@@@Z 100283b8     misc.obj
 0002:000043dc       __unwindtable$??MDateImpl@@UBE_NABVDateAbstr@yloader@@@Z 100283dc     misc.obj
 0002:000043ec       __tryblocktable$??MDateImpl@@UBE_NABVDateAbstr@yloader@@@Z 100283ec     misc.obj
 0002:00004400       __catchsym$??MDateImpl@@UBE_NABVDateAbstr@yloader@@@Z$2 10028400     misc.obj
 0002:00004410       __ehfuncinfo$??PDateImpl@@UBE_NABVDateAbstr@yloader@@@Z 10028410     misc.obj
 0002:00004434       __unwindtable$??PDateImpl@@UBE_NABVDateAbstr@yloader@@@Z 10028434     misc.obj
 0002:00004444       __tryblocktable$??PDateImpl@@UBE_NABVDateAbstr@yloader@@@Z 10028444     misc.obj
 0002:00004458       __catchsym$??PDateImpl@@UBE_NABVDateAbstr@yloader@@@Z$2 10028458     misc.obj
 0002:00004468       __ehfuncinfo$??NDateImpl@@UBE_NABVDateAbstr@yloader@@@Z 10028468     misc.obj
 0002:0000448c       __unwindtable$??NDateImpl@@UBE_NABVDateAbstr@yloader@@@Z 1002848c     misc.obj
 0002:0000449c       __tryblocktable$??NDateImpl@@UBE_NABVDateAbstr@yloader@@@Z 1002849c     misc.obj
 0002:000044b0       __catchsym$??NDateImpl@@UBE_NABVDateAbstr@yloader@@@Z$2 100284b0     misc.obj
 0002:000044c0       __ehfuncinfo$??GDateImpl@@UBE?AV?$shared_ptr@VDateAbstr@yloader@@@std@@ABVDateDurationAbstr@yloader@@@Z 100284c0     misc.obj
 0002:000044e4       __unwindtable$??GDateImpl@@UBE?AV?$shared_ptr@VDateAbstr@yloader@@@std@@ABVDateDurationAbstr@yloader@@@Z 100284e4     misc.obj
 0002:000044f4       __tryblocktable$??GDateImpl@@UBE?AV?$shared_ptr@VDateAbstr@yloader@@@std@@ABVDateDurationAbstr@yloader@@@Z 100284f4     misc.obj
 0002:00004508       __catchsym$??GDateImpl@@UBE?AV?$shared_ptr@VDateAbstr@yloader@@@std@@ABVDateDurationAbstr@yloader@@@Z$6 10028508     misc.obj
 0002:00004518       __ehfuncinfo$??HDateImpl@@UBE?AV?$shared_ptr@VDateAbstr@yloader@@@std@@ABVDateDurationAbstr@yloader@@@Z 10028518     misc.obj
 0002:0000453c       __unwindtable$??HDateImpl@@UBE?AV?$shared_ptr@VDateAbstr@yloader@@@std@@ABVDateDurationAbstr@yloader@@@Z 1002853c     misc.obj
 0002:0000454c       __tryblocktable$??HDateImpl@@UBE?AV?$shared_ptr@VDateAbstr@yloader@@@std@@ABVDateDurationAbstr@yloader@@@Z 1002854c     misc.obj
 0002:00004560       __catchsym$??HDateImpl@@UBE?AV?$shared_ptr@VDateAbstr@yloader@@@std@@ABVDateDurationAbstr@yloader@@@Z$6 10028560     misc.obj
 0002:00004570       __ehfuncinfo$??GDateImpl@@UBE?AV?$shared_ptr@VDateDurationAbstr@yloader@@@std@@ABVDateAbstr@yloader@@@Z 10028570     misc.obj
 0002:00004594       __unwindtable$??GDateImpl@@UBE?AV?$shared_ptr@VDateDurationAbstr@yloader@@@std@@ABVDateAbstr@yloader@@@Z 10028594     misc.obj
 0002:000045a4       __tryblocktable$??GDateImpl@@UBE?AV?$shared_ptr@VDateDurationAbstr@yloader@@@std@@ABVDateAbstr@yloader@@@Z 100285a4     misc.obj
 0002:000045b8       __catchsym$??GDateImpl@@UBE?AV?$shared_ptr@VDateDurationAbstr@yloader@@@std@@ABVDateAbstr@yloader@@@Z$6 100285b8     misc.obj
 0002:000045c8       __ehfuncinfo$??ZDateImpl@@UAE?AV?$shared_ptr@VDateAbstr@yloader@@@std@@ABVDateDurationAbstr@yloader@@@Z 100285c8     misc.obj
 0002:000045ec       __unwindtable$??ZDateImpl@@UAE?AV?$shared_ptr@VDateAbstr@yloader@@@std@@ABVDateDurationAbstr@yloader@@@Z 100285ec     misc.obj
 0002:000045fc       __tryblocktable$??ZDateImpl@@UAE?AV?$shared_ptr@VDateAbstr@yloader@@@std@@ABVDateDurationAbstr@yloader@@@Z 100285fc     misc.obj
 0002:00004610       __catchsym$??ZDateImpl@@UAE?AV?$shared_ptr@VDateAbstr@yloader@@@std@@ABVDateDurationAbstr@yloader@@@Z$6 10028610     misc.obj
